
_ADXL355_init:

;adxl355_spi.c,106 :: 		void ADXL355_init(short tMuestreo){
;adxl355_spi.c,107 :: 		ADXL355_write_byte(Reset,0x52);                                             //Resetea el dispositivo
	PUSH	W10
	PUSH	W11
	PUSH	W10
	MOV.B	#82, W11
	MOV.B	#47, W10
	CALL	_ADXL355_write_byte
;adxl355_spi.c,108 :: 		Delay_ms(10);
	MOV	#2, W8
	MOV	#14464, W7
L_ADXL355_init0:
	DEC	W7
	BRA NZ	L_ADXL355_init0
	DEC	W8
	BRA NZ	L_ADXL355_init0
	NOP
	NOP
;adxl355_spi.c,109 :: 		ADXL355_write_byte(POWER_CTL, DRDY_OFF|STANDBY);
	MOV.B	#5, W11
	MOV.B	#45, W10
	CALL	_ADXL355_write_byte
;adxl355_spi.c,110 :: 		ADXL355_write_byte(Range, _2G);
	MOV.B	#1, W11
	MOV.B	#44, W10
	CALL	_ADXL355_write_byte
	POP	W10
;adxl355_spi.c,111 :: 		switch (tMuestreo){
	GOTO	L_ADXL355_init2
;adxl355_spi.c,112 :: 		case 1:
L_ADXL355_init4:
;adxl355_spi.c,113 :: 		ADXL355_write_byte(Filter, NO_HIGH_PASS_FILTER|_62_5_Hz);       //ODR=250Hz 1
	MOV.B	#4, W11
	MOV.B	#40, W10
	CALL	_ADXL355_write_byte
;adxl355_spi.c,114 :: 		break;
	GOTO	L_ADXL355_init3
;adxl355_spi.c,115 :: 		case 2:
L_ADXL355_init5:
;adxl355_spi.c,116 :: 		ADXL355_write_byte(Filter, NO_HIGH_PASS_FILTER|_31_25_Hz);      //ODR=125Hz 2
	MOV.B	#5, W11
	MOV.B	#40, W10
	CALL	_ADXL355_write_byte
;adxl355_spi.c,117 :: 		break;
	GOTO	L_ADXL355_init3
;adxl355_spi.c,118 :: 		case 4:
L_ADXL355_init6:
;adxl355_spi.c,119 :: 		ADXL355_write_byte(Filter, NO_HIGH_PASS_FILTER|_15_625_Hz);     //ODR=62.5Hz 4
	MOV.B	#6, W11
	MOV.B	#40, W10
	CALL	_ADXL355_write_byte
;adxl355_spi.c,120 :: 		break;
	GOTO	L_ADXL355_init3
;adxl355_spi.c,121 :: 		case 8:
L_ADXL355_init7:
;adxl355_spi.c,122 :: 		ADXL355_write_byte(Filter, NO_HIGH_PASS_FILTER|_7_813_Hz );     //ODR=31.25Hz 8
	MOV.B	#7, W11
	MOV.B	#40, W10
	CALL	_ADXL355_write_byte
;adxl355_spi.c,123 :: 		break;
	GOTO	L_ADXL355_init3
;adxl355_spi.c,124 :: 		}
L_ADXL355_init2:
	CP.B	W10, #1
	BRA NZ	L__ADXL355_init194
	GOTO	L_ADXL355_init4
L__ADXL355_init194:
	CP.B	W10, #2
	BRA NZ	L__ADXL355_init195
	GOTO	L_ADXL355_init5
L__ADXL355_init195:
	CP.B	W10, #4
	BRA NZ	L__ADXL355_init196
	GOTO	L_ADXL355_init6
L__ADXL355_init196:
	CP.B	W10, #8
	BRA NZ	L__ADXL355_init197
	GOTO	L_ADXL355_init7
L__ADXL355_init197:
L_ADXL355_init3:
;adxl355_spi.c,125 :: 		}
L_end_ADXL355_init:
	POP	W11
	POP	W10
	RETURN
; end of _ADXL355_init

_ADXL355_write_byte:

;adxl355_spi.c,128 :: 		void ADXL355_write_byte(unsigned char address, unsigned char value){
;adxl355_spi.c,129 :: 		address = (address<<1)&0xFE;
	PUSH	W10
	ZE	W10, W0
	SL	W0, #1, W1
	MOV	#254, W0
	AND	W1, W0, W0
	MOV.B	W0, W10
;adxl355_spi.c,130 :: 		CS_ADXL355=0;
	BCLR	LATA3_bit, BitPos(LATA3_bit+0)
;adxl355_spi.c,131 :: 		SPI2_Write(address);
	ZE	W0, W10
	CALL	_SPI2_Write
;adxl355_spi.c,132 :: 		SPI2_Write(value);
	ZE	W11, W10
	CALL	_SPI2_Write
;adxl355_spi.c,133 :: 		CS_ADXL355=1;
	BSET	LATA3_bit, BitPos(LATA3_bit+0)
;adxl355_spi.c,134 :: 		}
L_end_ADXL355_write_byte:
	POP	W10
	RETURN
; end of _ADXL355_write_byte

_ADXL355_read_byte:

;adxl355_spi.c,137 :: 		unsigned char ADXL355_read_byte(unsigned char address){
;adxl355_spi.c,138 :: 		unsigned char value = 0x00;
	PUSH	W10
;adxl355_spi.c,139 :: 		address=(address<<1)|0x01;
	ZE	W10, W0
	SL	W0, #1, W0
	IOR	W0, #1, W0
	MOV.B	W0, W10
;adxl355_spi.c,140 :: 		CS_ADXL355=0;
	BCLR	LATA3_bit, BitPos(LATA3_bit+0)
;adxl355_spi.c,141 :: 		SPI2_Write(address);
	ZE	W0, W10
	CALL	_SPI2_Write
;adxl355_spi.c,142 :: 		value=SPI2_Read(0);
	CLR	W10
	CALL	_SPI2_Read
;adxl355_spi.c,143 :: 		CS_ADXL355=1;
	BSET	LATA3_bit, BitPos(LATA3_bit+0)
;adxl355_spi.c,144 :: 		return value;
;adxl355_spi.c,145 :: 		}
;adxl355_spi.c,144 :: 		return value;
;adxl355_spi.c,145 :: 		}
L_end_ADXL355_read_byte:
	POP	W10
	RETURN
; end of _ADXL355_read_byte

_ADXL355_read_data:

;adxl355_spi.c,148 :: 		unsigned int ADXL355_read_data(unsigned char *vectorMuestra){
;adxl355_spi.c,151 :: 		if((ADXL355_read_byte(Status)&0x01)==1){                                 //Verifica que el bit DATA_RDY del registro Status este en alto
	PUSH	W10
	MOV.B	#4, W10
	CALL	_ADXL355_read_byte
	POP	W10
	ZE	W0, W0
	AND	W0, #1, W0
	CP	W0, #1
	BRA Z	L__ADXL355_read_data201
	GOTO	L_ADXL355_read_data8
L__ADXL355_read_data201:
;adxl355_spi.c,152 :: 		CS_ADXL355=0;
	BCLR	LATA3_bit, BitPos(LATA3_bit+0)
;adxl355_spi.c,153 :: 		for (j=0;j<9;j++){
; j start address is: 4 (W2)
	CLR	W2
; j end address is: 4 (W2)
L_ADXL355_read_data9:
; j start address is: 4 (W2)
	CP.B	W2, #9
	BRA LTU	L__ADXL355_read_data202
	GOTO	L_ADXL355_read_data10
L__ADXL355_read_data202:
;adxl355_spi.c,154 :: 		muestra = ADXL355_read_byte(axisAddresses[j]);
	ZE	W2, W1
	MOV	#lo_addr(_axisAddresses), W0
	ADD	W0, W1, W0
	PUSH	W10
	MOV.B	[W0], W10
	CALL	_ADXL355_read_byte
	POP	W10
;adxl355_spi.c,155 :: 		vectorMuestra[j] = muestra;
	ZE	W2, W1
	ADD	W10, W1, W1
	MOV.B	W0, [W1]
;adxl355_spi.c,153 :: 		for (j=0;j<9;j++){
	INC.B	W2
;adxl355_spi.c,156 :: 		}
; j end address is: 4 (W2)
	GOTO	L_ADXL355_read_data9
L_ADXL355_read_data10:
;adxl355_spi.c,157 :: 		CS_ADXL355=1;
	BSET	LATA3_bit, BitPos(LATA3_bit+0)
;adxl355_spi.c,158 :: 		} else {
	GOTO	L_ADXL355_read_data12
L_ADXL355_read_data8:
;adxl355_spi.c,159 :: 		for (j=0;j<9;j++){
; j start address is: 4 (W2)
	CLR	W2
; j end address is: 4 (W2)
L_ADXL355_read_data13:
; j start address is: 4 (W2)
	CP.B	W2, #9
	BRA LTU	L__ADXL355_read_data203
	GOTO	L_ADXL355_read_data14
L__ADXL355_read_data203:
;adxl355_spi.c,160 :: 		vectorMuestra[j] = 0;
	ZE	W2, W0
	ADD	W10, W0, W1
	CLR	W0
	MOV.B	W0, [W1]
;adxl355_spi.c,159 :: 		for (j=0;j<9;j++){
	INC.B	W2
;adxl355_spi.c,161 :: 		}
; j end address is: 4 (W2)
	GOTO	L_ADXL355_read_data13
L_ADXL355_read_data14:
;adxl355_spi.c,162 :: 		}
L_ADXL355_read_data12:
;adxl355_spi.c,163 :: 		return;
;adxl355_spi.c,164 :: 		}
L_end_ADXL355_read_data:
	RETURN
; end of _ADXL355_read_data

_ADXL355_read_FIFO:
	LNK	#2

;adxl355_spi.c,167 :: 		unsigned int ADXL355_read_FIFO(unsigned char *vectorFIFO){
;adxl355_spi.c,170 :: 		CS_ADXL355 = 0;
	PUSH	W10
	BCLR	LATA3_bit, BitPos(LATA3_bit+0)
;adxl355_spi.c,171 :: 		SPI2_Write(add);
	PUSH	W10
	MOV	#35, W10
	CALL	_SPI2_Write
	POP	W10
;adxl355_spi.c,173 :: 		vectorFIFO[0] = SPI2_Read(0);
	MOV	W10, W0
	MOV	W0, [W14+0]
	PUSH	W10
	CLR	W10
	CALL	_SPI2_Read
	POP	W10
	MOV	[W14+0], W1
	MOV.B	W0, [W1]
;adxl355_spi.c,174 :: 		vectorFIFO[1] = SPI2_Read(1);
	ADD	W10, #1, W0
	MOV	W0, [W14+0]
	PUSH	W10
	MOV	#1, W10
	CALL	_SPI2_Read
	POP	W10
	MOV	[W14+0], W1
	MOV.B	W0, [W1]
;adxl355_spi.c,175 :: 		vectorFIFO[2] = SPI2_Read(2);
	ADD	W10, #2, W0
	MOV	W0, [W14+0]
	PUSH	W10
	MOV	#2, W10
	CALL	_SPI2_Read
	POP	W10
	MOV	[W14+0], W1
	MOV.B	W0, [W1]
;adxl355_spi.c,177 :: 		vectorFIFO[3] = SPI2_Read(0);
	ADD	W10, #3, W0
	MOV	W0, [W14+0]
	PUSH	W10
	CLR	W10
	CALL	_SPI2_Read
	POP	W10
	MOV	[W14+0], W1
	MOV.B	W0, [W1]
;adxl355_spi.c,178 :: 		vectorFIFO[4] = SPI2_Read(1);
	ADD	W10, #4, W0
	MOV	W0, [W14+0]
	PUSH	W10
	MOV	#1, W10
	CALL	_SPI2_Read
	POP	W10
	MOV	[W14+0], W1
	MOV.B	W0, [W1]
;adxl355_spi.c,179 :: 		vectorFIFO[5] = SPI2_Read(2);
	ADD	W10, #5, W0
	MOV	W0, [W14+0]
	PUSH	W10
	MOV	#2, W10
	CALL	_SPI2_Read
	POP	W10
	MOV	[W14+0], W1
	MOV.B	W0, [W1]
;adxl355_spi.c,181 :: 		vectorFIFO[6] = SPI2_Read(0);
	ADD	W10, #6, W0
	MOV	W0, [W14+0]
	PUSH	W10
	CLR	W10
	CALL	_SPI2_Read
	POP	W10
	MOV	[W14+0], W1
	MOV.B	W0, [W1]
;adxl355_spi.c,182 :: 		vectorFIFO[7] = SPI2_Read(1);
	ADD	W10, #7, W0
	MOV	W0, [W14+0]
	PUSH	W10
	MOV	#1, W10
	CALL	_SPI2_Read
	POP	W10
	MOV	[W14+0], W1
	MOV.B	W0, [W1]
;adxl355_spi.c,183 :: 		vectorFIFO[8] = SPI2_Read(2);
	ADD	W10, #8, W0
	MOV	W0, [W14+0]
	MOV	#2, W10
	CALL	_SPI2_Read
	MOV	[W14+0], W1
	MOV.B	W0, [W1]
;adxl355_spi.c,184 :: 		CS_ADXL355 = 1;
	BSET	LATA3_bit, BitPos(LATA3_bit+0)
;adxl355_spi.c,185 :: 		Delay_us(5);
	MOV	#40, W7
L_ADXL355_read_FIFO16:
	DEC	W7
	BRA NZ	L_ADXL355_read_FIFO16
	NOP
	NOP
;adxl355_spi.c,187 :: 		}
;adxl355_spi.c,186 :: 		return;
;adxl355_spi.c,187 :: 		}
L_end_ADXL355_read_FIFO:
	POP	W10
	ULNK
	RETURN
; end of _ADXL355_read_FIFO

_ConfigurarGPS:

;tiempo_gps.c,5 :: 		void ConfigurarGPS(short conf,short NMA){
;tiempo_gps.c,6 :: 		if (conf==1){
	PUSH	W10
	CP.B	W10, #1
	BRA Z	L__ConfigurarGPS206
	GOTO	L_ConfigurarGPS18
L__ConfigurarGPS206:
;tiempo_gps.c,7 :: 		UART1_Init(9600);
	PUSH	W11
	MOV	#9600, W10
	MOV	#0, W11
	CALL	_UART1_Init
	POP	W11
;tiempo_gps.c,9 :: 		UART1_Write_Text("$PMTK220,1000*1F\r\n");                                    //Set position fix interval. Interval: Position fix interval [msec]. Must be larger than 200.
	MOV	#lo_addr(?lstr1_Acelerografo), W10
	CALL	_UART1_Write_Text
;tiempo_gps.c,10 :: 		UART1_Write_Text("$PMTK251,115200*1F\r\n");                                  //Set NMEA port baud rate. 0 - 115200 bauds
	MOV	#lo_addr(?lstr2_Acelerografo), W10
	CALL	_UART1_Write_Text
;tiempo_gps.c,11 :: 		Delay_ms(1000);                                                              //Tiempo necesario para que se de efecto el cambio de configuracion
	MOV	#123, W8
	MOV	#4681, W7
L_ConfigurarGPS19:
	DEC	W7
	BRA NZ	L_ConfigurarGPS19
	DEC	W8
	BRA NZ	L_ConfigurarGPS19
;tiempo_gps.c,12 :: 		UART1_Init(115200);
	PUSH	W11
	MOV	#49664, W10
	MOV	#1, W11
	CALL	_UART1_Init
	POP	W11
;tiempo_gps.c,13 :: 		}
L_ConfigurarGPS18:
;tiempo_gps.c,15 :: 		UART1_Write_Text("$PMTK313,1*2E\r\n");                                            //Enable to search a SBAS satellite or not. ‘1’ = Enable
	MOV	#lo_addr(?lstr3_Acelerografo), W10
	CALL	_UART1_Write_Text
;tiempo_gps.c,16 :: 		UART1_Write_Text("$PMTK319,1*24\r\n");                                            //Choose SBAS satellite test mode.‘1’ = Integrity mode
	MOV	#lo_addr(?lstr4_Acelerografo), W10
	CALL	_UART1_Write_Text
;tiempo_gps.c,18 :: 		UART1_Write_Text("$PMTK513,1*28\r\n");                                            //Enable to search a SBAS satellite or not. ‘1’ = Enable
	MOV	#lo_addr(?lstr5_Acelerografo), W10
	CALL	_UART1_Write_Text
;tiempo_gps.c,20 :: 		switch (NMA){                                                                     //Set NMA output
	GOTO	L_ConfigurarGPS21
;tiempo_gps.c,21 :: 		case 1:
L_ConfigurarGPS23:
;tiempo_gps.c,22 :: 		UART1_Write_Text("$PMTK314,0,1,0,0,0,0,0,0,0,0,0,0,0,0,0,0,0,0,0*29\r\n");   //GPRMC
	MOV	#lo_addr(?lstr6_Acelerografo), W10
	CALL	_UART1_Write_Text
;tiempo_gps.c,23 :: 		break;
	GOTO	L_ConfigurarGPS22
;tiempo_gps.c,24 :: 		case 3:
L_ConfigurarGPS24:
;tiempo_gps.c,25 :: 		UART1_Write_Text("$PMTK314,0,0,0,1,0,0,0,0,0,0,0,0,0,0,0,0,0,0,0*29\r\n");   //GPGGA
	MOV	#lo_addr(?lstr7_Acelerografo), W10
	CALL	_UART1_Write_Text
;tiempo_gps.c,26 :: 		break;
	GOTO	L_ConfigurarGPS22
;tiempo_gps.c,27 :: 		default:
L_ConfigurarGPS25:
;tiempo_gps.c,28 :: 		UART1_Write_Text("$PMTK314,0,1,0,0,0,0,0,0,0,0,0,0,0,0,0,0,0,0,0*29\r\n");   //GPRMC
	MOV	#lo_addr(?lstr8_Acelerografo), W10
	CALL	_UART1_Write_Text
;tiempo_gps.c,29 :: 		break;
	GOTO	L_ConfigurarGPS22
;tiempo_gps.c,30 :: 		}
L_ConfigurarGPS21:
	CP.B	W11, #1
	BRA NZ	L__ConfigurarGPS207
	GOTO	L_ConfigurarGPS23
L__ConfigurarGPS207:
	CP.B	W11, #3
	BRA NZ	L__ConfigurarGPS208
	GOTO	L_ConfigurarGPS24
L__ConfigurarGPS208:
	GOTO	L_ConfigurarGPS25
L_ConfigurarGPS22:
;tiempo_gps.c,32 :: 		Delay_ms(1000);
	MOV	#123, W8
	MOV	#4681, W7
L_ConfigurarGPS26:
	DEC	W7
	BRA NZ	L_ConfigurarGPS26
	DEC	W8
	BRA NZ	L_ConfigurarGPS26
;tiempo_gps.c,33 :: 		}
L_end_ConfigurarGPS:
	POP	W10
	RETURN
; end of _ConfigurarGPS

_RecuperarFechaGPS:
	LNK	#28

;tiempo_gps.c,40 :: 		unsigned long RecuperarFechaGPS(unsigned char *tramaDatosGPS){
;tiempo_gps.c,45 :: 		char *ptrDatoStringF = &datoStringF;
	PUSH	W10
	ADD	W14, #16, W4
	MOV	W4, [W14+26]
; ptrDatoStringF start address is: 12 (W6)
	MOV	W4, W6
;tiempo_gps.c,46 :: 		datoStringF[2] = '\0';
	ADD	W4, #2, W1
	CLR	W0
	MOV.B	W0, [W1]
;tiempo_gps.c,47 :: 		tramaFecha[3] = '\0';
	ADD	W14, #0, W3
	MOV	W3, [W14+24]
	ADD	W3, #12, W2
	CLR	W0
	CLR	W1
	MOV.D	W0, [W2]
;tiempo_gps.c,50 :: 		datoStringF[0] = tramaDatosGPS[6];
	ADD	W10, #6, W0
	MOV.B	[W0], [W4]
;tiempo_gps.c,51 :: 		datoStringF[1] = tramaDatosGPS[7];
	ADD	W4, #1, W1
	ADD	W10, #7, W0
	MOV.B	[W0], [W1]
;tiempo_gps.c,52 :: 		tramaFecha[0] =  atoi(ptrDatoStringF);
	MOV	W3, W0
	MOV	W0, [W14+20]
	PUSH	W10
	MOV	W6, W10
	CALL	_atoi
	POP	W10
	MOV	W0, W1
	ASR	W1, #15, W2
	MOV	[W14+20], W0
	MOV	W1, [W0++]
	MOV	W2, [W0--]
;tiempo_gps.c,55 :: 		datoStringF[0] = tramaDatosGPS[8];
	ADD	W10, #8, W1
	MOV	[W14+26], W0
	MOV.B	[W1], [W0]
;tiempo_gps.c,56 :: 		datoStringF[1] = tramaDatosGPS[9];
	ADD	W0, #1, W1
	ADD	W10, #9, W0
	MOV.B	[W0], [W1]
;tiempo_gps.c,57 :: 		tramaFecha[1] = atoi(ptrDatoStringF);
	MOV	[W14+24], W0
	ADD	W0, #4, W0
	MOV	W0, [W14+20]
	PUSH	W10
	MOV	W6, W10
	CALL	_atoi
	POP	W10
	MOV	W0, W1
	ASR	W1, #15, W2
	MOV	[W14+20], W0
	MOV	W1, [W0++]
	MOV	W2, [W0--]
;tiempo_gps.c,60 :: 		datoStringF[0] = tramaDatosGPS[10];
	ADD	W10, #10, W1
	MOV	[W14+26], W0
	MOV.B	[W1], [W0]
;tiempo_gps.c,61 :: 		datoStringF[1] = tramaDatosGPS[11];
	ADD	W0, #1, W1
	ADD	W10, #11, W0
	MOV.B	[W0], [W1]
;tiempo_gps.c,62 :: 		tramaFecha[2] = atoi(ptrDatoStringF);
	MOV	[W14+24], W0
	ADD	W0, #8, W0
	MOV	W0, [W14+20]
	MOV	W6, W10
; ptrDatoStringF end address is: 12 (W6)
	CALL	_atoi
	MOV	W0, W1
	ASR	W1, #15, W2
	MOV	[W14+20], W0
	MOV	W1, [W0++]
	MOV	W2, [W0--]
;tiempo_gps.c,64 :: 		fechaGPS = (tramaFecha[0]*10000)+(tramaFecha[1]*100)+(tramaFecha[2]);      //10000*dd + 100*mm + aa
	MOV	[W14+24], W2
	MOV.D	[W2], W0
	MOV	#10000, W2
	MOV	#0, W3
	CALL	__Multiply_32x32
	MOV	[W14+24], W2
	MOV	W0, [W14+20]
	MOV	W1, [W14+22]
	ADD	W2, #4, W2
	MOV.D	[W2], W0
	MOV	#100, W2
	MOV	#0, W3
	CALL	__Multiply_32x32
	MOV	[W14+20], W2
	MOV	[W14+22], W3
	ADD	W2, W0, W4
	ADDC	W3, W1, W5
	MOV	[W14+24], W0
	ADD	W0, #8, W2
	ADD	W4, [W2++], W0
	ADDC	W5, [W2--], W1
;tiempo_gps.c,66 :: 		return fechaGPS;
;tiempo_gps.c,68 :: 		}
;tiempo_gps.c,66 :: 		return fechaGPS;
;tiempo_gps.c,68 :: 		}
L_end_RecuperarFechaGPS:
	POP	W10
	ULNK
	RETURN
; end of _RecuperarFechaGPS

_RecuperarHoraGPS:
	LNK	#28

;tiempo_gps.c,73 :: 		unsigned long RecuperarHoraGPS(unsigned char *tramaDatosGPS){
;tiempo_gps.c,78 :: 		char *ptrDatoString = &datoString;
	PUSH	W10
	ADD	W14, #16, W4
	MOV	W4, [W14+26]
; ptrDatoString start address is: 12 (W6)
	MOV	W4, W6
;tiempo_gps.c,79 :: 		datoString[2] = '\0';
	ADD	W4, #2, W1
	CLR	W0
	MOV.B	W0, [W1]
;tiempo_gps.c,80 :: 		tramaTiempo[3] = '\0';
	ADD	W14, #0, W3
	MOV	W3, [W14+24]
	ADD	W3, #12, W2
	CLR	W0
	CLR	W1
	MOV.D	W0, [W2]
;tiempo_gps.c,83 :: 		datoString[0] = tramaDatosGPS[0];
	MOV.B	[W10], [W4]
;tiempo_gps.c,84 :: 		datoString[1] = tramaDatosGPS[1];
	ADD	W4, #1, W1
	ADD	W10, #1, W0
	MOV.B	[W0], [W1]
;tiempo_gps.c,85 :: 		tramaTiempo[0] = atoi(ptrDatoString);
	MOV	W3, W0
	MOV	W0, [W14+20]
	PUSH	W10
	MOV	W6, W10
	CALL	_atoi
	POP	W10
	MOV	W0, W1
	ASR	W1, #15, W2
	MOV	[W14+20], W0
	MOV	W1, [W0++]
	MOV	W2, [W0--]
;tiempo_gps.c,88 :: 		datoString[0] = tramaDatosGPS[2];
	ADD	W10, #2, W1
	MOV	[W14+26], W0
	MOV.B	[W1], [W0]
;tiempo_gps.c,89 :: 		datoString[1] = tramaDatosGPS[3];
	ADD	W0, #1, W1
	ADD	W10, #3, W0
	MOV.B	[W0], [W1]
;tiempo_gps.c,90 :: 		tramaTiempo[1] = atoi(ptrDatoString);
	MOV	[W14+24], W0
	ADD	W0, #4, W0
	MOV	W0, [W14+20]
	PUSH	W10
	MOV	W6, W10
	CALL	_atoi
	POP	W10
	MOV	W0, W1
	ASR	W1, #15, W2
	MOV	[W14+20], W0
	MOV	W1, [W0++]
	MOV	W2, [W0--]
;tiempo_gps.c,93 :: 		datoString[0] = tramaDatosGPS[4];
	ADD	W10, #4, W1
	MOV	[W14+26], W0
	MOV.B	[W1], [W0]
;tiempo_gps.c,94 :: 		datoString[1] = tramaDatosGPS[5];
	ADD	W0, #1, W1
	ADD	W10, #5, W0
	MOV.B	[W0], [W1]
;tiempo_gps.c,95 :: 		tramaTiempo[2] = atoi(ptrDatoString);
	MOV	[W14+24], W0
	ADD	W0, #8, W0
	MOV	W0, [W14+20]
	MOV	W6, W10
; ptrDatoString end address is: 12 (W6)
	CALL	_atoi
	MOV	W0, W1
	ASR	W1, #15, W2
	MOV	[W14+20], W0
	MOV	W1, [W0++]
	MOV	W2, [W0--]
;tiempo_gps.c,97 :: 		horaGPS = (tramaTiempo[0]*3600)+(tramaTiempo[1]*60)+(tramaTiempo[2]);      //Calcula el segundo actual = hh*3600 + mm*60 + ss
	MOV	[W14+24], W2
	MOV.D	[W2], W0
	MOV	#3600, W2
	MOV	#0, W3
	CALL	__Multiply_32x32
	MOV	[W14+24], W2
	MOV	W0, [W14+20]
	MOV	W1, [W14+22]
	ADD	W2, #4, W2
	MOV.D	[W2], W0
	MOV	#60, W2
	MOV	#0, W3
	CALL	__Multiply_32x32
	MOV	[W14+20], W2
	MOV	[W14+22], W3
	ADD	W2, W0, W4
	ADDC	W3, W1, W5
	MOV	[W14+24], W0
	ADD	W0, #8, W2
	ADD	W4, [W2++], W0
	ADDC	W5, [W2--], W1
;tiempo_gps.c,98 :: 		return horaGPS;
;tiempo_gps.c,100 :: 		}
;tiempo_gps.c,98 :: 		return horaGPS;
;tiempo_gps.c,100 :: 		}
L_end_RecuperarHoraGPS:
	POP	W10
	ULNK
	RETURN
; end of _RecuperarHoraGPS

_RecuperarFechaRPI:
	LNK	#4

;tiempo_gps.c,105 :: 		unsigned long RecuperarFechaRPI(unsigned short *tramaTiempoRpi){
;tiempo_gps.c,109 :: 		fechaRPi = ((long)tramaTiempoRpi[0]*10000)+((long)tramaTiempoRpi[1]*100)+((long)tramaTiempoRpi[2]);      //10000*dd + 100*mm + aa
	ZE	[W10], W0
	CLR	W1
	MOV	#10000, W2
	MOV	#0, W3
	CALL	__Multiply_32x32
	MOV	W0, [W14+0]
	MOV	W1, [W14+2]
	ADD	W10, #1, W0
	ZE	[W0], W0
	CLR	W1
	MOV	#100, W2
	MOV	#0, W3
	CALL	__Multiply_32x32
	MOV	[W14+0], W2
	MOV	[W14+2], W3
	ADD	W2, W0, W2
	ADDC	W3, W1, W3
	ADD	W10, #2, W0
	ZE	[W0], W0
	CLR	W1
	ADD	W2, W0, W0
	ADDC	W3, W1, W1
;tiempo_gps.c,112 :: 		return fechaRPi;
;tiempo_gps.c,114 :: 		}
L_end_RecuperarFechaRPI:
	ULNK
	RETURN
; end of _RecuperarFechaRPI

_RecuperarHoraRPI:
	LNK	#4

;tiempo_gps.c,119 :: 		unsigned long RecuperarHoraRPI(unsigned short *tramaTiempoRpi){
;tiempo_gps.c,123 :: 		horaRPi = ((long)tramaTiempoRpi[3]*3600)+((long)tramaTiempoRpi[4]*60)+((long)tramaTiempoRpi[5]);      //Calcula el segundo actual = hh*3600 + mm*60 + ss      //10000*dd + 100*mm + aa
	ADD	W10, #3, W0
	ZE	[W0], W0
	CLR	W1
	MOV	#3600, W2
	MOV	#0, W3
	CALL	__Multiply_32x32
	MOV	W0, [W14+0]
	MOV	W1, [W14+2]
	ADD	W10, #4, W0
	ZE	[W0], W0
	CLR	W1
	MOV	#60, W2
	MOV	#0, W3
	CALL	__Multiply_32x32
	MOV	[W14+0], W2
	MOV	[W14+2], W3
	ADD	W2, W0, W2
	ADDC	W3, W1, W3
	ADD	W10, #5, W0
	ZE	[W0], W0
	CLR	W1
	ADD	W2, W0, W0
	ADDC	W3, W1, W1
;tiempo_gps.c,126 :: 		return horaRPi;
;tiempo_gps.c,128 :: 		}
L_end_RecuperarHoraRPI:
	ULNK
	RETURN
; end of _RecuperarHoraRPI

_AjustarTiempoSistema:
	LNK	#14

;tiempo_gps.c,133 :: 		void AjustarTiempoSistema(unsigned long longHora, unsigned long longFecha, unsigned char *tramaTiempoSistema){
	MOV	[W14-8], W0
	MOV	W0, [W14-8]
;tiempo_gps.c,142 :: 		hora = longHora / 3600;
	PUSH.D	W12
	PUSH.D	W10
	MOV	#3600, W2
	MOV	#0, W3
	MOV.D	W10, W0
	CLR	W4
	CALL	__Divide_32x32
	POP.D	W10
	MOV.B	W0, [W14+0]
;tiempo_gps.c,143 :: 		minuto = (longHora%3600) / 60;
	MOV	#3600, W2
	MOV	#0, W3
	MOV.D	W10, W0
	CLR	W4
	CALL	__Modulus_32x32
	MOV	W0, [W14+10]
	MOV	W1, [W14+12]
	MOV	#60, W2
	MOV	#0, W3
	CLR	W4
	CALL	__Divide_32x32
	MOV.B	W0, [W14+1]
;tiempo_gps.c,144 :: 		segundo = (longHora%3600) % 60;
	MOV	[W14+10], W0
	MOV	[W14+12], W1
	MOV	#60, W2
	MOV	#0, W3
	CLR	W4
	CALL	__Modulus_32x32
	POP.D	W12
	MOV.B	W0, [W14+2]
;tiempo_gps.c,146 :: 		dia = longFecha / 10000;
	PUSH.D	W12
	MOV	#10000, W2
	MOV	#0, W3
	MOV.D	W12, W0
	CLR	W4
	CALL	__Divide_32x32
	POP.D	W12
	MOV.B	W0, [W14+3]
;tiempo_gps.c,147 :: 		mes = (longFecha%10000) / 100;
	MOV	#10000, W2
	MOV	#0, W3
	MOV.D	W12, W0
	CLR	W4
	CALL	__Modulus_32x32
	MOV	W0, [W14+10]
	MOV	W1, [W14+12]
	MOV	#100, W2
	MOV	#0, W3
	CLR	W4
	CALL	__Divide_32x32
	MOV.B	W0, [W14+4]
;tiempo_gps.c,148 :: 		anio = (longFecha%10000) % 100;
	MOV	[W14+10], W0
	MOV	[W14+12], W1
	MOV	#100, W2
	MOV	#0, W3
	CLR	W4
	CALL	__Modulus_32x32
; anio start address is: 4 (W2)
	MOV.B	W0, W2
;tiempo_gps.c,150 :: 		tramaTiempoSistema[0] = dia;
	MOV	[W14-8], W1
	MOV.B	[W14+3], W0
	MOV.B	W0, [W1]
;tiempo_gps.c,151 :: 		tramaTiempoSistema[1] = mes;
	MOV	[W14-8], W0
	ADD	W0, #1, W1
	MOV.B	[W14+4], W0
	MOV.B	W0, [W1]
;tiempo_gps.c,152 :: 		tramaTiempoSistema[2] = anio;
	MOV	[W14-8], W0
	INC2	W0
	MOV.B	W2, [W0]
; anio end address is: 4 (W2)
;tiempo_gps.c,153 :: 		tramaTiempoSistema[3] = hora;
	MOV	[W14-8], W0
	ADD	W0, #3, W1
	MOV.B	[W14+0], W0
	MOV.B	W0, [W1]
;tiempo_gps.c,154 :: 		tramaTiempoSistema[4] = minuto;
	MOV	[W14-8], W0
	ADD	W0, #4, W1
	MOV.B	[W14+1], W0
	MOV.B	W0, [W1]
;tiempo_gps.c,155 :: 		tramaTiempoSistema[5] = segundo;
	MOV	[W14-8], W0
	ADD	W0, #5, W1
	MOV.B	[W14+2], W0
	MOV.B	W0, [W1]
;tiempo_gps.c,158 :: 		}
L_end_AjustarTiempoSistema:
	ULNK
	RETURN
; end of _AjustarTiempoSistema

_DS3234_write_byte:

;tiempo_rtc.c,51 :: 		void DS3234_write_byte(unsigned char address, unsigned char value){
;tiempo_rtc.c,52 :: 		CS_DS3234 = 0;
	PUSH	W10
	BCLR	LATA2_bit, BitPos(LATA2_bit+0)
;tiempo_rtc.c,53 :: 		SPI2_Write(address);
	ZE	W10, W10
	CALL	_SPI2_Write
;tiempo_rtc.c,54 :: 		SPI2_Write(value);
	ZE	W11, W10
	CALL	_SPI2_Write
;tiempo_rtc.c,55 :: 		CS_DS3234 = 1;
	BSET	LATA2_bit, BitPos(LATA2_bit+0)
;tiempo_rtc.c,56 :: 		}
L_end_DS3234_write_byte:
	POP	W10
	RETURN
; end of _DS3234_write_byte

_DS3234_read_byte:

;tiempo_rtc.c,59 :: 		unsigned char DS3234_read_byte(unsigned char address){
;tiempo_rtc.c,60 :: 		unsigned char value = 0x00;
	PUSH	W10
;tiempo_rtc.c,61 :: 		CS_DS3234 = 0;
	BCLR	LATA2_bit, BitPos(LATA2_bit+0)
;tiempo_rtc.c,62 :: 		SPI2_Write(address);
	ZE	W10, W10
	CALL	_SPI2_Write
;tiempo_rtc.c,63 :: 		value = SPI2_Read(0);
	CLR	W10
	CALL	_SPI2_Read
;tiempo_rtc.c,64 :: 		CS_DS3234 = 1;
	BSET	LATA2_bit, BitPos(LATA2_bit+0)
;tiempo_rtc.c,65 :: 		return value;
;tiempo_rtc.c,66 :: 		}
;tiempo_rtc.c,65 :: 		return value;
;tiempo_rtc.c,66 :: 		}
L_end_DS3234_read_byte:
	POP	W10
	RETURN
; end of _DS3234_read_byte

_DS3234_init:

;tiempo_rtc.c,69 :: 		void DS3234_init(){
;tiempo_rtc.c,70 :: 		SPI2_Init_Advanced(_SPI_MASTER, _SPI_8_BIT, _SPI_PRESCALE_SEC_1, _SPI_PRESCALE_PRI_64, _SPI_SS_DISABLE, _SPI_DATA_SAMPLE_MIDDLE, _SPI_CLK_IDLE_LOW, _SPI_ACTIVE_2_IDLE);
	PUSH	W10
	PUSH	W11
	PUSH	W12
	PUSH	W13
	CLR	W13
	MOV	#28, W12
	CLR	W11
	MOV	#32, W10
	CLR	W0
	PUSH	W0
	CLR	W0
	PUSH	W0
	CLR	W0
	PUSH	W0
	CLR	W0
	PUSH	W0
	CALL	_SPI2_Init_Advanced
	SUB	#8, W15
;tiempo_rtc.c,72 :: 		DS3234_write_byte(Control,0x60);                                           //0x60= Desactiva Oscilador, Alarmas, onda SQ @1hz, compensacion temperatura
	MOV.B	#96, W11
	MOV.B	#142, W10
	CALL	_DS3234_write_byte
;tiempo_rtc.c,73 :: 		DS3234_write_byte(ControlStatus,0x08);
	MOV.B	#8, W11
	MOV.B	#143, W10
	CALL	_DS3234_write_byte
;tiempo_rtc.c,74 :: 		SPI2_Init();
	CALL	_SPI2_Init
;tiempo_rtc.c,75 :: 		}
L_end_DS3234_init:
	POP	W13
	POP	W12
	POP	W11
	POP	W10
	RETURN
; end of _DS3234_init

_DS3234_setDate:
	LNK	#14

;tiempo_rtc.c,78 :: 		void DS3234_setDate(unsigned long longHora, unsigned long longFecha){
;tiempo_rtc.c,87 :: 		SPI2_Init_Advanced(_SPI_MASTER, _SPI_8_BIT, _SPI_PRESCALE_SEC_1, _SPI_PRESCALE_PRI_64, _SPI_SS_DISABLE, _SPI_DATA_SAMPLE_MIDDLE, _SPI_CLK_IDLE_LOW, _SPI_ACTIVE_2_IDLE);
	PUSH	W10
	PUSH	W11
	PUSH.D	W12
	PUSH.D	W10
	CLR	W13
	MOV	#28, W12
	CLR	W11
	MOV	#32, W10
	CLR	W0
	PUSH	W0
	CLR	W0
	PUSH	W0
	CLR	W0
	PUSH	W0
	CLR	W0
	PUSH	W0
	CALL	_SPI2_Init_Advanced
	SUB	#8, W15
	POP.D	W10
;tiempo_rtc.c,89 :: 		hora = (short)(longHora / 3600);
	PUSH.D	W10
	MOV	#3600, W2
	MOV	#0, W3
	MOV.D	W10, W0
	CLR	W4
	CALL	__Divide_32x32
	POP.D	W10
	MOV.B	W0, [W14+0]
;tiempo_rtc.c,90 :: 		minuto = (short)((longHora%3600) / 60);
	MOV	#3600, W2
	MOV	#0, W3
	MOV.D	W10, W0
	CLR	W4
	CALL	__Modulus_32x32
	MOV	W0, [W14+10]
	MOV	W1, [W14+12]
	MOV	#60, W2
	MOV	#0, W3
	CLR	W4
	CALL	__Divide_32x32
	MOV.B	W0, [W14+1]
;tiempo_rtc.c,91 :: 		segundo = (short)((longHora%3600) % 60);
	MOV	[W14+10], W0
	MOV	[W14+12], W1
	MOV	#60, W2
	MOV	#0, W3
	CLR	W4
	CALL	__Modulus_32x32
	POP.D	W12
	MOV.B	W0, [W14+2]
;tiempo_rtc.c,93 :: 		dia = (short)(longFecha / 10000);
	PUSH.D	W12
	MOV	#10000, W2
	MOV	#0, W3
	MOV.D	W12, W0
	CLR	W4
	CALL	__Divide_32x32
	POP.D	W12
	MOV.B	W0, [W14+3]
;tiempo_rtc.c,94 :: 		mes = (short)((longFecha%10000) / 100);
	MOV	#10000, W2
	MOV	#0, W3
	MOV.D	W12, W0
	CLR	W4
	CALL	__Modulus_32x32
	MOV	W0, [W14+10]
	MOV	W1, [W14+12]
	MOV	#100, W2
	MOV	#0, W3
	CLR	W4
	CALL	__Divide_32x32
	MOV.B	W0, [W14+4]
;tiempo_rtc.c,95 :: 		anio = (short)((longFecha%10000) % 100);
	MOV	[W14+10], W0
	MOV	[W14+12], W1
	MOV	#100, W2
	MOV	#0, W3
	CLR	W4
	CALL	__Modulus_32x32
; anio start address is: 8 (W4)
	MOV.B	W0, W4
;tiempo_rtc.c,97 :: 		segundo = Dec2Bcd(segundo);
	MOV.B	[W14+2], W10
	CALL	_Dec2Bcd
	MOV.B	W0, [W14+2]
;tiempo_rtc.c,98 :: 		minuto = Dec2Bcd(minuto);
	MOV.B	[W14+1], W10
	CALL	_Dec2Bcd
	MOV.B	W0, [W14+1]
;tiempo_rtc.c,99 :: 		hora = Dec2Bcd(hora);
	MOV.B	[W14+0], W10
	CALL	_Dec2Bcd
	MOV.B	W0, [W14+0]
;tiempo_rtc.c,100 :: 		dia = Dec2Bcd(dia);
	MOV.B	[W14+3], W10
	CALL	_Dec2Bcd
	MOV.B	W0, [W14+3]
;tiempo_rtc.c,101 :: 		mes = Dec2Bcd(mes);
	MOV.B	[W14+4], W10
	CALL	_Dec2Bcd
	MOV.B	W0, [W14+4]
;tiempo_rtc.c,102 :: 		anio = Dec2Bcd(anio);
	MOV.B	W4, W10
; anio end address is: 8 (W4)
	CALL	_Dec2Bcd
; anio start address is: 2 (W1)
	MOV.B	W0, W1
;tiempo_rtc.c,104 :: 		DS3234_write_byte(Segundos_Esc, segundo);
	MOV.B	[W14+2], W11
	MOV.B	#128, W10
	CALL	_DS3234_write_byte
;tiempo_rtc.c,105 :: 		DS3234_write_byte(Minutos_Esc, minuto);
	MOV.B	[W14+1], W11
	MOV.B	#129, W10
	CALL	_DS3234_write_byte
;tiempo_rtc.c,106 :: 		DS3234_write_byte(Horas_Esc, hora);
	MOV.B	[W14+0], W11
	MOV.B	#130, W10
	CALL	_DS3234_write_byte
;tiempo_rtc.c,107 :: 		DS3234_write_byte(DiaMes_Esc, dia);
	MOV.B	[W14+3], W11
	MOV.B	#132, W10
	CALL	_DS3234_write_byte
;tiempo_rtc.c,108 :: 		DS3234_write_byte(Mes_Esc, mes);
	MOV.B	[W14+4], W11
	MOV.B	#133, W10
	CALL	_DS3234_write_byte
;tiempo_rtc.c,109 :: 		DS3234_write_byte(Anio_Esc, anio);
	MOV.B	W1, W11
; anio end address is: 2 (W1)
	MOV.B	#134, W10
	CALL	_DS3234_write_byte
;tiempo_rtc.c,111 :: 		SPI2_Init();
	CALL	_SPI2_Init
;tiempo_rtc.c,114 :: 		}
;tiempo_rtc.c,113 :: 		return;
;tiempo_rtc.c,114 :: 		}
L_end_DS3234_setDate:
	POP	W11
	POP	W10
	ULNK
	RETURN
; end of _DS3234_setDate

_RecuperarHoraRTC:
	LNK	#4

;tiempo_rtc.c,117 :: 		unsigned long RecuperarHoraRTC(){
;tiempo_rtc.c,124 :: 		SPI2_Init_Advanced(_SPI_MASTER, _SPI_8_BIT, _SPI_PRESCALE_SEC_1, _SPI_PRESCALE_PRI_64, _SPI_SS_DISABLE, _SPI_DATA_SAMPLE_MIDDLE, _SPI_CLK_IDLE_LOW, _SPI_ACTIVE_2_IDLE);
	PUSH	W10
	PUSH	W11
	PUSH	W12
	PUSH	W13
	CLR	W13
	MOV	#28, W12
	CLR	W11
	MOV	#32, W10
	CLR	W0
	PUSH	W0
	CLR	W0
	PUSH	W0
	CLR	W0
	PUSH	W0
	CLR	W0
	PUSH	W0
	CALL	_SPI2_Init_Advanced
	SUB	#8, W15
;tiempo_rtc.c,126 :: 		valueRead = DS3234_read_byte(Segundos_Lec);
	CLR	W10
	CALL	_DS3234_read_byte
;tiempo_rtc.c,127 :: 		valueRead = Bcd2Dec(valueRead);
	MOV.B	W0, W10
	CALL	_Bcd2Dec
;tiempo_rtc.c,128 :: 		segundo = (long)valueRead;
; segundo start address is: 12 (W6)
	ZE	W0, W6
	CLR	W7
;tiempo_rtc.c,129 :: 		valueRead = DS3234_read_byte(Minutos_Lec);
	MOV.B	#1, W10
	CALL	_DS3234_read_byte
;tiempo_rtc.c,130 :: 		valueRead = Bcd2Dec(valueRead);
	MOV.B	W0, W10
	CALL	_Bcd2Dec
;tiempo_rtc.c,131 :: 		minuto = (long)valueRead;
; minuto start address is: 16 (W8)
	ZE	W0, W8
	CLR	W9
;tiempo_rtc.c,133 :: 		valueRead = DS3234_read_byte(Horas_Lec);
	MOV.B	#2, W10
	CALL	_DS3234_read_byte
;tiempo_rtc.c,134 :: 		valueRead = Bcd2Dec(valueRead);
	MOV.B	W0, W10
	CALL	_Bcd2Dec
;tiempo_rtc.c,135 :: 		hora = (long)valueRead;
	ZE	W0, W0
	CLR	W1
;tiempo_rtc.c,137 :: 		horaRTC = (hora*3600)+(minuto*60)+(segundo);                               //Calcula el segundo actual = hh*3600 + mm*60 + ss
	MOV	#3600, W2
	MOV	#0, W3
	CALL	__Multiply_32x32
	MOV	W0, [W14+0]
	MOV	W1, [W14+2]
	MOV.D	W8, W0
	MOV	#60, W2
	MOV	#0, W3
	CALL	__Multiply_32x32
; minuto end address is: 16 (W8)
	MOV	[W14+0], W2
	MOV	[W14+2], W3
	ADD	W2, W0, W0
	ADDC	W3, W1, W1
; horaRTC start address is: 4 (W2)
	ADD	W0, W6, W2
	ADDC	W1, W7, W3
; segundo end address is: 12 (W6)
;tiempo_rtc.c,140 :: 		SPI2_Init();
	CALL	_SPI2_Init
;tiempo_rtc.c,142 :: 		return horaRTC;
	MOV.D	W2, W0
; horaRTC end address is: 4 (W2)
;tiempo_rtc.c,143 :: 		}
;tiempo_rtc.c,142 :: 		return horaRTC;
;tiempo_rtc.c,143 :: 		}
L_end_RecuperarHoraRTC:
	POP	W13
	POP	W12
	POP	W11
	POP	W10
	ULNK
	RETURN
; end of _RecuperarHoraRTC

_RecuperarFechaRTC:
	LNK	#12

;tiempo_rtc.c,146 :: 		unsigned long RecuperarFechaRTC(){
;tiempo_rtc.c,153 :: 		SPI2_Init_Advanced(_SPI_MASTER, _SPI_8_BIT, _SPI_PRESCALE_SEC_1, _SPI_PRESCALE_PRI_64, _SPI_SS_DISABLE, _SPI_DATA_SAMPLE_MIDDLE, _SPI_CLK_IDLE_LOW, _SPI_ACTIVE_2_IDLE);
	PUSH	W10
	PUSH	W11
	PUSH	W12
	PUSH	W13
	CLR	W13
	MOV	#28, W12
	CLR	W11
	MOV	#32, W10
	CLR	W0
	PUSH	W0
	CLR	W0
	PUSH	W0
	CLR	W0
	PUSH	W0
	CLR	W0
	PUSH	W0
	CALL	_SPI2_Init_Advanced
	SUB	#8, W15
;tiempo_rtc.c,155 :: 		valueRead = DS3234_read_byte(DiaMes_Lec);
	MOV.B	#4, W10
	CALL	_DS3234_read_byte
;tiempo_rtc.c,156 :: 		valueRead = Bcd2Dec(valueRead);
	MOV.B	W0, W10
	CALL	_Bcd2Dec
;tiempo_rtc.c,157 :: 		dia = (long)valueRead;
; dia start address is: 16 (W8)
	ZE	W0, W8
	CLR	W9
;tiempo_rtc.c,159 :: 		valueRead = DS3234_read_byte(Mes_Lec);
	MOV.B	#5, W10
	CALL	_DS3234_read_byte
;tiempo_rtc.c,160 :: 		valueRead = Bcd2Dec(valueRead);
	MOV.B	W0, W10
	CALL	_Bcd2Dec
;tiempo_rtc.c,161 :: 		mes = (long)valueRead;
	ZE	W0, W0
	CLR	W1
	MOV	W0, [W14+0]
	MOV	W1, [W14+2]
;tiempo_rtc.c,162 :: 		valueRead = DS3234_read_byte(Anio_Lec);
	MOV.B	#6, W10
	CALL	_DS3234_read_byte
;tiempo_rtc.c,163 :: 		valueRead = Bcd2Dec(valueRead);
	MOV.B	W0, W10
	CALL	_Bcd2Dec
;tiempo_rtc.c,164 :: 		anio = (long)valueRead;
; anio start address is: 12 (W6)
	ZE	W0, W6
	CLR	W7
;tiempo_rtc.c,166 :: 		fechaRTC = (dia*10000)+(mes*100)+(anio);                                   //10000*dd + 100*mm + aa
	MOV.D	W8, W0
	MOV	#10000, W2
	MOV	#0, W3
	CALL	__Multiply_32x32
; dia end address is: 16 (W8)
	MOV	W0, [W14+8]
	MOV	W1, [W14+10]
	MOV	[W14+0], W0
	MOV	[W14+2], W1
	MOV	#100, W2
	MOV	#0, W3
	CALL	__Multiply_32x32
	MOV	[W14+8], W2
	MOV	[W14+10], W3
	ADD	W2, W0, W0
	ADDC	W3, W1, W1
; fechaRTC start address is: 4 (W2)
	ADD	W0, W6, W2
	ADDC	W1, W7, W3
; anio end address is: 12 (W6)
;tiempo_rtc.c,168 :: 		SPI2_Init();
	CALL	_SPI2_Init
;tiempo_rtc.c,170 :: 		return fechaRTC;
	MOV.D	W2, W0
; fechaRTC end address is: 4 (W2)
;tiempo_rtc.c,171 :: 		}
;tiempo_rtc.c,170 :: 		return fechaRTC;
;tiempo_rtc.c,171 :: 		}
L_end_RecuperarFechaRTC:
	POP	W13
	POP	W12
	POP	W11
	POP	W10
	ULNK
	RETURN
; end of _RecuperarFechaRTC

_main:
	MOV	#2048, W15
	MOV	#6142, W0
	MOV	WREG, 32
	MOV	#1, W0
	MOV	WREG, 50
	MOV	#4, W0
	IOR	68

;Acelerografo.c,74 :: 		void main() {
;Acelerografo.c,76 :: 		ConfiguracionPrincipal();
	PUSH	W10
	CALL	_ConfiguracionPrincipal
;Acelerografo.c,78 :: 		tasaMuestreo = 1;                                                          //1=250Hz, 2=125Hz, 4=62.5Hz, 8=31.25Hz
	MOV	#lo_addr(_tasaMuestreo), W1
	MOV.B	#1, W0
	MOV.B	W0, [W1]
;Acelerografo.c,79 :: 		ADXL355_init(tasaMuestreo);                                                //Inicializa el modulo ADXL con la tasa de muestreo requerida:
	MOV.B	#1, W10
	CALL	_ADXL355_init
;Acelerografo.c,80 :: 		numTMR1 = (tasaMuestreo*10)-1;                                             //Calcula el numero de veces que tienen que desbordarse el TMR1 para cada tasa de muestreo
	MOV	#lo_addr(_tasaMuestreo), W0
	SE	[W0], W1
	MOV	#10, W0
	MUL.UU	W1, W0, W2
	MOV	#lo_addr(_numTMR1), W0
	SUB.B	W2, #1, [W0]
;Acelerografo.c,82 :: 		banTI = 0;
	MOV	#lo_addr(_banTI), W1
	CLR	W0
	MOV.B	W0, [W1]
;Acelerografo.c,83 :: 		banLec = 0;
	MOV	#lo_addr(_banLec), W1
	CLR	W0
	MOV.B	W0, [W1]
;Acelerografo.c,84 :: 		banEsc = 0;
	MOV	#lo_addr(_banEsc), W1
	CLR	W0
	MOV.B	W0, [W1]
;Acelerografo.c,85 :: 		banCiclo = 0;
	MOV	#lo_addr(_banCiclo), W1
	CLR	W0
	MOV.B	W0, [W1]
;Acelerografo.c,86 :: 		banSetReloj = 0;
	MOV	#lo_addr(_banSetReloj), W1
	CLR	W0
	MOV.B	W0, [W1]
;Acelerografo.c,88 :: 		banSetGPS = 0;
	MOV	#lo_addr(_banSetGPS), W1
	CLR	W0
	MOV.B	W0, [W1]
;Acelerografo.c,89 :: 		banTIGPS = 0;
	MOV	#lo_addr(_banTIGPS), W1
	CLR	W0
	MOV.B	W0, [W1]
;Acelerografo.c,90 :: 		banTFGPS = 0;
	MOV	#lo_addr(_banTFGPS), W1
	CLR	W0
	MOV.B	W0, [W1]
;Acelerografo.c,91 :: 		banTCGPS = 0;
	MOV	#lo_addr(_banTCGPS), W1
	CLR	W0
	MOV.B	W0, [W1]
;Acelerografo.c,92 :: 		stsGPS = 0;
	MOV	#lo_addr(_stsGPS), W1
	CLR	W0
	MOV.B	W0, [W1]
;Acelerografo.c,93 :: 		fuenteReloj = 0;
	MOV	#lo_addr(_fuenteReloj), W1
	CLR	W0
	MOV.B	W0, [W1]
;Acelerografo.c,95 :: 		banMuestrear = 0;                                                          //Inicia el programa con esta bandera en bajo para permitir que la RPi envie la peticion de inicio de muestreo
	MOV	#lo_addr(_banMuestrear), W1
	CLR	W0
	MOV.B	W0, [W1]
;Acelerografo.c,96 :: 		banInicio = 0;                                                             //Bandera de inicio de muestreo
	MOV	#lo_addr(_banInicio), W1
	CLR	W0
	MOV.B	W0, [W1]
;Acelerografo.c,97 :: 		banLeer = 0;
	MOV	#lo_addr(_banLeer), W1
	CLR	W0
	MOV.B	W0, [W1]
;Acelerografo.c,98 :: 		banConf = 0;
	MOV	#lo_addr(_banConf), W1
	CLR	W0
	MOV.B	W0, [W1]
;Acelerografo.c,100 :: 		i = 0;
	CLR	W0
	MOV	W0, _i
;Acelerografo.c,101 :: 		x = 0;
	CLR	W0
	MOV	W0, _x
;Acelerografo.c,102 :: 		y = 0;
	CLR	W0
	MOV	W0, _y
;Acelerografo.c,103 :: 		i_gps = 0;
	CLR	W0
	MOV	W0, _i_gps
;Acelerografo.c,104 :: 		horaSistema = 0;
	CLR	W0
	CLR	W1
	MOV	W0, _horaSistema
	MOV	W1, _horaSistema+2
;Acelerografo.c,106 :: 		contMuestras = 0;
	MOV	#lo_addr(_contMuestras), W1
	CLR	W0
	MOV.B	W0, [W1]
;Acelerografo.c,107 :: 		contCiclos = 0;
	MOV	#lo_addr(_contCiclos), W1
	CLR	W0
	MOV.B	W0, [W1]
;Acelerografo.c,108 :: 		contFIFO = 0;
	CLR	W0
	MOV	W0, _contFIFO
;Acelerografo.c,109 :: 		numFIFO = 0;
	MOV	#lo_addr(_numFIFO), W1
	CLR	W0
	MOV.B	W0, [W1]
;Acelerografo.c,110 :: 		numSetsFIFO = 0;
	MOV	#lo_addr(_numSetsFIFO), W1
	CLR	W0
	MOV.B	W0, [W1]
;Acelerografo.c,111 :: 		contTimer1 = 0;
	MOV	#lo_addr(_contTimer1), W1
	CLR	W0
	MOV.B	W0, [W1]
;Acelerografo.c,113 :: 		byteGPS = 0;
	MOV	#lo_addr(_byteGPS), W1
	CLR	W0
	MOV.B	W0, [W1]
;Acelerografo.c,115 :: 		RP1 = 0;
	BCLR	LATA4_bit, BitPos(LATA4_bit+0)
;Acelerografo.c,116 :: 		RP2 = 0;
	BCLR	LATB4_bit, BitPos(LATB4_bit+0)
;Acelerografo.c,117 :: 		TEST = 1;
	BSET	LATB12_bit, BitPos(LATB12_bit+0)
;Acelerografo.c,119 :: 		SPI1BUF = 0x00;
	CLR	SPI1BUF
;Acelerografo.c,121 :: 		while(1){
L_main28:
;Acelerografo.c,123 :: 		}
	GOTO	L_main28
;Acelerografo.c,125 :: 		}
L_end_main:
	POP	W10
L__main_end_loop:
	BRA	L__main_end_loop
; end of _main

_ConfiguracionPrincipal:

;Acelerografo.c,134 :: 		void ConfiguracionPrincipal(){
;Acelerografo.c,137 :: 		CLKDIVbits.FRCDIV = 0;                                                     //FIN=FRC/1
	PUSH	W10
	PUSH	W11
	PUSH	W12
	PUSH	W13
	MOV	CLKDIVbits, W1
	MOV	#63743, W0
	AND	W1, W0, W0
	MOV	WREG, CLKDIVbits
;Acelerografo.c,138 :: 		CLKDIVbits.PLLPOST = 0;                                                    //N2=2
	MOV	#lo_addr(CLKDIVbits), W0
	MOV.B	[W0], W1
	MOV.B	#63, W0
	AND.B	W1, W0, W1
	MOV	#lo_addr(CLKDIVbits), W0
	MOV.B	W1, [W0]
;Acelerografo.c,139 :: 		CLKDIVbits.PLLPRE = 5;                                                     //N1=7
	MOV.B	#5, W0
	MOV.B	W0, W1
	MOV	#lo_addr(CLKDIVbits), W0
	XOR.B	W1, [W0], W1
	AND.B	W1, #31, W1
	MOV	#lo_addr(CLKDIVbits), W0
	XOR.B	W1, [W0], W1
	MOV	#lo_addr(CLKDIVbits), W0
	MOV.B	W1, [W0]
;Acelerografo.c,140 :: 		PLLFBDbits.PLLDIV = 150;                                                   //M=152
	MOV	#150, W0
	MOV	W0, W1
	MOV	#lo_addr(PLLFBDbits), W0
	XOR	W1, [W0], W1
	MOV	#511, W0
	AND	W1, W0, W1
	MOV	#lo_addr(PLLFBDbits), W0
	XOR	W1, [W0], W1
	MOV	W1, PLLFBDbits
;Acelerografo.c,143 :: 		ANSELA = 0;                                                                //Configura PORTA como digital     *
	CLR	ANSELA
;Acelerografo.c,144 :: 		ANSELB = 0;                                                                //Configura PORTB como digital     *
	CLR	ANSELB
;Acelerografo.c,145 :: 		TRISA2_bit = 0;                                                            //Configura el pin A2 como salida  *
	BCLR	TRISA2_bit, BitPos(TRISA2_bit+0)
;Acelerografo.c,146 :: 		TRISA3_bit = 0;                                                            //Configura el pin A3 como salida  *
	BCLR	TRISA3_bit, BitPos(TRISA3_bit+0)
;Acelerografo.c,147 :: 		TRISA4_bit = 0;                                                            //Configura el pin A4 como salida  *
	BCLR	TRISA4_bit, BitPos(TRISA4_bit+0)
;Acelerografo.c,148 :: 		TRISB4_bit = 0;                                                            //Configura el pin B4 como salida  *
	BCLR	TRISB4_bit, BitPos(TRISB4_bit+0)
;Acelerografo.c,149 :: 		TRISB12_bit = 0;                                                           //Configura el pin B12 como salida *
	BCLR	TRISB12_bit, BitPos(TRISB12_bit+0)
;Acelerografo.c,151 :: 		TRISB10_bit = 1;                                                           //Configura el pin B10 como entrada *
	BSET	TRISB10_bit, BitPos(TRISB10_bit+0)
;Acelerografo.c,152 :: 		TRISB11_bit = 1;                                                           //Configura el pin B11 como entrada *
	BSET	TRISB11_bit, BitPos(TRISB11_bit+0)
;Acelerografo.c,153 :: 		TRISB13_bit = 1;                                                           //Configura el pin B13 como entrada *
	BSET	TRISB13_bit, BitPos(TRISB13_bit+0)
;Acelerografo.c,154 :: 		TRISB14_bit = 1;
	BSET	TRISB14_bit, BitPos(TRISB14_bit+0)
;Acelerografo.c,155 :: 		TRISB15_bit = 1;                                                           //Configura el pin B15 como entrada *
	BSET	TRISB15_bit, BitPos(TRISB15_bit+0)
;Acelerografo.c,157 :: 		INTCON2.GIE = 1;                                                           //Habilita las interrupciones globales *
	BSET	INTCON2, #15
;Acelerografo.c,160 :: 		RPINR18bits.U1RXR = 0x22;                                                  //Configura el pin RB2/RPI34 como Rx1 *
	MOV.B	#34, W0
	MOV.B	W0, W1
	MOV	#lo_addr(RPINR18bits), W0
	XOR.B	W1, [W0], W1
	MOV.B	#127, W0
	AND.B	W1, W0, W1
	MOV	#lo_addr(RPINR18bits), W0
	XOR.B	W1, [W0], W1
	MOV	#lo_addr(RPINR18bits), W0
	MOV.B	W1, [W0]
;Acelerografo.c,161 :: 		RPOR0bits.RP35R = 0x01;                                                    //Configura el Tx1 en el pin RB3/RP35 *
	MOV	#256, W0
	MOV	W0, W1
	MOV	#lo_addr(RPOR0bits), W0
	XOR	W1, [W0], W1
	MOV	#16128, W0
	AND	W1, W0, W1
	MOV	#lo_addr(RPOR0bits), W0
	XOR	W1, [W0], W1
	MOV	W1, RPOR0bits
;Acelerografo.c,162 :: 		UART1_Init(115200);                                                        //Inicializa el UART1 con una velocidad de 115200 baudios
	MOV	#49664, W10
	MOV	#1, W11
	CALL	_UART1_Init
;Acelerografo.c,163 :: 		U1RXIE_bit = 0;                                                            //Desabilita la interrupcion por UART1 RX *
	BCLR	U1RXIE_bit, BitPos(U1RXIE_bit+0)
;Acelerografo.c,164 :: 		U1RXIF_bit = 0;                                                            //Limpia la bandera de interrupcion por UART1 RX *
	BCLR	U1RXIF_bit, BitPos(U1RXIF_bit+0)
;Acelerografo.c,165 :: 		IPC2bits.U1RXIP = 0x04;                                                    //Prioridad de la interrupcion UART1 RX
	MOV	#16384, W0
	MOV	W0, W1
	MOV	#lo_addr(IPC2bits), W0
	XOR	W1, [W0], W1
	MOV	#28672, W0
	AND	W1, W0, W1
	MOV	#lo_addr(IPC2bits), W0
	XOR	W1, [W0], W1
	MOV	W1, IPC2bits
;Acelerografo.c,166 :: 		U1STAbits.URXISEL = 0x00;
	MOV	#lo_addr(U1STAbits), W0
	MOV.B	[W0], W1
	MOV.B	#63, W0
	AND.B	W1, W0, W1
	MOV	#lo_addr(U1STAbits), W0
	MOV.B	W1, [W0]
;Acelerografo.c,169 :: 		SPI1STAT.SPIEN = 1;                                                        //Habilita el SPI1 *
	BSET	SPI1STAT, #15
;Acelerografo.c,170 :: 		SPI1_Init_Advanced(_SPI_SLAVE, _SPI_8_BIT, _SPI_PRESCALE_SEC_1, _SPI_PRESCALE_PRI_1, _SPI_SS_ENABLE, _SPI_DATA_SAMPLE_END, _SPI_CLK_IDLE_HIGH, _SPI_ACTIVE_2_IDLE);        //*
	MOV	#3, W13
	MOV	#28, W12
	CLR	W11
	CLR	W10
	CLR	W0
	PUSH	W0
	MOV	#64, W0
	PUSH	W0
	MOV	#512, W0
	PUSH	W0
	MOV	#128, W0
	PUSH	W0
	CALL	_SPI1_Init_Advanced
	SUB	#8, W15
;Acelerografo.c,171 :: 		SPI1IE_bit = 1;                                                            //Habilita la interrupcion por SPI1  *
	BSET	SPI1IE_bit, BitPos(SPI1IE_bit+0)
;Acelerografo.c,172 :: 		SPI1IF_bit = 0;                                                            //Limpia la bandera de interrupcion por SPI *
	BCLR	SPI1IF_bit, BitPos(SPI1IF_bit+0)
;Acelerografo.c,173 :: 		IPC2bits.SPI1IP = 0x03;                                                    //Prioridad de la interrupcion SPI1
	MOV	#768, W0
	MOV	W0, W1
	MOV	#lo_addr(IPC2bits), W0
	XOR	W1, [W0], W1
	MOV	#1792, W0
	AND	W1, W0, W1
	MOV	#lo_addr(IPC2bits), W0
	XOR	W1, [W0], W1
	MOV	W1, IPC2bits
;Acelerografo.c,176 :: 		RPINR22bits.SDI2R = 0x21;                                                  //Configura el pin RB1/RPI33 como SDI2 *
	MOV.B	#33, W0
	MOV.B	W0, W1
	MOV	#lo_addr(RPINR22bits), W0
	XOR.B	W1, [W0], W1
	MOV.B	#127, W0
	AND.B	W1, W0, W1
	MOV	#lo_addr(RPINR22bits), W0
	XOR.B	W1, [W0], W1
	MOV	#lo_addr(RPINR22bits), W0
	MOV.B	W1, [W0]
;Acelerografo.c,177 :: 		RPOR2bits.RP38R = 0x08;                                                    //Configura el SDO2 en el pin RB6/RP38 *
	MOV.B	#8, W0
	MOV.B	W0, W1
	MOV	#lo_addr(RPOR2bits), W0
	XOR.B	W1, [W0], W1
	MOV.B	#63, W0
	AND.B	W1, W0, W1
	MOV	#lo_addr(RPOR2bits), W0
	XOR.B	W1, [W0], W1
	MOV	#lo_addr(RPOR2bits), W0
	MOV.B	W1, [W0]
;Acelerografo.c,178 :: 		RPOR1bits.RP37R = 0x09;                                                    //Configura el SCK2 en el pin RB5/RP37 *
	MOV	#2304, W0
	MOV	W0, W1
	MOV	#lo_addr(RPOR1bits), W0
	XOR	W1, [W0], W1
	MOV	#16128, W0
	AND	W1, W0, W1
	MOV	#lo_addr(RPOR1bits), W0
	XOR	W1, [W0], W1
	MOV	W1, RPOR1bits
;Acelerografo.c,179 :: 		SPI2STAT.SPIEN = 1;                                                        //Habilita el SPI2 *
	BSET	SPI2STAT, #15
;Acelerografo.c,180 :: 		SPI2_Init();                                                               //Inicializa el modulo SPI2
	CALL	_SPI2_Init
;Acelerografo.c,181 :: 		CS_DS3234 = 1;                                                             //Pone en alto el CS del RTC
	BSET	LATA2_bit, BitPos(LATA2_bit+0)
;Acelerografo.c,182 :: 		CS_ADXL355 = 1;                                                            //Pone en alto el CS del acelerometro
	BSET	LATA3_bit, BitPos(LATA3_bit+0)
;Acelerografo.c,185 :: 		ADXL355_write_byte(POWER_CTL, DRDY_OFF|STANDBY);                           //Coloco el ADXL en modo STANDBY para pausar las conversiones y limpiar el FIFO
	MOV.B	#5, W11
	MOV.B	#45, W10
	CALL	_ADXL355_write_byte
;Acelerografo.c,189 :: 		RPINR0 = 0x2F00;                                                           //Asigna INT1 al RB15/RPI47 (SQW)
	MOV	#12032, W0
	MOV	WREG, RPINR0
;Acelerografo.c,190 :: 		INT1IE_bit = 0;                                                            //Habilita la interrupcion externa INT1
	BCLR	INT1IE_bit, BitPos(INT1IE_bit+0)
;Acelerografo.c,191 :: 		INT1IF_bit = 0;                                                            //Limpia la bandera de interrupcion externa INT1
	BCLR	INT1IF_bit, BitPos(INT1IF_bit+0)
;Acelerografo.c,192 :: 		IPC5bits.INT1IP = 0x01;                                                    //Prioridad en la interrupocion externa 1
	MOV.B	#1, W0
	MOV.B	W0, W1
	MOV	#lo_addr(IPC5bits), W0
	XOR.B	W1, [W0], W1
	AND.B	W1, #7, W1
	MOV	#lo_addr(IPC5bits), W0
	XOR.B	W1, [W0], W1
	MOV	#lo_addr(IPC5bits), W0
	MOV.B	W1, [W0]
;Acelerografo.c,195 :: 		T1CON = 0x0020;
	MOV	#32, W0
	MOV	WREG, T1CON
;Acelerografo.c,196 :: 		T1CON.TON = 0;                                                             //Apaga el Timer1
	BCLR	T1CON, #15
;Acelerografo.c,197 :: 		T1IE_bit = 1;                                                              //Habilita la interrupción de desbordamiento TMR1
	BSET	T1IE_bit, BitPos(T1IE_bit+0)
;Acelerografo.c,198 :: 		T1IF_bit = 0;                                                              //Limpia la bandera de interrupcion del TMR1
	BCLR	T1IF_bit, BitPos(T1IF_bit+0)
;Acelerografo.c,199 :: 		PR1 = 62500;                                                               //Car ga el preload para un tiempo de 100ms
	MOV	#62500, W0
	MOV	WREG, PR1
;Acelerografo.c,200 :: 		IPC0bits.T1IP = 0x02;                                                      //Prioridad de la interrupcion por desbordamiento del TMR1
	MOV	#8192, W0
	MOV	W0, W1
	MOV	#lo_addr(IPC0bits), W0
	XOR	W1, [W0], W1
	MOV	#28672, W0
	AND	W1, W0, W1
	MOV	#lo_addr(IPC0bits), W0
	XOR	W1, [W0], W1
	MOV	W1, IPC0bits
;Acelerografo.c,202 :: 		Delay_ms(200);                                                             //Espera hasta que se estabilicen los cambios
	MOV	#25, W8
	MOV	#27150, W7
L_ConfiguracionPrincipal30:
	DEC	W7
	BRA NZ	L_ConfiguracionPrincipal30
	DEC	W8
	BRA NZ	L_ConfiguracionPrincipal30
	NOP
;Acelerografo.c,204 :: 		}
L_end_ConfiguracionPrincipal:
	POP	W13
	POP	W12
	POP	W11
	POP	W10
	RETURN
; end of _ConfiguracionPrincipal

_Muestrear:

;Acelerografo.c,209 :: 		void Muestrear(){
;Acelerografo.c,211 :: 		if (banCiclo==0){
	PUSH	W10
	PUSH	W11
	PUSH	W12
	PUSH	W13
	MOV	#lo_addr(_banCiclo), W0
	MOV.B	[W0], W0
	CP.B	W0, #0
	BRA Z	L__Muestrear224
	GOTO	L_Muestrear32
L__Muestrear224:
;Acelerografo.c,213 :: 		ADXL355_write_byte(POWER_CTL, DRDY_OFF|MEASURING);                     //Coloca el ADXL en modo medicion
	MOV.B	#4, W11
	MOV.B	#45, W10
	CALL	_ADXL355_write_byte
;Acelerografo.c,214 :: 		T1CON.TON = 1;                                                         //Enciende el Timer1
	BSET	T1CON, #15
;Acelerografo.c,216 :: 		} else if (banCiclo==1) {
	GOTO	L_Muestrear33
L_Muestrear32:
	MOV	#lo_addr(_banCiclo), W0
	MOV.B	[W0], W0
	CP.B	W0, #1
	BRA Z	L__Muestrear225
	GOTO	L_Muestrear34
L__Muestrear225:
;Acelerografo.c,218 :: 		banCiclo = 2;                                                          //Limpia la bandera de ciclo completo
	MOV	#lo_addr(_banCiclo), W1
	MOV.B	#2, W0
	MOV.B	W0, [W1]
;Acelerografo.c,220 :: 		tramaCompleta[0] = contCiclos;                                         //LLena el primer elemento de la tramaCompleta con el contador de ciclos
	MOV	#lo_addr(_tramaCompleta), W1
	MOV	#lo_addr(_contCiclos), W0
	MOV.B	[W0], [W1]
;Acelerografo.c,221 :: 		numFIFO = ADXL355_read_byte(FIFO_ENTRIES);
	MOV.B	#5, W10
	CALL	_ADXL355_read_byte
	MOV	#lo_addr(_numFIFO), W1
	MOV.B	W0, [W1]
;Acelerografo.c,222 :: 		numSetsFIFO = (numFIFO)/3;                                             //Lee el numero de sets disponibles en el FIFO
	ZE	W0, W0
	MOV	#3, W2
	REPEAT	#17
	DIV.S	W0, W2
	MOV	W0, W1
	MOV	#lo_addr(_numSetsFIFO), W0
	MOV.B	W1, [W0]
;Acelerografo.c,225 :: 		for (x=0;x<numSetsFIFO;x++){
	CLR	W0
	MOV	W0, _x
L_Muestrear35:
	MOV	#lo_addr(_numSetsFIFO), W0
	ZE	[W0], W1
	MOV	#lo_addr(_x), W0
	CP	W1, [W0]
	BRA GTU	L__Muestrear226
	GOTO	L_Muestrear36
L__Muestrear226:
;Acelerografo.c,226 :: 		ADXL355_read_FIFO(datosLeidos);                                    //Lee una sola posicion del FIFO
	MOV	#lo_addr(_datosLeidos), W10
	CALL	_ADXL355_read_FIFO
;Acelerografo.c,227 :: 		for (y=0;y<9;y++){
	CLR	W0
	MOV	W0, _y
L_Muestrear38:
	MOV	_y, W0
	CP	W0, #9
	BRA LTU	L__Muestrear227
	GOTO	L_Muestrear39
L__Muestrear227:
;Acelerografo.c,228 :: 		datosFIFO[y+(x*9)] = datosLeidos[y];                           //LLena la trama datosFIFO
	MOV	_x, W1
	MOV	#9, W0
	MUL.UU	W1, W0, W2
	MOV	#lo_addr(_y), W0
	ADD	W2, [W0], W1
	MOV	#lo_addr(_datosFIFO), W0
	ADD	W0, W1, W2
	MOV	#lo_addr(_datosLeidos), W1
	MOV	#lo_addr(_y), W0
	ADD	W1, [W0], W0
	MOV.B	[W0], [W2]
;Acelerografo.c,227 :: 		for (y=0;y<9;y++){
	MOV	#1, W1
	MOV	#lo_addr(_y), W0
	ADD	W1, [W0], [W0]
;Acelerografo.c,229 :: 		}
	GOTO	L_Muestrear38
L_Muestrear39:
;Acelerografo.c,225 :: 		for (x=0;x<numSetsFIFO;x++){
	MOV	#1, W1
	MOV	#lo_addr(_x), W0
	ADD	W1, [W0], [W0]
;Acelerografo.c,230 :: 		}
	GOTO	L_Muestrear35
L_Muestrear36:
;Acelerografo.c,233 :: 		for (x=0;x<(numSetsFIFO*9);x++){
	CLR	W0
	MOV	W0, _x
L_Muestrear41:
	MOV	#lo_addr(_numSetsFIFO), W0
	ZE	[W0], W1
	MOV	#9, W0
	MUL.SS	W1, W0, W2
	MOV	#lo_addr(_x), W0
	CP	W2, [W0]
	BRA GTU	L__Muestrear228
	GOTO	L_Muestrear42
L__Muestrear228:
;Acelerografo.c,234 :: 		if ((x==0)||(x%9==0)){
	MOV	_x, W0
	CP	W0, #0
	BRA NZ	L__Muestrear229
	GOTO	L__Muestrear142
L__Muestrear229:
	MOV	_x, W0
	MOV	#9, W2
	REPEAT	#17
	DIV.U	W0, W2
	MOV	W1, W0
	CP	W0, #0
	BRA NZ	L__Muestrear230
	GOTO	L__Muestrear141
L__Muestrear230:
	GOTO	L_Muestrear46
L__Muestrear142:
L__Muestrear141:
;Acelerografo.c,235 :: 		tramaCompleta[contFIFO+contMuestras+x] = contMuestras;          //Funciona bien
	MOV	#lo_addr(_contMuestras), W0
	ZE	[W0], W1
	MOV	#lo_addr(_contFIFO), W0
	ADD	W1, [W0], W1
	MOV	#lo_addr(_x), W0
	ADD	W1, [W0], W1
	MOV	#lo_addr(_tramaCompleta), W0
	ADD	W0, W1, W1
	MOV	#lo_addr(_contMuestras), W0
	MOV.B	[W0], [W1]
;Acelerografo.c,236 :: 		tramaCompleta[contFIFO+contMuestras+x+1] = datosFIFO[x];
	MOV	#lo_addr(_contMuestras), W0
	ZE	[W0], W1
	MOV	#lo_addr(_contFIFO), W0
	ADD	W1, [W0], W1
	MOV	#lo_addr(_x), W0
	ADD	W1, [W0], W0
	ADD	W0, #1, W1
	MOV	#lo_addr(_tramaCompleta), W0
	ADD	W0, W1, W2
	MOV	#lo_addr(_datosFIFO), W1
	MOV	#lo_addr(_x), W0
	ADD	W1, [W0], W0
	MOV.B	[W0], [W2]
;Acelerografo.c,237 :: 		contMuestras++;
	MOV.B	#1, W1
	MOV	#lo_addr(_contMuestras), W0
	ADD.B	W1, [W0], [W0]
;Acelerografo.c,238 :: 		} else {
	GOTO	L_Muestrear47
L_Muestrear46:
;Acelerografo.c,239 :: 		tramaCompleta[contFIFO+contMuestras+x] = datosFIFO[x];
	MOV	#lo_addr(_contMuestras), W0
	ZE	[W0], W1
	MOV	#lo_addr(_contFIFO), W0
	ADD	W1, [W0], W1
	MOV	#lo_addr(_x), W0
	ADD	W1, [W0], W1
	MOV	#lo_addr(_tramaCompleta), W0
	ADD	W0, W1, W2
	MOV	#lo_addr(_datosFIFO), W1
	MOV	#lo_addr(_x), W0
	ADD	W1, [W0], W0
	MOV.B	[W0], [W2]
;Acelerografo.c,240 :: 		}
L_Muestrear47:
;Acelerografo.c,233 :: 		for (x=0;x<(numSetsFIFO*9);x++){
	MOV	#1, W1
	MOV	#lo_addr(_x), W0
	ADD	W1, [W0], [W0]
;Acelerografo.c,241 :: 		}
	GOTO	L_Muestrear41
L_Muestrear42:
;Acelerografo.c,244 :: 		AjustarTiempoSistema(horaSistema, fechaSistema, tiempo);
	MOV	_fechaSistema, W12
	MOV	_fechaSistema+2, W13
	MOV	_horaSistema, W10
	MOV	_horaSistema+2, W11
	MOV	#lo_addr(_tiempo), W0
	PUSH	W0
	CALL	_AjustarTiempoSistema
	SUB	#2, W15
;Acelerografo.c,245 :: 		for (x=0;x<6;x++){
	CLR	W0
	MOV	W0, _x
L_Muestrear48:
	MOV	_x, W0
	CP	W0, #6
	BRA LTU	L__Muestrear231
	GOTO	L_Muestrear49
L__Muestrear231:
;Acelerografo.c,246 :: 		tramaCompleta[2500+x] = tiempo[x];
	MOV	#2500, W1
	MOV	#lo_addr(_x), W0
	ADD	W1, [W0], W1
	MOV	#lo_addr(_tramaCompleta), W0
	ADD	W0, W1, W2
	MOV	#lo_addr(_tiempo), W1
	MOV	#lo_addr(_x), W0
	ADD	W1, [W0], W0
	MOV.B	[W0], [W2]
;Acelerografo.c,245 :: 		for (x=0;x<6;x++){
	MOV	#1, W1
	MOV	#lo_addr(_x), W0
	ADD	W1, [W0], [W0]
;Acelerografo.c,247 :: 		}
	GOTO	L_Muestrear48
L_Muestrear49:
;Acelerografo.c,249 :: 		contMuestras = 0;                                                      //Limpia el contador de muestras
	MOV	#lo_addr(_contMuestras), W1
	CLR	W0
	MOV.B	W0, [W1]
;Acelerografo.c,250 :: 		contFIFO = 0;                                                          //Limpia el contador de FIFOs
	CLR	W0
	MOV	W0, _contFIFO
;Acelerografo.c,251 :: 		T1CON.TON = 1;                                                         //Enciende el Timer1
	BSET	T1CON, #15
;Acelerografo.c,253 :: 		banLec = 1;                                                            //Activa la bandera de lectura para enviar la trama
	MOV	#lo_addr(_banLec), W1
	MOV.B	#1, W0
	MOV.B	W0, [W1]
;Acelerografo.c,254 :: 		RP1 = 1;                                                               //Genera el pulso P1 para producir la interrupcion en la RPi
	BSET	LATA4_bit, BitPos(LATA4_bit+0)
;Acelerografo.c,255 :: 		Delay_us(20);
	MOV	#160, W7
L_Muestrear51:
	DEC	W7
	BRA NZ	L_Muestrear51
	NOP
	NOP
;Acelerografo.c,256 :: 		RP1 = 0;
	BCLR	LATA4_bit, BitPos(LATA4_bit+0)
;Acelerografo.c,260 :: 		}
L_Muestrear34:
L_Muestrear33:
;Acelerografo.c,262 :: 		contCiclos++;                                                              //Incrementa el contador de ciclos
	MOV.B	#1, W1
	MOV	#lo_addr(_contCiclos), W0
	ADD.B	W1, [W0], [W0]
;Acelerografo.c,264 :: 		}
L_end_Muestrear:
	POP	W13
	POP	W12
	POP	W11
	POP	W10
	RETURN
; end of _Muestrear

_InterrupcionP2:

;Acelerografo.c,269 :: 		void InterrupcionP2(){
;Acelerografo.c,271 :: 		if (INT1IE_bit==0){
	BTSC	INT1IE_bit, BitPos(INT1IE_bit+0)
	GOTO	L_InterrupcionP253
;Acelerografo.c,272 :: 		INT1IE_bit = 1;
	BSET	INT1IE_bit, BitPos(INT1IE_bit+0)
;Acelerografo.c,273 :: 		}
L_InterrupcionP253:
;Acelerografo.c,275 :: 		RP2 = 1;
	BSET	LATB4_bit, BitPos(LATB4_bit+0)
;Acelerografo.c,276 :: 		Delay_us(20);
	MOV	#160, W7
L_InterrupcionP254:
	DEC	W7
	BRA NZ	L_InterrupcionP254
	NOP
	NOP
;Acelerografo.c,277 :: 		RP2 = 0;
	BCLR	LATB4_bit, BitPos(LATB4_bit+0)
;Acelerografo.c,278 :: 		}
L_end_InterrupcionP2:
	RETURN
; end of _InterrupcionP2

_spi_1:
	PUSH	DSWPAG
	PUSH	50
	PUSH	RCOUNT
	PUSH	W0
	MOV	#2, W0
	REPEAT	#12
	PUSH	[W0++]

;Acelerografo.c,287 :: 		void spi_1() org  IVT_ADDR_SPI1INTERRUPT {
;Acelerografo.c,289 :: 		SPI1IF_bit = 0;                                                            //Limpia la bandera de interrupcion por SPI
	PUSH	W10
	PUSH	W11
	PUSH	W12
	PUSH	W13
	BCLR	SPI1IF_bit, BitPos(SPI1IF_bit+0)
;Acelerografo.c,290 :: 		buffer = SPI1BUF;                                                          //Guarda el contenido del bufeer (lectura)
	MOV	#lo_addr(_buffer), W1
	MOV.B	SPI1BUF, WREG
	MOV.B	W0, [W1]
;Acelerografo.c,294 :: 		if ((banMuestrear==0)&&(buffer==0xA1)){
	MOV	#lo_addr(_banMuestrear), W0
	MOV.B	[W0], W0
	CP.B	W0, #0
	BRA Z	L__spi_1234
	GOTO	L__spi_1157
L__spi_1234:
	MOV	#lo_addr(_buffer), W0
	MOV.B	[W0], W1
	MOV.B	#161, W0
	CP.B	W1, W0
	BRA Z	L__spi_1235
	GOTO	L__spi_1156
L__spi_1235:
L__spi_1155:
;Acelerografo.c,295 :: 		banMuestrear = 1;                                                       //Cambia el estado de la bandera para que no inicie el muestreo mas de una vez de manera consecutiva
	MOV	#lo_addr(_banMuestrear), W1
	MOV.B	#1, W0
	MOV.B	W0, [W1]
;Acelerografo.c,296 :: 		banCiclo = 0;
	MOV	#lo_addr(_banCiclo), W1
	CLR	W0
	MOV.B	W0, [W1]
;Acelerografo.c,297 :: 		contMuestras = 0;
	MOV	#lo_addr(_contMuestras), W1
	CLR	W0
	MOV.B	W0, [W1]
;Acelerografo.c,298 :: 		contCiclos = 0;
	MOV	#lo_addr(_contCiclos), W1
	CLR	W0
	MOV.B	W0, [W1]
;Acelerografo.c,299 :: 		contFIFO = 0;
	CLR	W0
	MOV	W0, _contFIFO
;Acelerografo.c,300 :: 		numFIFO = 0;
	MOV	#lo_addr(_numFIFO), W1
	CLR	W0
	MOV.B	W0, [W1]
;Acelerografo.c,301 :: 		numSetsFIFO = 0;
	MOV	#lo_addr(_numSetsFIFO), W1
	CLR	W0
	MOV.B	W0, [W1]
;Acelerografo.c,302 :: 		contTimer1 = 0;
	MOV	#lo_addr(_contTimer1), W1
	CLR	W0
	MOV.B	W0, [W1]
;Acelerografo.c,303 :: 		banInicio = 1;                                                          //Bandera que permite el inicio del muestreo dentro de la interrupcion INT1
	MOV	#lo_addr(_banInicio), W1
	MOV.B	#1, W0
	MOV.B	W0, [W1]
;Acelerografo.c,304 :: 		if (INT1IE_bit==0){
	BTSC	INT1IE_bit, BitPos(INT1IE_bit+0)
	GOTO	L_spi_159
;Acelerografo.c,305 :: 		INT1IE_bit = 1;
	BSET	INT1IE_bit, BitPos(INT1IE_bit+0)
;Acelerografo.c,306 :: 		}
L_spi_159:
;Acelerografo.c,294 :: 		if ((banMuestrear==0)&&(buffer==0xA1)){
L__spi_1157:
L__spi_1156:
;Acelerografo.c,310 :: 		if ((banMuestrear==1)&&(buffer==0xA2)){
	MOV	#lo_addr(_banMuestrear), W0
	MOV.B	[W0], W0
	CP.B	W0, #1
	BRA Z	L__spi_1236
	GOTO	L__spi_1159
L__spi_1236:
	MOV	#lo_addr(_buffer), W0
	MOV.B	[W0], W1
	MOV.B	#162, W0
	CP.B	W1, W0
	BRA Z	L__spi_1237
	GOTO	L__spi_1158
L__spi_1237:
L__spi_1154:
;Acelerografo.c,311 :: 		banInicio = 0;                                                          //Bandera que permite el inicio del muestreo dentro de la interrupcion INT1
	MOV	#lo_addr(_banInicio), W1
	CLR	W0
	MOV.B	W0, [W1]
;Acelerografo.c,312 :: 		banMuestrear = 0;                                                       //Cambia el estado de la bandera para permitir que inicie el muestreo de nuevo en el futuro
	MOV	#lo_addr(_banMuestrear), W1
	CLR	W0
	MOV.B	W0, [W1]
;Acelerografo.c,314 :: 		banTI = 0;
	MOV	#lo_addr(_banTI), W1
	CLR	W0
	MOV.B	W0, [W1]
;Acelerografo.c,315 :: 		banLec = 0;
	MOV	#lo_addr(_banLec), W1
	CLR	W0
	MOV.B	W0, [W1]
;Acelerografo.c,316 :: 		banEsc = 0;
	MOV	#lo_addr(_banEsc), W1
	CLR	W0
	MOV.B	W0, [W1]
;Acelerografo.c,317 :: 		banSetReloj = 0;
	MOV	#lo_addr(_banSetReloj), W1
	CLR	W0
	MOV.B	W0, [W1]
;Acelerografo.c,318 :: 		banSetGPS = 0;
	MOV	#lo_addr(_banSetGPS), W1
	CLR	W0
	MOV.B	W0, [W1]
;Acelerografo.c,319 :: 		banTIGPS = 0;
	MOV	#lo_addr(_banTIGPS), W1
	CLR	W0
	MOV.B	W0, [W1]
;Acelerografo.c,320 :: 		banTFGPS = 0;
	MOV	#lo_addr(_banTFGPS), W1
	CLR	W0
	MOV.B	W0, [W1]
;Acelerografo.c,321 :: 		banTCGPS = 0;
	MOV	#lo_addr(_banTCGPS), W1
	CLR	W0
	MOV.B	W0, [W1]
;Acelerografo.c,322 :: 		banLeer = 0;
	MOV	#lo_addr(_banLeer), W1
	CLR	W0
	MOV.B	W0, [W1]
;Acelerografo.c,323 :: 		banConf = 0;
	MOV	#lo_addr(_banConf), W1
	CLR	W0
	MOV.B	W0, [W1]
;Acelerografo.c,324 :: 		i = 0;
	CLR	W0
	MOV	W0, _i
;Acelerografo.c,325 :: 		x = 0;
	CLR	W0
	MOV	W0, _x
;Acelerografo.c,326 :: 		y = 0;
	CLR	W0
	MOV	W0, _y
;Acelerografo.c,327 :: 		i_gps = 0;
	CLR	W0
	MOV	W0, _i_gps
;Acelerografo.c,328 :: 		contTimer1 = 0;
	MOV	#lo_addr(_contTimer1), W1
	CLR	W0
	MOV.B	W0, [W1]
;Acelerografo.c,329 :: 		byteGPS = 0;
	MOV	#lo_addr(_byteGPS), W1
	CLR	W0
	MOV.B	W0, [W1]
;Acelerografo.c,331 :: 		ADXL355_write_byte(POWER_CTL, DRDY_OFF|STANDBY);                        //Coloco el ADXL en modo STANDBY para pausar las conversiones y limpiar el FIFO
	MOV.B	#5, W11
	MOV.B	#45, W10
	CALL	_ADXL355_write_byte
;Acelerografo.c,333 :: 		if (INT1IE_bit==1){
	BTSS	INT1IE_bit, BitPos(INT1IE_bit+0)
	GOTO	L_spi_163
;Acelerografo.c,334 :: 		INT1IE_bit = 0;
	BCLR	INT1IE_bit, BitPos(INT1IE_bit+0)
;Acelerografo.c,335 :: 		}
L_spi_163:
;Acelerografo.c,337 :: 		if (T1CON.TON==1){
	BTSS	T1CON, #15
	GOTO	L_spi_164
;Acelerografo.c,338 :: 		T1CON.TON = 0;
	BCLR	T1CON, #15
;Acelerografo.c,339 :: 		}
L_spi_164:
;Acelerografo.c,310 :: 		if ((banMuestrear==1)&&(buffer==0xA2)){
L__spi_1159:
L__spi_1158:
;Acelerografo.c,343 :: 		if ((banLec==1)&&(buffer==0xA3)){                                          //Verifica si la bandera de inicio de trama esta activa
	MOV	#lo_addr(_banLec), W0
	MOV.B	[W0], W0
	CP.B	W0, #1
	BRA Z	L__spi_1238
	GOTO	L__spi_1161
L__spi_1238:
	MOV	#lo_addr(_buffer), W0
	MOV.B	[W0], W1
	MOV.B	#163, W0
	CP.B	W1, W0
	BRA Z	L__spi_1239
	GOTO	L__spi_1160
L__spi_1239:
L__spi_1153:
;Acelerografo.c,344 :: 		banLec = 2;                                                             //Activa la bandera de lectura
	MOV	#lo_addr(_banLec), W1
	MOV.B	#2, W0
	MOV.B	W0, [W1]
;Acelerografo.c,345 :: 		i = 0;
	CLR	W0
	MOV	W0, _i
;Acelerografo.c,346 :: 		SPI1BUF = tramaCompleta[i];
	MOV	#lo_addr(_tramaCompleta), W1
	MOV	#lo_addr(_i), W0
	ADD	W1, [W0], W0
	MOV.B	[W0], W0
	ZE	W0, W0
	MOV	WREG, SPI1BUF
;Acelerografo.c,343 :: 		if ((banLec==1)&&(buffer==0xA3)){                                          //Verifica si la bandera de inicio de trama esta activa
L__spi_1161:
L__spi_1160:
;Acelerografo.c,348 :: 		if ((banLec==2)&&(buffer!=0xF3)){
	MOV	#lo_addr(_banLec), W0
	MOV.B	[W0], W0
	CP.B	W0, #2
	BRA Z	L__spi_1240
	GOTO	L__spi_1163
L__spi_1240:
	MOV	#lo_addr(_buffer), W0
	MOV.B	[W0], W1
	MOV.B	#243, W0
	CP.B	W1, W0
	BRA NZ	L__spi_1241
	GOTO	L__spi_1162
L__spi_1241:
L__spi_1152:
;Acelerografo.c,349 :: 		SPI1BUF = tramaCompleta[i];
	MOV	#lo_addr(_tramaCompleta), W1
	MOV	#lo_addr(_i), W0
	ADD	W1, [W0], W0
	MOV.B	[W0], W0
	ZE	W0, W0
	MOV	WREG, SPI1BUF
;Acelerografo.c,350 :: 		i++;
	MOV	#1, W1
	MOV	#lo_addr(_i), W0
	ADD	W1, [W0], [W0]
;Acelerografo.c,348 :: 		if ((banLec==2)&&(buffer!=0xF3)){
L__spi_1163:
L__spi_1162:
;Acelerografo.c,352 :: 		if ((banLec==2)&&(buffer==0xF3)){                                          //Si detecta el delimitador de final de trama:
	MOV	#lo_addr(_banLec), W0
	MOV.B	[W0], W0
	CP.B	W0, #2
	BRA Z	L__spi_1242
	GOTO	L__spi_1165
L__spi_1242:
	MOV	#lo_addr(_buffer), W0
	MOV.B	[W0], W1
	MOV.B	#243, W0
	CP.B	W1, W0
	BRA Z	L__spi_1243
	GOTO	L__spi_1164
L__spi_1243:
L__spi_1151:
;Acelerografo.c,353 :: 		banLec = 0;                                                             //Limpia la bandera de lectura                        ****AQUI Me QUEDE
	MOV	#lo_addr(_banLec), W1
	CLR	W0
	MOV.B	W0, [W1]
;Acelerografo.c,354 :: 		SPI1BUF = 0xFF;
	MOV	#255, W0
	MOV	WREG, SPI1BUF
;Acelerografo.c,352 :: 		if ((banLec==2)&&(buffer==0xF3)){                                          //Si detecta el delimitador de final de trama:
L__spi_1165:
L__spi_1164:
;Acelerografo.c,360 :: 		if ((banSetReloj==0)&&(buffer==0xA4)){
	MOV	#lo_addr(_banSetReloj), W0
	MOV.B	[W0], W0
	CP.B	W0, #0
	BRA Z	L__spi_1244
	GOTO	L__spi_1167
L__spi_1244:
	MOV	#lo_addr(_buffer), W0
	MOV.B	[W0], W1
	MOV.B	#164, W0
	CP.B	W1, W0
	BRA Z	L__spi_1245
	GOTO	L__spi_1166
L__spi_1245:
L__spi_1150:
;Acelerografo.c,361 :: 		banEsc = 1;
	MOV	#lo_addr(_banEsc), W1
	MOV.B	#1, W0
	MOV.B	W0, [W1]
;Acelerografo.c,362 :: 		j = 0;
	CLR	W0
	MOV	W0, _j
;Acelerografo.c,360 :: 		if ((banSetReloj==0)&&(buffer==0xA4)){
L__spi_1167:
L__spi_1166:
;Acelerografo.c,364 :: 		if ((banEsc==1)&&(buffer!=0xA4)&&(buffer!=0xF4)){
	MOV	#lo_addr(_banEsc), W0
	MOV.B	[W0], W0
	CP.B	W0, #1
	BRA Z	L__spi_1246
	GOTO	L__spi_1170
L__spi_1246:
	MOV	#lo_addr(_buffer), W0
	MOV.B	[W0], W1
	MOV.B	#164, W0
	CP.B	W1, W0
	BRA NZ	L__spi_1247
	GOTO	L__spi_1169
L__spi_1247:
	MOV	#lo_addr(_buffer), W0
	MOV.B	[W0], W1
	MOV.B	#244, W0
	CP.B	W1, W0
	BRA NZ	L__spi_1248
	GOTO	L__spi_1168
L__spi_1248:
L__spi_1149:
;Acelerografo.c,365 :: 		tiempoRPI[j] = buffer;
	MOV	#lo_addr(_tiempoRPI), W1
	MOV	#lo_addr(_j), W0
	ADD	W1, [W0], W1
	MOV	#lo_addr(_buffer), W0
	MOV.B	[W0], [W1]
;Acelerografo.c,366 :: 		j++;
	MOV	#1, W1
	MOV	#lo_addr(_j), W0
	ADD	W1, [W0], [W0]
;Acelerografo.c,364 :: 		if ((banEsc==1)&&(buffer!=0xA4)&&(buffer!=0xF4)){
L__spi_1170:
L__spi_1169:
L__spi_1168:
;Acelerografo.c,368 :: 		if ((banEsc==1)&&(buffer==0xF4)){
	MOV	#lo_addr(_banEsc), W0
	MOV.B	[W0], W0
	CP.B	W0, #1
	BRA Z	L__spi_1249
	GOTO	L__spi_1172
L__spi_1249:
	MOV	#lo_addr(_buffer), W0
	MOV.B	[W0], W1
	MOV.B	#244, W0
	CP.B	W1, W0
	BRA Z	L__spi_1250
	GOTO	L__spi_1171
L__spi_1250:
L__spi_1148:
;Acelerografo.c,369 :: 		horaSistema = RecuperarHoraRPI(tiempoRPI);                              //Recupera la hora de la RPi
	MOV	#lo_addr(_tiempoRPI), W10
	CALL	_RecuperarHoraRPI
	MOV	W0, _horaSistema
	MOV	W1, _horaSistema+2
;Acelerografo.c,370 :: 		fechaSistema = RecuperarFechaRPI(tiempoRPI);                            //Recupera la fecha de la RPi
	MOV	#lo_addr(_tiempoRPI), W10
	CALL	_RecuperarFechaRPI
	MOV	W0, _fechaSistema
	MOV	W1, _fechaSistema+2
;Acelerografo.c,371 :: 		DS3234_init();                                                          //inicializa el RTC
	CALL	_DS3234_init
;Acelerografo.c,372 :: 		DS3234_setDate(horaSistema, fechaSistema);                              //Configura la hora en el RTC con la hora recuperada de la RPi
	MOV	_fechaSistema, W12
	MOV	_fechaSistema+2, W13
	MOV	_horaSistema, W10
	MOV	_horaSistema+2, W11
	CALL	_DS3234_setDate
;Acelerografo.c,373 :: 		horaSistema = RecuperarHoraRTC();                                       //Recupera la hora del RTC
	CALL	_RecuperarHoraRTC
	MOV	W0, _horaSistema
	MOV	W1, _horaSistema+2
;Acelerografo.c,374 :: 		fechaSistema = RecuperarFechaRTC();                                     //Recupera la fecha del RTC
	CALL	_RecuperarFechaRTC
	MOV	W0, _fechaSistema
	MOV	W1, _fechaSistema+2
;Acelerografo.c,375 :: 		AjustarTiempoSistema(horaSistema, fechaSistema, tiempo);                //Actualiza los datos de la trama tiempo con la hora y fecha recuperadas
	MOV.D	W0, W12
	MOV	_horaSistema, W10
	MOV	_horaSistema+2, W11
	MOV	#lo_addr(_tiempo), W0
	PUSH	W0
	CALL	_AjustarTiempoSistema
	SUB	#2, W15
;Acelerografo.c,376 :: 		banEsc = 0;
	MOV	#lo_addr(_banEsc), W1
	CLR	W0
	MOV.B	W0, [W1]
;Acelerografo.c,377 :: 		banSetReloj = 1;
	MOV	#lo_addr(_banSetReloj), W1
	MOV.B	#1, W0
	MOV.B	W0, [W1]
;Acelerografo.c,378 :: 		InterrupcionP2();
	CALL	_InterrupcionP2
;Acelerografo.c,368 :: 		if ((banEsc==1)&&(buffer==0xF4)){
L__spi_1172:
L__spi_1171:
;Acelerografo.c,382 :: 		if ((banSetReloj==1)&&(buffer==0xA5)){
	MOV	#lo_addr(_banSetReloj), W0
	MOV.B	[W0], W0
	CP.B	W0, #1
	BRA Z	L__spi_1251
	GOTO	L__spi_1174
L__spi_1251:
	MOV	#lo_addr(_buffer), W0
	MOV.B	[W0], W1
	MOV.B	#165, W0
	CP.B	W1, W0
	BRA Z	L__spi_1252
	GOTO	L__spi_1173
L__spi_1252:
L__spi_1147:
;Acelerografo.c,383 :: 		banSetReloj = 2;
	MOV	#lo_addr(_banSetReloj), W1
	MOV.B	#2, W0
	MOV.B	W0, [W1]
;Acelerografo.c,384 :: 		j = 0;
	CLR	W0
	MOV	W0, _j
;Acelerografo.c,385 :: 		SPI1BUF = fuenteReloj;                                                  //Envia el indicador de fuente de reloj (0:RTC, 1:GPS)
	MOV	#lo_addr(_fuenteReloj), W0
	ZE	[W0], W0
	MOV	WREG, SPI1BUF
;Acelerografo.c,382 :: 		if ((banSetReloj==1)&&(buffer==0xA5)){
L__spi_1174:
L__spi_1173:
;Acelerografo.c,387 :: 		if ((banSetReloj==2)&&(buffer!=0xA5)&&(buffer!=0xF5)){
	MOV	#lo_addr(_banSetReloj), W0
	MOV.B	[W0], W0
	CP.B	W0, #2
	BRA Z	L__spi_1253
	GOTO	L__spi_1177
L__spi_1253:
	MOV	#lo_addr(_buffer), W0
	MOV.B	[W0], W1
	MOV.B	#165, W0
	CP.B	W1, W0
	BRA NZ	L__spi_1254
	GOTO	L__spi_1176
L__spi_1254:
	MOV	#lo_addr(_buffer), W0
	MOV.B	[W0], W1
	MOV.B	#245, W0
	CP.B	W1, W0
	BRA NZ	L__spi_1255
	GOTO	L__spi_1175
L__spi_1255:
L__spi_1146:
;Acelerografo.c,388 :: 		SPI1BUF = tiempo[j];
	MOV	#lo_addr(_tiempo), W1
	MOV	#lo_addr(_j), W0
	ADD	W1, [W0], W0
	MOV.B	[W0], W0
	ZE	W0, W0
	MOV	WREG, SPI1BUF
;Acelerografo.c,389 :: 		j++;
	MOV	#1, W1
	MOV	#lo_addr(_j), W0
	ADD	W1, [W0], [W0]
;Acelerografo.c,387 :: 		if ((banSetReloj==2)&&(buffer!=0xA5)&&(buffer!=0xF5)){
L__spi_1177:
L__spi_1176:
L__spi_1175:
;Acelerografo.c,391 :: 		if ((banSetReloj==2)&&(buffer==0xF5)){                                     //Si detecta el delimitador de final de trama:
	MOV	#lo_addr(_banSetReloj), W0
	MOV.B	[W0], W0
	CP.B	W0, #2
	BRA Z	L__spi_1256
	GOTO	L__spi_1179
L__spi_1256:
	MOV	#lo_addr(_buffer), W0
	MOV.B	[W0], W1
	MOV.B	#245, W0
	CP.B	W1, W0
	BRA Z	L__spi_1257
	GOTO	L__spi_1178
L__spi_1257:
L__spi_1145:
;Acelerografo.c,392 :: 		banSetReloj = 0;                                                        //Limpia la bandera de lectura
	MOV	#lo_addr(_banSetReloj), W1
	CLR	W0
	MOV.B	W0, [W1]
;Acelerografo.c,393 :: 		SPI1BUF = 0xFF;
	MOV	#255, W0
	MOV	WREG, SPI1BUF
;Acelerografo.c,391 :: 		if ((banSetReloj==2)&&(buffer==0xF5)){                                     //Si detecta el delimitador de final de trama:
L__spi_1179:
L__spi_1178:
;Acelerografo.c,396 :: 		if ((banSetReloj==0)&&(buffer==0xA6)){
	MOV	#lo_addr(_banSetReloj), W0
	MOV.B	[W0], W0
	CP.B	W0, #0
	BRA Z	L__spi_1258
	GOTO	L__spi_1181
L__spi_1258:
	MOV	#lo_addr(_buffer), W0
	MOV.B	[W0], W1
	MOV.B	#166, W0
	CP.B	W1, W0
	BRA Z	L__spi_1259
	GOTO	L__spi_1180
L__spi_1259:
L__spi_1144:
;Acelerografo.c,397 :: 		stsGPS = 0;
	MOV	#lo_addr(_stsGPS), W1
	CLR	W0
	MOV.B	W0, [W1]
;Acelerografo.c,399 :: 		ConfigurarGPS(0,1);
	MOV.B	#1, W11
	CLR	W10
	CALL	_ConfigurarGPS
;Acelerografo.c,400 :: 		banTIGPS = 0;                                                           //Limpia la bandera de inicio de trama  del GPS
	MOV	#lo_addr(_banTIGPS), W1
	CLR	W0
	MOV.B	W0, [W1]
;Acelerografo.c,401 :: 		banTCGPS = 0;                                                           //Limpia la bandera de trama completa
	MOV	#lo_addr(_banTCGPS), W1
	CLR	W0
	MOV.B	W0, [W1]
;Acelerografo.c,402 :: 		i_gps = 0;                                                              //Limpia el subindice de la trama GPS
	CLR	W0
	MOV	W0, _i_gps
;Acelerografo.c,404 :: 		if (U1RXIE_bit==0){
	BTSC	U1RXIE_bit, BitPos(U1RXIE_bit+0)
	GOTO	L_spi_195
;Acelerografo.c,405 :: 		U1RXIE_bit = 1;
	BSET	U1RXIE_bit, BitPos(U1RXIE_bit+0)
;Acelerografo.c,406 :: 		}
L_spi_195:
;Acelerografo.c,396 :: 		if ((banSetReloj==0)&&(buffer==0xA6)){
L__spi_1181:
L__spi_1180:
;Acelerografo.c,411 :: 		if ((banSetReloj==0)&&(buffer==0xA7)){
	MOV	#lo_addr(_banSetReloj), W0
	MOV.B	[W0], W0
	CP.B	W0, #0
	BRA Z	L__spi_1260
	GOTO	L__spi_1183
L__spi_1260:
	MOV	#lo_addr(_buffer), W0
	MOV.B	[W0], W1
	MOV.B	#167, W0
	CP.B	W1, W0
	BRA Z	L__spi_1261
	GOTO	L__spi_1182
L__spi_1261:
L__spi_1143:
;Acelerografo.c,412 :: 		horaSistema = RecuperarHoraRTC();                                       //Recupera la hora del RTC
	CALL	_RecuperarHoraRTC
	MOV	W0, _horaSistema
	MOV	W1, _horaSistema+2
;Acelerografo.c,413 :: 		fechaSistema = RecuperarFechaRTC();                                     //Recupera la fecha del RTC
	CALL	_RecuperarFechaRTC
	MOV	W0, _fechaSistema
	MOV	W1, _fechaSistema+2
;Acelerografo.c,414 :: 		AjustarTiempoSistema(horaSistema, fechaSistema, tiempo);                //Actualiza los datos de la trama tiempo con la hora y fecha recuperadas
	MOV.D	W0, W12
	MOV	_horaSistema, W10
	MOV	_horaSistema+2, W11
	MOV	#lo_addr(_tiempo), W0
	PUSH	W0
	CALL	_AjustarTiempoSistema
	SUB	#2, W15
;Acelerografo.c,415 :: 		fuenteReloj = 0;
	MOV	#lo_addr(_fuenteReloj), W1
	CLR	W0
	MOV.B	W0, [W1]
;Acelerografo.c,416 :: 		banSetReloj = 1;
	MOV	#lo_addr(_banSetReloj), W1
	MOV.B	#1, W0
	MOV.B	W0, [W1]
;Acelerografo.c,417 :: 		InterrupcionP2();
	CALL	_InterrupcionP2
;Acelerografo.c,411 :: 		if ((banSetReloj==0)&&(buffer==0xA7)){
L__spi_1183:
L__spi_1182:
;Acelerografo.c,420 :: 		}
L_end_spi_1:
	POP	W13
	POP	W12
	POP	W11
	POP	W10
	MOV	#26, W0
	REPEAT	#12
	POP	[W0--]
	POP	W0
	POP	RCOUNT
	POP	50
	POP	DSWPAG
	RETFIE
; end of _spi_1

_int_1:
	PUSH	DSWPAG
	PUSH	50
	PUSH	RCOUNT
	PUSH	W0
	MOV	#2, W0
	REPEAT	#12
	PUSH	[W0++]

;Acelerografo.c,425 :: 		void int_1() org IVT_ADDR_INT1INTERRUPT {
;Acelerografo.c,427 :: 		INT1IF_bit = 0;                                                            //Limpia la bandera de interrupcion externa INT1
	BCLR	INT1IF_bit, BitPos(INT1IF_bit+0)
;Acelerografo.c,429 :: 		TEST = ~TEST;
	BTG	LATB12_bit, BitPos(LATB12_bit+0)
;Acelerografo.c,430 :: 		horaSistema++;                                                             //Incrementa el reloj del sistema
	MOV	#1, W1
	MOV	#0, W2
	MOV	#lo_addr(_horaSistema), W0
	ADD	W1, [W0], [W0++]
	ADDC	W2, [W0], [W0--]
;Acelerografo.c,432 :: 		if (horaSistema==86400){                                                   //(24*3600)+(0*60)+(0) = 86400
	MOV	_horaSistema, W2
	MOV	_horaSistema+2, W3
	MOV	#20864, W0
	MOV	#1, W1
	CP	W2, W0
	CPB	W3, W1
	BRA Z	L__int_1263
	GOTO	L_int_199
L__int_1263:
;Acelerografo.c,433 :: 		horaSistema = 0;                                                        //Reinicia el reloj al llegar a las 24:00:00 horas
	CLR	W0
	CLR	W1
	MOV	W0, _horaSistema
	MOV	W1, _horaSistema+2
;Acelerografo.c,434 :: 		}
L_int_199:
;Acelerografo.c,436 :: 		if (banInicio==1){
	MOV	#lo_addr(_banInicio), W0
	MOV.B	[W0], W0
	CP.B	W0, #1
	BRA Z	L__int_1264
	GOTO	L_int_1100
L__int_1264:
;Acelerografo.c,437 :: 		Muestrear();
	CALL	_Muestrear
;Acelerografo.c,438 :: 		}
L_int_1100:
;Acelerografo.c,440 :: 		}
L_end_int_1:
	MOV	#26, W0
	REPEAT	#12
	POP	[W0--]
	POP	W0
	POP	RCOUNT
	POP	50
	POP	DSWPAG
	RETFIE
; end of _int_1

_Timer1Int:
	PUSH	DSWPAG
	PUSH	50
	PUSH	RCOUNT
	PUSH	W0
	MOV	#2, W0
	REPEAT	#12
	PUSH	[W0++]

;Acelerografo.c,444 :: 		void Timer1Int() org IVT_ADDR_T1INTERRUPT{
;Acelerografo.c,446 :: 		T1IF_bit = 0;                                                              //Limpia la bandera de interrupcion por desbordamiento del Timer1
	PUSH	W10
	BCLR	T1IF_bit, BitPos(T1IF_bit+0)
;Acelerografo.c,448 :: 		numFIFO = ADXL355_read_byte(FIFO_ENTRIES); //75                            //Lee el numero de muestras disponibles en el FIFO
	MOV.B	#5, W10
	CALL	_ADXL355_read_byte
	MOV	#lo_addr(_numFIFO), W1
	MOV.B	W0, [W1]
;Acelerografo.c,449 :: 		numSetsFIFO = (numFIFO)/3;                 //25                            //Lee el numero de sets disponibles en el FIFO
	ZE	W0, W0
	MOV	#3, W2
	REPEAT	#17
	DIV.S	W0, W2
	MOV	W0, W1
	MOV	#lo_addr(_numSetsFIFO), W0
	MOV.B	W1, [W0]
;Acelerografo.c,452 :: 		for (x=0;x<numSetsFIFO;x++){
	CLR	W0
	MOV	W0, _x
L_Timer1Int101:
	MOV	#lo_addr(_numSetsFIFO), W0
	ZE	[W0], W1
	MOV	#lo_addr(_x), W0
	CP	W1, [W0]
	BRA GTU	L__Timer1Int266
	GOTO	L_Timer1Int102
L__Timer1Int266:
;Acelerografo.c,453 :: 		ADXL355_read_FIFO(datosLeidos);                                        //Lee una sola posicion del FIFO
	MOV	#lo_addr(_datosLeidos), W10
	CALL	_ADXL355_read_FIFO
;Acelerografo.c,454 :: 		for (y=0;y<9;y++){
	CLR	W0
	MOV	W0, _y
L_Timer1Int104:
	MOV	_y, W0
	CP	W0, #9
	BRA LTU	L__Timer1Int267
	GOTO	L_Timer1Int105
L__Timer1Int267:
;Acelerografo.c,455 :: 		datosFIFO[y+(x*9)] = datosLeidos[y];                               //LLena la trama datosFIFO
	MOV	_x, W1
	MOV	#9, W0
	MUL.UU	W1, W0, W2
	MOV	#lo_addr(_y), W0
	ADD	W2, [W0], W1
	MOV	#lo_addr(_datosFIFO), W0
	ADD	W0, W1, W2
	MOV	#lo_addr(_datosLeidos), W1
	MOV	#lo_addr(_y), W0
	ADD	W1, [W0], W0
	MOV.B	[W0], [W2]
;Acelerografo.c,454 :: 		for (y=0;y<9;y++){
	MOV	#1, W1
	MOV	#lo_addr(_y), W0
	ADD	W1, [W0], [W0]
;Acelerografo.c,456 :: 		}
	GOTO	L_Timer1Int104
L_Timer1Int105:
;Acelerografo.c,452 :: 		for (x=0;x<numSetsFIFO;x++){
	MOV	#1, W1
	MOV	#lo_addr(_x), W0
	ADD	W1, [W0], [W0]
;Acelerografo.c,457 :: 		}
	GOTO	L_Timer1Int101
L_Timer1Int102:
;Acelerografo.c,460 :: 		for (x=0;x<(numSetsFIFO*9);x++){      //0-224
	CLR	W0
	MOV	W0, _x
L_Timer1Int107:
	MOV	#lo_addr(_numSetsFIFO), W0
	ZE	[W0], W1
	MOV	#9, W0
	MUL.SS	W1, W0, W2
	MOV	#lo_addr(_x), W0
	CP	W2, [W0]
	BRA GTU	L__Timer1Int268
	GOTO	L_Timer1Int108
L__Timer1Int268:
;Acelerografo.c,461 :: 		if ((x==0)||(x%9==0)){
	MOV	_x, W0
	CP	W0, #0
	BRA NZ	L__Timer1Int269
	GOTO	L__Timer1Int186
L__Timer1Int269:
	MOV	_x, W0
	MOV	#9, W2
	REPEAT	#17
	DIV.U	W0, W2
	MOV	W1, W0
	CP	W0, #0
	BRA NZ	L__Timer1Int270
	GOTO	L__Timer1Int185
L__Timer1Int270:
	GOTO	L_Timer1Int112
L__Timer1Int186:
L__Timer1Int185:
;Acelerografo.c,462 :: 		tramaCompleta[contFIFO+contMuestras+x] = contMuestras;
	MOV	#lo_addr(_contMuestras), W0
	ZE	[W0], W1
	MOV	#lo_addr(_contFIFO), W0
	ADD	W1, [W0], W1
	MOV	#lo_addr(_x), W0
	ADD	W1, [W0], W1
	MOV	#lo_addr(_tramaCompleta), W0
	ADD	W0, W1, W1
	MOV	#lo_addr(_contMuestras), W0
	MOV.B	[W0], [W1]
;Acelerografo.c,463 :: 		tramaCompleta[contFIFO+contMuestras+x+1] = datosFIFO[x];
	MOV	#lo_addr(_contMuestras), W0
	ZE	[W0], W1
	MOV	#lo_addr(_contFIFO), W0
	ADD	W1, [W0], W1
	MOV	#lo_addr(_x), W0
	ADD	W1, [W0], W0
	ADD	W0, #1, W1
	MOV	#lo_addr(_tramaCompleta), W0
	ADD	W0, W1, W2
	MOV	#lo_addr(_datosFIFO), W1
	MOV	#lo_addr(_x), W0
	ADD	W1, [W0], W0
	MOV.B	[W0], [W2]
;Acelerografo.c,464 :: 		contMuestras++;
	MOV.B	#1, W1
	MOV	#lo_addr(_contMuestras), W0
	ADD.B	W1, [W0], [W0]
;Acelerografo.c,465 :: 		} else {
	GOTO	L_Timer1Int113
L_Timer1Int112:
;Acelerografo.c,466 :: 		tramaCompleta[contFIFO+contMuestras+x] = datosFIFO[x];
	MOV	#lo_addr(_contMuestras), W0
	ZE	[W0], W1
	MOV	#lo_addr(_contFIFO), W0
	ADD	W1, [W0], W1
	MOV	#lo_addr(_x), W0
	ADD	W1, [W0], W1
	MOV	#lo_addr(_tramaCompleta), W0
	ADD	W0, W1, W2
	MOV	#lo_addr(_datosFIFO), W1
	MOV	#lo_addr(_x), W0
	ADD	W1, [W0], W0
	MOV.B	[W0], [W2]
;Acelerografo.c,467 :: 		}
L_Timer1Int113:
;Acelerografo.c,460 :: 		for (x=0;x<(numSetsFIFO*9);x++){      //0-224
	MOV	#1, W1
	MOV	#lo_addr(_x), W0
	ADD	W1, [W0], [W0]
;Acelerografo.c,468 :: 		}
	GOTO	L_Timer1Int107
L_Timer1Int108:
;Acelerografo.c,470 :: 		contFIFO = (contMuestras*9);                                               //Incrementa el contador de FIFOs
	MOV	#lo_addr(_contMuestras), W0
	ZE	[W0], W1
	MOV	#9, W0
	MUL.SS	W1, W0, W0
	MOV	W0, _contFIFO
;Acelerografo.c,472 :: 		contTimer1++;                                                              //Incrementa una unidad cada vez que entra a la interrupcion por Timer1
	MOV.B	#1, W1
	MOV	#lo_addr(_contTimer1), W0
	ADD.B	W1, [W0], [W0]
;Acelerografo.c,474 :: 		if (contTimer1==numTMR1){                                                  //Verifica si se cumplio el numero de interrupciones por TMR1 para la tasa de muestreo seleccionada
	MOV	#lo_addr(_contTimer1), W0
	ZE	[W0], W1
	MOV	#lo_addr(_numTMR1), W0
	SE	[W0], W0
	CP	W1, W0
	BRA Z	L__Timer1Int271
	GOTO	L_Timer1Int114
L__Timer1Int271:
;Acelerografo.c,475 :: 		T1CON.TON = 0;                                                          //Apaga el Timer1
	BCLR	T1CON, #15
;Acelerografo.c,476 :: 		banCiclo = 1;                                                           //Activa la bandera que indica que se completo un ciclo de medicion
	MOV	#lo_addr(_banCiclo), W1
	MOV.B	#1, W0
	MOV.B	W0, [W1]
;Acelerografo.c,477 :: 		contTimer1 = 0;                                                         //Limpia el contador de interrupciones por Timer1
	MOV	#lo_addr(_contTimer1), W1
	CLR	W0
	MOV.B	W0, [W1]
;Acelerografo.c,478 :: 		}
L_Timer1Int114:
;Acelerografo.c,480 :: 		}
L_end_Timer1Int:
	POP	W10
	MOV	#26, W0
	REPEAT	#12
	POP	[W0--]
	POP	W0
	POP	RCOUNT
	POP	50
	POP	DSWPAG
	RETFIE
; end of _Timer1Int

_urx_1:
	PUSH	DSWPAG
	PUSH	50
	PUSH	RCOUNT
	PUSH	W0
	MOV	#2, W0
	REPEAT	#12
	PUSH	[W0++]

;Acelerografo.c,484 :: 		void urx_1() org  IVT_ADDR_U1RXINTERRUPT {
;Acelerografo.c,486 :: 		U1RXIF_bit = 0;                                                            //Limpia la bandera de interrupcion por UART
	PUSH	W10
	PUSH	W11
	PUSH	W12
	PUSH	W13
	BCLR	U1RXIF_bit, BitPos(U1RXIF_bit+0)
;Acelerografo.c,488 :: 		byteGPS = U1RXREG;                                                         //Lee el byte de la trama enviada por el GPS
	MOV	#lo_addr(_byteGPS), W1
	MOV.B	U1RXREG, WREG
	MOV.B	W0, [W1]
;Acelerografo.c,489 :: 		OERR_bit = 0;                                                              //Limpia este bit para limpiar el FIFO UART
	BCLR	OERR_bit, BitPos(OERR_bit+0)
;Acelerografo.c,491 :: 		if (banTIGPS==0){
	MOV	#lo_addr(_banTIGPS), W0
	MOV.B	[W0], W0
	CP.B	W0, #0
	BRA Z	L__urx_1273
	GOTO	L_urx_1115
L__urx_1273:
;Acelerografo.c,492 :: 		if ((byteGPS==0x24)&&(i_gps==0)){                                       //Verifica si el primer byte recibido es el simbolo "$" que indica el inicio de una trama GPS
	MOV	#lo_addr(_byteGPS), W0
	MOV.B	[W0], W1
	MOV.B	#36, W0
	CP.B	W1, W0
	BRA Z	L__urx_1274
	GOTO	L__urx_1190
L__urx_1274:
	MOV	_i_gps, W0
	CP	W0, #0
	BRA Z	L__urx_1275
	GOTO	L__urx_1189
L__urx_1275:
L__urx_1188:
;Acelerografo.c,493 :: 		banTIGPS = 1;                                                        //Activa la bandera de inicio de trama
	MOV	#lo_addr(_banTIGPS), W1
	MOV.B	#1, W0
	MOV.B	W0, [W1]
;Acelerografo.c,494 :: 		} else {
	GOTO	L_urx_1119
;Acelerografo.c,492 :: 		if ((byteGPS==0x24)&&(i_gps==0)){                                       //Verifica si el primer byte recibido es el simbolo "$" que indica el inicio de una trama GPS
L__urx_1190:
L__urx_1189:
;Acelerografo.c,496 :: 		horaSistema = RecuperarHoraRTC();                                    //Recupera la hora del RTC
	CALL	_RecuperarHoraRTC
	MOV	W0, _horaSistema
	MOV	W1, _horaSistema+2
;Acelerografo.c,497 :: 		fechaSistema = RecuperarFechaRTC();                                  //Recupera la fecha del RTC
	CALL	_RecuperarFechaRTC
	MOV	W0, _fechaSistema
	MOV	W1, _fechaSistema+2
;Acelerografo.c,498 :: 		AjustarTiempoSistema(horaSistema, fechaSistema, tiempo);             //Actualiza los datos de la trama tiempo con la hora y fecha recuperadas del RTC
	MOV.D	W0, W12
	MOV	_horaSistema, W10
	MOV	_horaSistema+2, W11
	MOV	#lo_addr(_tiempo), W0
	PUSH	W0
	CALL	_AjustarTiempoSistema
	SUB	#2, W15
;Acelerografo.c,499 :: 		fuenteReloj = 0;
	MOV	#lo_addr(_fuenteReloj), W1
	CLR	W0
	MOV.B	W0, [W1]
;Acelerografo.c,500 :: 		banSetReloj = 1;                                                     //Activa la bandera para hacer uso de la hora GPS
	MOV	#lo_addr(_banSetReloj), W1
	MOV.B	#1, W0
	MOV.B	W0, [W1]
;Acelerografo.c,501 :: 		InterrupcionP2();
	CALL	_InterrupcionP2
;Acelerografo.c,502 :: 		U1RXIE_bit = 0;
	BCLR	U1RXIE_bit, BitPos(U1RXIE_bit+0)
;Acelerografo.c,503 :: 		}
L_urx_1119:
;Acelerografo.c,504 :: 		}
L_urx_1115:
;Acelerografo.c,506 :: 		if (banTIGPS==1){
	MOV	#lo_addr(_banTIGPS), W0
	MOV.B	[W0], W0
	CP.B	W0, #1
	BRA Z	L__urx_1276
	GOTO	L_urx_1120
L__urx_1276:
;Acelerografo.c,507 :: 		if (byteGPS!=0x2A){                                                     //0x2A = "*"
	MOV	#lo_addr(_byteGPS), W0
	MOV.B	[W0], W1
	MOV.B	#42, W0
	CP.B	W1, W0
	BRA NZ	L__urx_1277
	GOTO	L_urx_1121
L__urx_1277:
;Acelerografo.c,508 :: 		tramaGPS[i_gps] = byteGPS;                                           //LLena la tramaGPS hasta recibir el ultimo simbolo ("*") de la trama GPS
	MOV	#lo_addr(_tramaGPS), W1
	MOV	#lo_addr(_i_gps), W0
	ADD	W1, [W0], W1
	MOV	#lo_addr(_byteGPS), W0
	MOV.B	[W0], [W1]
;Acelerografo.c,509 :: 		banTFGPS = 0;                                                        //Limpia la bandera de final de trama
	MOV	#lo_addr(_banTFGPS), W1
	CLR	W0
	MOV.B	W0, [W1]
;Acelerografo.c,510 :: 		if (i_gps<70){
	MOV	#70, W1
	MOV	#lo_addr(_i_gps), W0
	CP	W1, [W0]
	BRA GTU	L__urx_1278
	GOTO	L_urx_1122
L__urx_1278:
;Acelerografo.c,511 :: 		i_gps++;                                                          //Incrementa el valor del subindice mientras sea menor a 70
	MOV	#1, W1
	MOV	#lo_addr(_i_gps), W0
	ADD	W1, [W0], [W0]
;Acelerografo.c,512 :: 		}
L_urx_1122:
;Acelerografo.c,513 :: 		if ((i_gps>1)&&(tramaGPS[1]!=0x47)){                                 //Verifica si el segundo elemento guardado es diferente de G
	MOV	_i_gps, W0
	CP	W0, #1
	BRA GTU	L__urx_1279
	GOTO	L__urx_1192
L__urx_1279:
	MOV	#lo_addr(_tramaGPS+1), W0
	MOV.B	[W0], W1
	MOV.B	#71, W0
	CP.B	W1, W0
	BRA NZ	L__urx_1280
	GOTO	L__urx_1191
L__urx_1280:
L__urx_1187:
;Acelerografo.c,514 :: 		i_gps = 0;                                                        //Limpia el subindice para almacenar la trama desde el principio
	CLR	W0
	MOV	W0, _i_gps
;Acelerografo.c,515 :: 		banTIGPS = 0;                                                     //Limpia la bandera de inicio de trama
	MOV	#lo_addr(_banTIGPS), W1
	CLR	W0
	MOV.B	W0, [W1]
;Acelerografo.c,516 :: 		banTCGPS = 0;                                                     //Limpia la bandera de trama completa
	MOV	#lo_addr(_banTCGPS), W1
	CLR	W0
	MOV.B	W0, [W1]
;Acelerografo.c,513 :: 		if ((i_gps>1)&&(tramaGPS[1]!=0x47)){                                 //Verifica si el segundo elemento guardado es diferente de G
L__urx_1192:
L__urx_1191:
;Acelerografo.c,518 :: 		} else {
	GOTO	L_urx_1126
L_urx_1121:
;Acelerografo.c,519 :: 		tramaGPS[i_gps] = byteGPS;
	MOV	#lo_addr(_tramaGPS), W1
	MOV	#lo_addr(_i_gps), W0
	ADD	W1, [W0], W1
	MOV	#lo_addr(_byteGPS), W0
	MOV.B	[W0], [W1]
;Acelerografo.c,520 :: 		banTIGPS = 2;                                                        //Cambia el estado de la bandera de inicio de trama para no permitir que se almacene mas datos en la trama
	MOV	#lo_addr(_banTIGPS), W1
	MOV.B	#2, W0
	MOV.B	W0, [W1]
;Acelerografo.c,521 :: 		banTCGPS = 1;                                                        //Activa la bandera de trama completa
	MOV	#lo_addr(_banTCGPS), W1
	MOV.B	#1, W0
	MOV.B	W0, [W1]
;Acelerografo.c,522 :: 		}
L_urx_1126:
;Acelerografo.c,523 :: 		}
L_urx_1120:
;Acelerografo.c,526 :: 		if (banTCGPS==1){
	MOV	#lo_addr(_banTCGPS), W0
	MOV.B	[W0], W0
	CP.B	W0, #1
	BRA Z	L__urx_1281
	GOTO	L_urx_1127
L__urx_1281:
;Acelerografo.c,527 :: 		if (tramaGPS[18]==0x41) {                                               //Verifica que el caracter 18 sea igual a "A" lo cual comprueba que los datos son validos
	MOV	#lo_addr(_tramaGPS+18), W0
	MOV.B	[W0], W1
	MOV.B	#65, W0
	CP.B	W1, W0
	BRA Z	L__urx_1282
	GOTO	L_urx_1128
L__urx_1282:
;Acelerografo.c,528 :: 		for (x=0;x<6;x++){
	CLR	W0
	MOV	W0, _x
L_urx_1129:
	MOV	_x, W0
	CP	W0, #6
	BRA LTU	L__urx_1283
	GOTO	L_urx_1130
L__urx_1283:
;Acelerografo.c,529 :: 		datosGPS[x] = tramaGPS[7+x];                                     //Guarda los datos de hhmmss
	MOV	#lo_addr(_datosGPS), W1
	MOV	#lo_addr(_x), W0
	ADD	W1, [W0], W2
	MOV	_x, W0
	ADD	W0, #7, W1
	MOV	#lo_addr(_tramaGPS), W0
	ADD	W0, W1, W0
	MOV.B	[W0], [W2]
;Acelerografo.c,528 :: 		for (x=0;x<6;x++){
	MOV	#1, W1
	MOV	#lo_addr(_x), W0
	ADD	W1, [W0], [W0]
;Acelerografo.c,530 :: 		}
	GOTO	L_urx_1129
L_urx_1130:
;Acelerografo.c,532 :: 		for (x=50;x<60;x++){
	MOV	#50, W0
	MOV	W0, _x
L_urx_1132:
	MOV	#60, W1
	MOV	#lo_addr(_x), W0
	CP	W1, [W0]
	BRA GTU	L__urx_1284
	GOTO	L_urx_1133
L__urx_1284:
;Acelerografo.c,533 :: 		if (tramaGPS[x]==0x2C){                                          //Busca el simbolo "," a partir de la posicion 50
	MOV	#lo_addr(_tramaGPS), W1
	MOV	#lo_addr(_x), W0
	ADD	W1, [W0], W0
	MOV.B	[W0], W1
	MOV.B	#44, W0
	CP.B	W1, W0
	BRA Z	L__urx_1285
	GOTO	L_urx_1135
L__urx_1285:
;Acelerografo.c,534 :: 		for (y=0;y<6;y++){
	CLR	W0
	MOV	W0, _y
L_urx_1136:
	MOV	_y, W0
	CP	W0, #6
	BRA LTU	L__urx_1286
	GOTO	L_urx_1137
L__urx_1286:
;Acelerografo.c,535 :: 		datosGPS[6+y] = tramaGPS[x+y+1];                         //Guarda los datos de DDMMAA en la trama datosGPS
	MOV	_y, W0
	ADD	W0, #6, W1
	MOV	#lo_addr(_datosGPS), W0
	ADD	W0, W1, W2
	MOV	_x, W1
	MOV	#lo_addr(_y), W0
	ADD	W1, [W0], W0
	ADD	W0, #1, W1
	MOV	#lo_addr(_tramaGPS), W0
	ADD	W0, W1, W0
	MOV.B	[W0], [W2]
;Acelerografo.c,534 :: 		for (y=0;y<6;y++){
	MOV	#1, W1
	MOV	#lo_addr(_y), W0
	ADD	W1, [W0], [W0]
;Acelerografo.c,536 :: 		}
	GOTO	L_urx_1136
L_urx_1137:
;Acelerografo.c,537 :: 		}
L_urx_1135:
;Acelerografo.c,532 :: 		for (x=50;x<60;x++){
	MOV	#1, W1
	MOV	#lo_addr(_x), W0
	ADD	W1, [W0], [W0]
;Acelerografo.c,538 :: 		}
	GOTO	L_urx_1132
L_urx_1133:
;Acelerografo.c,540 :: 		horaSistema = RecuperarHoraGPS(datosGPS);                            //Recupera la hora del GPS
	MOV	#lo_addr(_datosGPS), W10
	CALL	_RecuperarHoraGPS
	MOV	W0, _horaSistema
	MOV	W1, _horaSistema+2
;Acelerografo.c,541 :: 		fechaSistema = RecuperarFechaGPS(datosGPS);                          //Recupera la fecha del GPS
	MOV	#lo_addr(_datosGPS), W10
	CALL	_RecuperarFechaGPS
	MOV	W0, _fechaSistema
	MOV	W1, _fechaSistema+2
;Acelerografo.c,542 :: 		DS3234_init();                                                       //inicializa el RTC
	CALL	_DS3234_init
;Acelerografo.c,543 :: 		DS3234_setDate(horaSistema, fechaSistema);                           //Configura la hora en el RTC con la hora recuperada de la RPi
	MOV	_fechaSistema, W12
	MOV	_fechaSistema+2, W13
	MOV	_horaSistema, W10
	MOV	_horaSistema+2, W11
	CALL	_DS3234_setDate
;Acelerografo.c,544 :: 		AjustarTiempoSistema(horaSistema, fechaSistema, tiempo);             //Actualiza los datos de la trama tiempo con la hora y fecha recuperadas del gps
	MOV	_fechaSistema, W12
	MOV	_fechaSistema+2, W13
	MOV	_horaSistema, W10
	MOV	_horaSistema+2, W11
	MOV	#lo_addr(_tiempo), W0
	PUSH	W0
	CALL	_AjustarTiempoSistema
	SUB	#2, W15
;Acelerografo.c,545 :: 		fuenteReloj = 1;
	MOV	#lo_addr(_fuenteReloj), W1
	MOV.B	#1, W0
	MOV.B	W0, [W1]
;Acelerografo.c,546 :: 		} else {
	GOTO	L_urx_1139
L_urx_1128:
;Acelerografo.c,548 :: 		horaSistema = RecuperarHoraRTC();                                    //Recupera la hora del RTC
	CALL	_RecuperarHoraRTC
	MOV	W0, _horaSistema
	MOV	W1, _horaSistema+2
;Acelerografo.c,549 :: 		fechaSistema = RecuperarFechaRTC();                                  //Recupera la fecha del RTC
	CALL	_RecuperarFechaRTC
	MOV	W0, _fechaSistema
	MOV	W1, _fechaSistema+2
;Acelerografo.c,550 :: 		AjustarTiempoSistema(horaSistema, fechaSistema, tiempo);             //Actualiza los datos de la trama tiempo con la hora y fecha recuperadas del RTC
	MOV.D	W0, W12
	MOV	_horaSistema, W10
	MOV	_horaSistema+2, W11
	MOV	#lo_addr(_tiempo), W0
	PUSH	W0
	CALL	_AjustarTiempoSistema
	SUB	#2, W15
;Acelerografo.c,551 :: 		fuenteReloj = 0;
	MOV	#lo_addr(_fuenteReloj), W1
	CLR	W0
	MOV.B	W0, [W1]
;Acelerografo.c,552 :: 		}
L_urx_1139:
;Acelerografo.c,554 :: 		banSetReloj = 1;                                                        //Activa la bandera para hacer uso de la hora GPS
	MOV	#lo_addr(_banSetReloj), W1
	MOV.B	#1, W0
	MOV.B	W0, [W1]
;Acelerografo.c,555 :: 		InterrupcionP2();                                                       //Genera el pulso P2 para producir la interrupcion en la RPi
	CALL	_InterrupcionP2
;Acelerografo.c,556 :: 		U1RXIE_bit = 0;
	BCLR	U1RXIE_bit, BitPos(U1RXIE_bit+0)
;Acelerografo.c,557 :: 		}
L_urx_1127:
;Acelerografo.c,559 :: 		}
L_end_urx_1:
	POP	W13
	POP	W12
	POP	W11
	POP	W10
	MOV	#26, W0
	REPEAT	#12
	POP	[W0--]
	POP	W0
	POP	RCOUNT
	POP	50
	POP	DSWPAG
	RETFIE
; end of _urx_1
