
_ADXL355_init:

;adxl355_spi.c,100 :: 		void ADXL355_init(short tMuestreo)
;adxl355_spi.c,102 :: 		ADXL355_write_byte(Reset, 0x52); // Resetea el dispositivo
	PUSH	W10
	PUSH	W11
	PUSH	W10
	MOV.B	#82, W11
	MOV.B	#47, W10
	CALL	_ADXL355_write_byte
;adxl355_spi.c,103 :: 		Delay_ms(10);
	MOV	#2, W8
	MOV	#14464, W7
L_ADXL355_init0:
	DEC	W7
	BRA NZ	L_ADXL355_init0
	DEC	W8
	BRA NZ	L_ADXL355_init0
	NOP
	NOP
;adxl355_spi.c,104 :: 		ADXL355_write_byte(POWER_CTL, DRDY_OFF | STANDBY);
	MOV.B	#5, W11
	MOV.B	#45, W10
	CALL	_ADXL355_write_byte
;adxl355_spi.c,105 :: 		ADXL355_write_byte(Range, _2G);
	MOV.B	#1, W11
	MOV.B	#44, W10
	CALL	_ADXL355_write_byte
	POP	W10
;adxl355_spi.c,106 :: 		switch (tMuestreo)
	GOTO	L_ADXL355_init2
;adxl355_spi.c,108 :: 		case 1:
L_ADXL355_init4:
;adxl355_spi.c,109 :: 		ADXL355_write_byte(Filter, NO_HIGH_PASS_FILTER | _62_5_Hz); // ODR=250Hz 1
	MOV.B	#4, W11
	MOV.B	#40, W10
	CALL	_ADXL355_write_byte
;adxl355_spi.c,110 :: 		break;
	GOTO	L_ADXL355_init3
;adxl355_spi.c,111 :: 		case 2:
L_ADXL355_init5:
;adxl355_spi.c,112 :: 		ADXL355_write_byte(Filter, NO_HIGH_PASS_FILTER | _31_25_Hz); // ODR=125Hz 2
	MOV.B	#5, W11
	MOV.B	#40, W10
	CALL	_ADXL355_write_byte
;adxl355_spi.c,113 :: 		break;
	GOTO	L_ADXL355_init3
;adxl355_spi.c,114 :: 		case 4:
L_ADXL355_init6:
;adxl355_spi.c,115 :: 		ADXL355_write_byte(Filter, NO_HIGH_PASS_FILTER | _15_625_Hz); // ODR=62.5Hz 4
	MOV.B	#6, W11
	MOV.B	#40, W10
	CALL	_ADXL355_write_byte
;adxl355_spi.c,116 :: 		break;
	GOTO	L_ADXL355_init3
;adxl355_spi.c,117 :: 		case 8:
L_ADXL355_init7:
;adxl355_spi.c,118 :: 		ADXL355_write_byte(Filter, NO_HIGH_PASS_FILTER | _7_813_Hz); // ODR=31.25Hz 8
	MOV.B	#7, W11
	MOV.B	#40, W10
	CALL	_ADXL355_write_byte
;adxl355_spi.c,119 :: 		break;
	GOTO	L_ADXL355_init3
;adxl355_spi.c,120 :: 		}
L_ADXL355_init2:
	CP.B	W10, #1
	BRA NZ	L__ADXL355_init286
	GOTO	L_ADXL355_init4
L__ADXL355_init286:
	CP.B	W10, #2
	BRA NZ	L__ADXL355_init287
	GOTO	L_ADXL355_init5
L__ADXL355_init287:
	CP.B	W10, #4
	BRA NZ	L__ADXL355_init288
	GOTO	L_ADXL355_init6
L__ADXL355_init288:
	CP.B	W10, #8
	BRA NZ	L__ADXL355_init289
	GOTO	L_ADXL355_init7
L__ADXL355_init289:
L_ADXL355_init3:
;adxl355_spi.c,121 :: 		}
L_end_ADXL355_init:
	POP	W11
	POP	W10
	RETURN
; end of _ADXL355_init

_ADXL355_write_byte:

;adxl355_spi.c,123 :: 		void ADXL355_write_byte(unsigned char address, unsigned char value)
;adxl355_spi.c,125 :: 		address = (address << 1) & 0xFE;
	PUSH	W10
	ZE	W10, W0
	SL	W0, #1, W1
	MOV	#254, W0
	AND	W1, W0, W0
	MOV.B	W0, W10
;adxl355_spi.c,126 :: 		CS_ADXL355 = 0;
	BCLR	LATA3_bit, BitPos(LATA3_bit+0)
;adxl355_spi.c,127 :: 		SPI2_Write(address);
	ZE	W0, W10
	CALL	_SPI2_Write
;adxl355_spi.c,128 :: 		SPI2_Write(value);
	ZE	W11, W10
	CALL	_SPI2_Write
;adxl355_spi.c,129 :: 		CS_ADXL355 = 1;
	BSET	LATA3_bit, BitPos(LATA3_bit+0)
;adxl355_spi.c,130 :: 		}
L_end_ADXL355_write_byte:
	POP	W10
	RETURN
; end of _ADXL355_write_byte

_ADXL355_read_byte:

;adxl355_spi.c,132 :: 		unsigned char ADXL355_read_byte(unsigned char address)
;adxl355_spi.c,134 :: 		unsigned char value = 0x00;
	PUSH	W10
;adxl355_spi.c,135 :: 		address = (address << 1) | 0x01;
	ZE	W10, W0
	SL	W0, #1, W0
	IOR	W0, #1, W0
	MOV.B	W0, W10
;adxl355_spi.c,136 :: 		CS_ADXL355 = 0;
	BCLR	LATA3_bit, BitPos(LATA3_bit+0)
;adxl355_spi.c,137 :: 		SPI2_Write(address);
	ZE	W0, W10
	CALL	_SPI2_Write
;adxl355_spi.c,138 :: 		value = SPI2_Read(0);
	CLR	W10
	CALL	_SPI2_Read
;adxl355_spi.c,139 :: 		CS_ADXL355 = 1;
	BSET	LATA3_bit, BitPos(LATA3_bit+0)
;adxl355_spi.c,140 :: 		return value;
;adxl355_spi.c,141 :: 		}
;adxl355_spi.c,140 :: 		return value;
;adxl355_spi.c,141 :: 		}
L_end_ADXL355_read_byte:
	POP	W10
	RETURN
; end of _ADXL355_read_byte

_ADXL355_read_data:

;adxl355_spi.c,143 :: 		unsigned int ADXL355_read_data(unsigned char *vectorMuestra)
;adxl355_spi.c,147 :: 		if ((ADXL355_read_byte(Status) & 0x01) == 1)
	PUSH	W10
	MOV.B	#4, W10
	CALL	_ADXL355_read_byte
	POP	W10
	ZE	W0, W0
	AND	W0, #1, W0
	CP	W0, #1
	BRA Z	L__ADXL355_read_data293
	GOTO	L_ADXL355_read_data8
L__ADXL355_read_data293:
;adxl355_spi.c,149 :: 		CS_ADXL355 = 0;
	BCLR	LATA3_bit, BitPos(LATA3_bit+0)
;adxl355_spi.c,150 :: 		for (j = 0; j < 9; j++)
; j start address is: 4 (W2)
	CLR	W2
; j end address is: 4 (W2)
L_ADXL355_read_data9:
; j start address is: 4 (W2)
	CP.B	W2, #9
	BRA LTU	L__ADXL355_read_data294
	GOTO	L_ADXL355_read_data10
L__ADXL355_read_data294:
;adxl355_spi.c,152 :: 		muestra = ADXL355_read_byte(axisAddresses[j]);
	ZE	W2, W1
	MOV	#lo_addr(_axisAddresses), W0
	ADD	W0, W1, W0
	PUSH	W10
	MOV.B	[W0], W10
	CALL	_ADXL355_read_byte
	POP	W10
;adxl355_spi.c,153 :: 		vectorMuestra[j] = muestra;
	ZE	W2, W1
	ADD	W10, W1, W1
	MOV.B	W0, [W1]
;adxl355_spi.c,150 :: 		for (j = 0; j < 9; j++)
	INC.B	W2
;adxl355_spi.c,154 :: 		}
; j end address is: 4 (W2)
	GOTO	L_ADXL355_read_data9
L_ADXL355_read_data10:
;adxl355_spi.c,155 :: 		CS_ADXL355 = 1;
	BSET	LATA3_bit, BitPos(LATA3_bit+0)
;adxl355_spi.c,156 :: 		}
	GOTO	L_ADXL355_read_data12
L_ADXL355_read_data8:
;adxl355_spi.c,159 :: 		for (j = 0; j < 9; j++)
; j start address is: 4 (W2)
	CLR	W2
; j end address is: 4 (W2)
L_ADXL355_read_data13:
; j start address is: 4 (W2)
	CP.B	W2, #9
	BRA LTU	L__ADXL355_read_data295
	GOTO	L_ADXL355_read_data14
L__ADXL355_read_data295:
;adxl355_spi.c,161 :: 		vectorMuestra[j] = 0;
	ZE	W2, W0
	ADD	W10, W0, W1
	CLR	W0
	MOV.B	W0, [W1]
;adxl355_spi.c,159 :: 		for (j = 0; j < 9; j++)
	INC.B	W2
;adxl355_spi.c,162 :: 		}
; j end address is: 4 (W2)
	GOTO	L_ADXL355_read_data13
L_ADXL355_read_data14:
;adxl355_spi.c,163 :: 		}
L_ADXL355_read_data12:
;adxl355_spi.c,164 :: 		return;
;adxl355_spi.c,165 :: 		}
L_end_ADXL355_read_data:
	RETURN
; end of _ADXL355_read_data

_ADXL355_read_FIFO:
	LNK	#2

;adxl355_spi.c,167 :: 		unsigned int ADXL355_read_FIFO(unsigned char *vectorFIFO)
;adxl355_spi.c,171 :: 		CS_ADXL355 = 0;
	PUSH	W10
	BCLR	LATA3_bit, BitPos(LATA3_bit+0)
;adxl355_spi.c,172 :: 		SPI2_Write(add);
	PUSH	W10
	MOV	#35, W10
	CALL	_SPI2_Write
	POP	W10
;adxl355_spi.c,174 :: 		vectorFIFO[0] = SPI2_Read(0);
	MOV	W10, W0
	MOV	W0, [W14+0]
	PUSH	W10
	CLR	W10
	CALL	_SPI2_Read
	POP	W10
	MOV	[W14+0], W1
	MOV.B	W0, [W1]
;adxl355_spi.c,175 :: 		vectorFIFO[1] = SPI2_Read(1);
	ADD	W10, #1, W0
	MOV	W0, [W14+0]
	PUSH	W10
	MOV	#1, W10
	CALL	_SPI2_Read
	POP	W10
	MOV	[W14+0], W1
	MOV.B	W0, [W1]
;adxl355_spi.c,176 :: 		vectorFIFO[2] = SPI2_Read(2);
	ADD	W10, #2, W0
	MOV	W0, [W14+0]
	PUSH	W10
	MOV	#2, W10
	CALL	_SPI2_Read
	POP	W10
	MOV	[W14+0], W1
	MOV.B	W0, [W1]
;adxl355_spi.c,178 :: 		vectorFIFO[3] = SPI2_Read(0);
	ADD	W10, #3, W0
	MOV	W0, [W14+0]
	PUSH	W10
	CLR	W10
	CALL	_SPI2_Read
	POP	W10
	MOV	[W14+0], W1
	MOV.B	W0, [W1]
;adxl355_spi.c,179 :: 		vectorFIFO[4] = SPI2_Read(1);
	ADD	W10, #4, W0
	MOV	W0, [W14+0]
	PUSH	W10
	MOV	#1, W10
	CALL	_SPI2_Read
	POP	W10
	MOV	[W14+0], W1
	MOV.B	W0, [W1]
;adxl355_spi.c,180 :: 		vectorFIFO[5] = SPI2_Read(2);
	ADD	W10, #5, W0
	MOV	W0, [W14+0]
	PUSH	W10
	MOV	#2, W10
	CALL	_SPI2_Read
	POP	W10
	MOV	[W14+0], W1
	MOV.B	W0, [W1]
;adxl355_spi.c,182 :: 		vectorFIFO[6] = SPI2_Read(0);
	ADD	W10, #6, W0
	MOV	W0, [W14+0]
	PUSH	W10
	CLR	W10
	CALL	_SPI2_Read
	POP	W10
	MOV	[W14+0], W1
	MOV.B	W0, [W1]
;adxl355_spi.c,183 :: 		vectorFIFO[7] = SPI2_Read(1);
	ADD	W10, #7, W0
	MOV	W0, [W14+0]
	PUSH	W10
	MOV	#1, W10
	CALL	_SPI2_Read
	POP	W10
	MOV	[W14+0], W1
	MOV.B	W0, [W1]
;adxl355_spi.c,184 :: 		vectorFIFO[8] = SPI2_Read(2);
	ADD	W10, #8, W0
	MOV	W0, [W14+0]
	MOV	#2, W10
	CALL	_SPI2_Read
	MOV	[W14+0], W1
	MOV.B	W0, [W1]
;adxl355_spi.c,185 :: 		CS_ADXL355 = 1;
	BSET	LATA3_bit, BitPos(LATA3_bit+0)
;adxl355_spi.c,186 :: 		Delay_us(5);
	MOV	#40, W7
L_ADXL355_read_FIFO16:
	DEC	W7
	BRA NZ	L_ADXL355_read_FIFO16
	NOP
	NOP
;adxl355_spi.c,188 :: 		}
;adxl355_spi.c,187 :: 		return;
;adxl355_spi.c,188 :: 		}
L_end_ADXL355_read_FIFO:
	POP	W10
	ULNK
	RETURN
; end of _ADXL355_read_FIFO

_GPS_init:

;tiempo_gps.c,12 :: 		void GPS_init()
;tiempo_gps.c,34 :: 		UART1_Write_Text("$PMTK220,1000*1F\r\n");
	PUSH	W10
	MOV	#lo_addr(?lstr1_Acelerografo), W10
	CALL	_UART1_Write_Text
;tiempo_gps.c,35 :: 		Delay_ms(1000);
	MOV	#123, W8
	MOV	#4681, W7
L_GPS_init18:
	DEC	W7
	BRA NZ	L_GPS_init18
	DEC	W8
	BRA NZ	L_GPS_init18
;tiempo_gps.c,39 :: 		UART1_Write_Text("$PMTK314,0,1,0,0,0,0,0,0,0,0,0,0,0,0,0,0,0*29\r\n");
	MOV	#lo_addr(?lstr2_Acelerografo), W10
	CALL	_UART1_Write_Text
;tiempo_gps.c,40 :: 		Delay_ms(1000);
	MOV	#123, W8
	MOV	#4681, W7
L_GPS_init20:
	DEC	W7
	BRA NZ	L_GPS_init20
	DEC	W8
	BRA NZ	L_GPS_init20
;tiempo_gps.c,45 :: 		}
;tiempo_gps.c,42 :: 		return;
;tiempo_gps.c,45 :: 		}
L_end_GPS_init:
	POP	W10
	RETURN
; end of _GPS_init

_RecuperarFechaGPS:
	LNK	#28

;tiempo_gps.c,50 :: 		unsigned long RecuperarFechaGPS(unsigned char *tramaDatosGPS)
;tiempo_gps.c,56 :: 		char *ptrDatoStringF = &datoStringF;
	PUSH	W10
	ADD	W14, #16, W4
	MOV	W4, [W14+26]
; ptrDatoStringF start address is: 12 (W6)
	MOV	W4, W6
;tiempo_gps.c,57 :: 		datoStringF[2] = '\0';
	ADD	W4, #2, W1
	CLR	W0
	MOV.B	W0, [W1]
;tiempo_gps.c,58 :: 		tramaFecha[3] = '\0';
	ADD	W14, #0, W3
	MOV	W3, [W14+24]
	ADD	W3, #12, W2
	CLR	W0
	CLR	W1
	MOV.D	W0, [W2]
;tiempo_gps.c,61 :: 		datoStringF[0] = tramaDatosGPS[10];
	ADD	W10, #10, W0
	MOV.B	[W0], [W4]
;tiempo_gps.c,62 :: 		datoStringF[1] = tramaDatosGPS[11];
	ADD	W4, #1, W1
	ADD	W10, #11, W0
	MOV.B	[W0], [W1]
;tiempo_gps.c,63 :: 		tramaFecha[0] = atoi(ptrDatoStringF);
	MOV	W3, W0
	MOV	W0, [W14+20]
	PUSH	W10
	MOV	W6, W10
	CALL	_atoi
	POP	W10
	MOV	W0, W1
	ASR	W1, #15, W2
	MOV	[W14+20], W0
	MOV	W1, [W0++]
	MOV	W2, [W0--]
;tiempo_gps.c,66 :: 		datoStringF[0] = tramaDatosGPS[8];
	ADD	W10, #8, W1
	MOV	[W14+26], W0
	MOV.B	[W1], [W0]
;tiempo_gps.c,67 :: 		datoStringF[1] = tramaDatosGPS[9];
	ADD	W0, #1, W1
	ADD	W10, #9, W0
	MOV.B	[W0], [W1]
;tiempo_gps.c,68 :: 		tramaFecha[1] = atoi(ptrDatoStringF);
	MOV	[W14+24], W0
	ADD	W0, #4, W0
	MOV	W0, [W14+20]
	PUSH	W10
	MOV	W6, W10
	CALL	_atoi
	POP	W10
	MOV	W0, W1
	ASR	W1, #15, W2
	MOV	[W14+20], W0
	MOV	W1, [W0++]
	MOV	W2, [W0--]
;tiempo_gps.c,71 :: 		datoStringF[0] = tramaDatosGPS[6];
	ADD	W10, #6, W1
	MOV	[W14+26], W0
	MOV.B	[W1], [W0]
;tiempo_gps.c,72 :: 		datoStringF[1] = tramaDatosGPS[7];
	ADD	W0, #1, W1
	ADD	W10, #7, W0
	MOV.B	[W0], [W1]
;tiempo_gps.c,73 :: 		tramaFecha[2] = atoi(ptrDatoStringF);
	MOV	[W14+24], W0
	ADD	W0, #8, W0
	MOV	W0, [W14+20]
	MOV	W6, W10
; ptrDatoStringF end address is: 12 (W6)
	CALL	_atoi
	MOV	W0, W1
	ASR	W1, #15, W2
	MOV	[W14+20], W0
	MOV	W1, [W0++]
	MOV	W2, [W0--]
;tiempo_gps.c,75 :: 		fechaGPS = (tramaFecha[0] * 10000) + (tramaFecha[1] * 100) + (tramaFecha[2]); // 10000*aa + 100*mm + dd
	MOV	[W14+24], W2
	MOV.D	[W2], W0
	MOV	#10000, W2
	MOV	#0, W3
	CALL	__Multiply_32x32
	MOV	[W14+24], W2
	MOV	W0, [W14+20]
	MOV	W1, [W14+22]
	ADD	W2, #4, W2
	MOV.D	[W2], W0
	MOV	#100, W2
	MOV	#0, W3
	CALL	__Multiply_32x32
	MOV	[W14+20], W2
	MOV	[W14+22], W3
	ADD	W2, W0, W4
	ADDC	W3, W1, W5
	MOV	[W14+24], W0
	ADD	W0, #8, W2
	ADD	W4, [W2++], W0
	ADDC	W5, [W2--], W1
;tiempo_gps.c,77 :: 		return fechaGPS;
;tiempo_gps.c,78 :: 		}
;tiempo_gps.c,77 :: 		return fechaGPS;
;tiempo_gps.c,78 :: 		}
L_end_RecuperarFechaGPS:
	POP	W10
	ULNK
	RETURN
; end of _RecuperarFechaGPS

_RecuperarHoraGPS:
	LNK	#28

;tiempo_gps.c,81 :: 		unsigned long RecuperarHoraGPS(unsigned char *tramaDatosGPS)
;tiempo_gps.c,87 :: 		char *ptrDatoString = &datoString;
	PUSH	W10
	ADD	W14, #16, W4
	MOV	W4, [W14+26]
; ptrDatoString start address is: 12 (W6)
	MOV	W4, W6
;tiempo_gps.c,88 :: 		datoString[2] = '\0';
	ADD	W4, #2, W1
	CLR	W0
	MOV.B	W0, [W1]
;tiempo_gps.c,89 :: 		tramaTiempo[3] = '\0';
	ADD	W14, #0, W3
	MOV	W3, [W14+24]
	ADD	W3, #12, W2
	CLR	W0
	CLR	W1
	MOV.D	W0, [W2]
;tiempo_gps.c,92 :: 		datoString[0] = tramaDatosGPS[0];
	MOV.B	[W10], [W4]
;tiempo_gps.c,93 :: 		datoString[1] = tramaDatosGPS[1];
	ADD	W4, #1, W1
	ADD	W10, #1, W0
	MOV.B	[W0], [W1]
;tiempo_gps.c,94 :: 		tramaTiempo[0] = atoi(ptrDatoString);
	MOV	W3, W0
	MOV	W0, [W14+20]
	PUSH	W10
	MOV	W6, W10
	CALL	_atoi
	POP	W10
	MOV	W0, W1
	ASR	W1, #15, W2
	MOV	[W14+20], W0
	MOV	W1, [W0++]
	MOV	W2, [W0--]
;tiempo_gps.c,97 :: 		datoString[0] = tramaDatosGPS[2];
	ADD	W10, #2, W1
	MOV	[W14+26], W0
	MOV.B	[W1], [W0]
;tiempo_gps.c,98 :: 		datoString[1] = tramaDatosGPS[3];
	ADD	W0, #1, W1
	ADD	W10, #3, W0
	MOV.B	[W0], [W1]
;tiempo_gps.c,99 :: 		tramaTiempo[1] = atoi(ptrDatoString);
	MOV	[W14+24], W0
	ADD	W0, #4, W0
	MOV	W0, [W14+20]
	PUSH	W10
	MOV	W6, W10
	CALL	_atoi
	POP	W10
	MOV	W0, W1
	ASR	W1, #15, W2
	MOV	[W14+20], W0
	MOV	W1, [W0++]
	MOV	W2, [W0--]
;tiempo_gps.c,102 :: 		datoString[0] = tramaDatosGPS[4];
	ADD	W10, #4, W1
	MOV	[W14+26], W0
	MOV.B	[W1], [W0]
;tiempo_gps.c,103 :: 		datoString[1] = tramaDatosGPS[5];
	ADD	W0, #1, W1
	ADD	W10, #5, W0
	MOV.B	[W0], [W1]
;tiempo_gps.c,104 :: 		tramaTiempo[2] = atoi(ptrDatoString);
	MOV	[W14+24], W0
	ADD	W0, #8, W0
	MOV	W0, [W14+20]
	MOV	W6, W10
; ptrDatoString end address is: 12 (W6)
	CALL	_atoi
	MOV	W0, W1
	ASR	W1, #15, W2
	MOV	[W14+20], W0
	MOV	W1, [W0++]
	MOV	W2, [W0--]
;tiempo_gps.c,106 :: 		horaGPS = (tramaTiempo[0] * 3600) + (tramaTiempo[1] * 60) + (tramaTiempo[2]); // Calcula el segundo actual = hh*3600 + mm*60 + ss
	MOV	[W14+24], W2
	MOV.D	[W2], W0
	MOV	#3600, W2
	MOV	#0, W3
	CALL	__Multiply_32x32
	MOV	[W14+24], W2
	MOV	W0, [W14+20]
	MOV	W1, [W14+22]
	ADD	W2, #4, W2
	MOV.D	[W2], W0
	MOV	#60, W2
	MOV	#0, W3
	CALL	__Multiply_32x32
	MOV	[W14+20], W2
	MOV	[W14+22], W3
	ADD	W2, W0, W4
	ADDC	W3, W1, W5
	MOV	[W14+24], W0
	ADD	W0, #8, W2
	ADD	W4, [W2++], W0
	ADDC	W5, [W2--], W1
;tiempo_gps.c,107 :: 		return horaGPS;
;tiempo_gps.c,108 :: 		}
;tiempo_gps.c,107 :: 		return horaGPS;
;tiempo_gps.c,108 :: 		}
L_end_RecuperarHoraGPS:
	POP	W10
	ULNK
	RETURN
; end of _RecuperarHoraGPS

_DS3234_init:

;tiempo_rtc.c,55 :: 		void DS3234_init(){
;tiempo_rtc.c,57 :: 		SPI2_Init_Advanced(_SPI_MASTER, _SPI_8_BIT, _SPI_PRESCALE_SEC_1, _SPI_PRESCALE_PRI_64, _SPI_SS_DISABLE, _SPI_DATA_SAMPLE_MIDDLE, _SPI_CLK_IDLE_LOW, _SPI_ACTIVE_2_IDLE);
	PUSH	W10
	PUSH	W11
	PUSH	W12
	PUSH	W13
	CLR	W13
	MOV	#28, W12
	CLR	W11
	MOV	#32, W10
	CLR	W0
	PUSH	W0
	CLR	W0
	PUSH	W0
	CLR	W0
	PUSH	W0
	CLR	W0
	PUSH	W0
	CALL	_SPI2_Init_Advanced
	SUB	#8, W15
;tiempo_rtc.c,58 :: 		DS3234_write_byte(Control,0x20);
	MOV.B	#32, W11
	MOV.B	#142, W10
	CALL	_DS3234_write_byte
;tiempo_rtc.c,59 :: 		DS3234_write_byte(ControlStatus,0x08);
	MOV.B	#8, W11
	MOV.B	#143, W10
	CALL	_DS3234_write_byte
;tiempo_rtc.c,60 :: 		SPI2_Init();
	CALL	_SPI2_Init
;tiempo_rtc.c,62 :: 		}
L_end_DS3234_init:
	POP	W13
	POP	W12
	POP	W11
	POP	W10
	RETURN
; end of _DS3234_init

_DS3234_write_byte:

;tiempo_rtc.c,65 :: 		void DS3234_write_byte(unsigned char address, unsigned char value){
;tiempo_rtc.c,67 :: 		CS_DS3234 = 0;
	PUSH	W10
	BCLR	LATA2_bit, BitPos(LATA2_bit+0)
;tiempo_rtc.c,68 :: 		SPI2_Write(address);
	ZE	W10, W10
	CALL	_SPI2_Write
;tiempo_rtc.c,69 :: 		SPI2_Write(value);
	ZE	W11, W10
	CALL	_SPI2_Write
;tiempo_rtc.c,70 :: 		CS_DS3234 = 1;
	BSET	LATA2_bit, BitPos(LATA2_bit+0)
;tiempo_rtc.c,72 :: 		}
L_end_DS3234_write_byte:
	POP	W10
	RETURN
; end of _DS3234_write_byte

_DS3234_read_byte:

;tiempo_rtc.c,75 :: 		unsigned char DS3234_read_byte(unsigned char address){
;tiempo_rtc.c,77 :: 		unsigned char value = 0x00;
	PUSH	W10
;tiempo_rtc.c,78 :: 		CS_DS3234 = 0;
	BCLR	LATA2_bit, BitPos(LATA2_bit+0)
;tiempo_rtc.c,79 :: 		SPI2_Write(address);
	ZE	W10, W10
	CALL	_SPI2_Write
;tiempo_rtc.c,80 :: 		value = SPI2_Read(0);
	CLR	W10
	CALL	_SPI2_Read
;tiempo_rtc.c,81 :: 		CS_DS3234 = 1;
	BSET	LATA2_bit, BitPos(LATA2_bit+0)
;tiempo_rtc.c,82 :: 		return value;
;tiempo_rtc.c,84 :: 		}
;tiempo_rtc.c,82 :: 		return value;
;tiempo_rtc.c,84 :: 		}
L_end_DS3234_read_byte:
	POP	W10
	RETURN
; end of _DS3234_read_byte

_DS3234_setDate:
	LNK	#14

;tiempo_rtc.c,87 :: 		void DS3234_setDate(unsigned long longHora, unsigned long longFecha){
;tiempo_rtc.c,97 :: 		SPI2_Init_Advanced(_SPI_MASTER, _SPI_8_BIT, _SPI_PRESCALE_SEC_1, _SPI_PRESCALE_PRI_64, _SPI_SS_DISABLE, _SPI_DATA_SAMPLE_MIDDLE, _SPI_CLK_IDLE_LOW, _SPI_ACTIVE_2_IDLE);
	PUSH	W10
	PUSH	W11
	PUSH.D	W12
	PUSH.D	W10
	CLR	W13
	MOV	#28, W12
	CLR	W11
	MOV	#32, W10
	CLR	W0
	PUSH	W0
	CLR	W0
	PUSH	W0
	CLR	W0
	PUSH	W0
	CLR	W0
	PUSH	W0
	CALL	_SPI2_Init_Advanced
	SUB	#8, W15
	POP.D	W10
;tiempo_rtc.c,99 :: 		hora = (short)(longHora / 3600);
	PUSH.D	W10
	MOV	#3600, W2
	MOV	#0, W3
	MOV.D	W10, W0
	CLR	W4
	CALL	__Divide_32x32
	POP.D	W10
	MOV.B	W0, [W14+0]
;tiempo_rtc.c,100 :: 		minuto = (short)((longHora%3600) / 60);
	MOV	#3600, W2
	MOV	#0, W3
	MOV.D	W10, W0
	CLR	W4
	CALL	__Modulus_32x32
	MOV	W0, [W14+10]
	MOV	W1, [W14+12]
	MOV	#60, W2
	MOV	#0, W3
	CLR	W4
	CALL	__Divide_32x32
	MOV.B	W0, [W14+1]
;tiempo_rtc.c,101 :: 		segundo = (short)((longHora%3600) % 60);
	MOV	[W14+10], W0
	MOV	[W14+12], W1
	MOV	#60, W2
	MOV	#0, W3
	CLR	W4
	CALL	__Modulus_32x32
	POP.D	W12
	MOV.B	W0, [W14+2]
;tiempo_rtc.c,103 :: 		dia = (short)(longFecha / 10000);
	PUSH.D	W12
	MOV	#10000, W2
	MOV	#0, W3
	MOV.D	W12, W0
	CLR	W4
	CALL	__Divide_32x32
	POP.D	W12
	MOV.B	W0, [W14+3]
;tiempo_rtc.c,104 :: 		mes = (short)((longFecha%10000) / 100);
	MOV	#10000, W2
	MOV	#0, W3
	MOV.D	W12, W0
	CLR	W4
	CALL	__Modulus_32x32
	MOV	W0, [W14+10]
	MOV	W1, [W14+12]
	MOV	#100, W2
	MOV	#0, W3
	CLR	W4
	CALL	__Divide_32x32
	MOV.B	W0, [W14+4]
;tiempo_rtc.c,105 :: 		anio = (short)((longFecha%10000) % 100);
	MOV	[W14+10], W0
	MOV	[W14+12], W1
	MOV	#100, W2
	MOV	#0, W3
	CLR	W4
	CALL	__Modulus_32x32
; anio start address is: 8 (W4)
	MOV.B	W0, W4
;tiempo_rtc.c,107 :: 		segundo = Dec2Bcd(segundo);
	MOV.B	[W14+2], W10
	CALL	_Dec2Bcd
	MOV.B	W0, [W14+2]
;tiempo_rtc.c,108 :: 		minuto = Dec2Bcd(minuto);
	MOV.B	[W14+1], W10
	CALL	_Dec2Bcd
	MOV.B	W0, [W14+1]
;tiempo_rtc.c,109 :: 		hora = Dec2Bcd(hora);
	MOV.B	[W14+0], W10
	CALL	_Dec2Bcd
	MOV.B	W0, [W14+0]
;tiempo_rtc.c,110 :: 		dia = Dec2Bcd(dia);
	MOV.B	[W14+3], W10
	CALL	_Dec2Bcd
	MOV.B	W0, [W14+3]
;tiempo_rtc.c,111 :: 		mes = Dec2Bcd(mes);
	MOV.B	[W14+4], W10
	CALL	_Dec2Bcd
	MOV.B	W0, [W14+4]
;tiempo_rtc.c,112 :: 		anio = Dec2Bcd(anio);
	MOV.B	W4, W10
; anio end address is: 8 (W4)
	CALL	_Dec2Bcd
; anio start address is: 2 (W1)
	MOV.B	W0, W1
;tiempo_rtc.c,114 :: 		DS3234_write_byte(Segundos_Esc, segundo);
	MOV.B	[W14+2], W11
	MOV.B	#128, W10
	CALL	_DS3234_write_byte
;tiempo_rtc.c,115 :: 		DS3234_write_byte(Minutos_Esc, minuto);
	MOV.B	[W14+1], W11
	MOV.B	#129, W10
	CALL	_DS3234_write_byte
;tiempo_rtc.c,116 :: 		DS3234_write_byte(Horas_Esc, hora);
	MOV.B	[W14+0], W11
	MOV.B	#130, W10
	CALL	_DS3234_write_byte
;tiempo_rtc.c,117 :: 		DS3234_write_byte(DiaMes_Esc, dia);
	MOV.B	[W14+3], W11
	MOV.B	#132, W10
	CALL	_DS3234_write_byte
;tiempo_rtc.c,118 :: 		DS3234_write_byte(Mes_Esc, mes);
	MOV.B	[W14+4], W11
	MOV.B	#133, W10
	CALL	_DS3234_write_byte
;tiempo_rtc.c,119 :: 		DS3234_write_byte(Anio_Esc, anio);
	MOV.B	W1, W11
; anio end address is: 2 (W1)
	MOV.B	#134, W10
	CALL	_DS3234_write_byte
;tiempo_rtc.c,121 :: 		SPI2_Init();
	CALL	_SPI2_Init
;tiempo_rtc.c,125 :: 		}
;tiempo_rtc.c,123 :: 		return;
;tiempo_rtc.c,125 :: 		}
L_end_DS3234_setDate:
	POP	W11
	POP	W10
	ULNK
	RETURN
; end of _DS3234_setDate

_RecuperarHoraRTC:
	LNK	#4

;tiempo_rtc.c,128 :: 		unsigned long RecuperarHoraRTC(){
;tiempo_rtc.c,136 :: 		SPI2_Init_Advanced(_SPI_MASTER, _SPI_8_BIT, _SPI_PRESCALE_SEC_1, _SPI_PRESCALE_PRI_64, _SPI_SS_DISABLE, _SPI_DATA_SAMPLE_MIDDLE, _SPI_CLK_IDLE_LOW, _SPI_ACTIVE_2_IDLE);
	PUSH	W10
	PUSH	W11
	PUSH	W12
	PUSH	W13
	CLR	W13
	MOV	#28, W12
	CLR	W11
	MOV	#32, W10
	CLR	W0
	PUSH	W0
	CLR	W0
	PUSH	W0
	CLR	W0
	PUSH	W0
	CLR	W0
	PUSH	W0
	CALL	_SPI2_Init_Advanced
	SUB	#8, W15
;tiempo_rtc.c,138 :: 		valueRead = DS3234_read_byte(Segundos_Lec);
	CLR	W10
	CALL	_DS3234_read_byte
;tiempo_rtc.c,139 :: 		valueRead = Bcd2Dec(valueRead);
	MOV.B	W0, W10
	CALL	_Bcd2Dec
;tiempo_rtc.c,140 :: 		segundo = (long)valueRead;
; segundo start address is: 12 (W6)
	ZE	W0, W6
	CLR	W7
;tiempo_rtc.c,141 :: 		valueRead = DS3234_read_byte(Minutos_Lec);
	MOV.B	#1, W10
	CALL	_DS3234_read_byte
;tiempo_rtc.c,142 :: 		valueRead = Bcd2Dec(valueRead);
	MOV.B	W0, W10
	CALL	_Bcd2Dec
;tiempo_rtc.c,143 :: 		minuto = (long)valueRead;
; minuto start address is: 16 (W8)
	ZE	W0, W8
	CLR	W9
;tiempo_rtc.c,144 :: 		valueRead = DS3234_read_byte(Horas_Lec);
	MOV.B	#2, W10
	CALL	_DS3234_read_byte
;tiempo_rtc.c,145 :: 		valueRead = Bcd2Dec(valueRead);
	MOV.B	W0, W10
	CALL	_Bcd2Dec
;tiempo_rtc.c,146 :: 		hora = (long)valueRead;
	ZE	W0, W0
	CLR	W1
;tiempo_rtc.c,148 :: 		horaRTC = (hora*3600)+(minuto*60)+(segundo);                               //Calcula el segundo actual = hh*3600 + mm*60 + ss
	MOV	#3600, W2
	MOV	#0, W3
	CALL	__Multiply_32x32
	MOV	W0, [W14+0]
	MOV	W1, [W14+2]
	MOV.D	W8, W0
	MOV	#60, W2
	MOV	#0, W3
	CALL	__Multiply_32x32
; minuto end address is: 16 (W8)
	MOV	[W14+0], W2
	MOV	[W14+2], W3
	ADD	W2, W0, W0
	ADDC	W3, W1, W1
; horaRTC start address is: 4 (W2)
	ADD	W0, W6, W2
	ADDC	W1, W7, W3
; segundo end address is: 12 (W6)
;tiempo_rtc.c,150 :: 		SPI2_Init();
	CALL	_SPI2_Init
;tiempo_rtc.c,152 :: 		return horaRTC;
	MOV.D	W2, W0
; horaRTC end address is: 4 (W2)
;tiempo_rtc.c,154 :: 		}
;tiempo_rtc.c,152 :: 		return horaRTC;
;tiempo_rtc.c,154 :: 		}
L_end_RecuperarHoraRTC:
	POP	W13
	POP	W12
	POP	W11
	POP	W10
	ULNK
	RETURN
; end of _RecuperarHoraRTC

_RecuperarFechaRTC:
	LNK	#4

;tiempo_rtc.c,157 :: 		unsigned long RecuperarFechaRTC(){
;tiempo_rtc.c,165 :: 		SPI2_Init_Advanced(_SPI_MASTER, _SPI_8_BIT, _SPI_PRESCALE_SEC_1, _SPI_PRESCALE_PRI_64, _SPI_SS_DISABLE, _SPI_DATA_SAMPLE_MIDDLE, _SPI_CLK_IDLE_LOW, _SPI_ACTIVE_2_IDLE);
	PUSH	W10
	PUSH	W11
	PUSH	W12
	PUSH	W13
	CLR	W13
	MOV	#28, W12
	CLR	W11
	MOV	#32, W10
	CLR	W0
	PUSH	W0
	CLR	W0
	PUSH	W0
	CLR	W0
	PUSH	W0
	CLR	W0
	PUSH	W0
	CALL	_SPI2_Init_Advanced
	SUB	#8, W15
;tiempo_rtc.c,167 :: 		valueRead = DS3234_read_byte(DiaMes_Lec);
	MOV.B	#4, W10
	CALL	_DS3234_read_byte
;tiempo_rtc.c,168 :: 		valueRead = Bcd2Dec(valueRead);
	MOV.B	W0, W10
	CALL	_Bcd2Dec
;tiempo_rtc.c,169 :: 		dia = (long)valueRead;
; dia start address is: 12 (W6)
	ZE	W0, W6
	CLR	W7
;tiempo_rtc.c,170 :: 		valueRead = 0x1F & DS3234_read_byte(Mes_Lec);
	MOV.B	#5, W10
	CALL	_DS3234_read_byte
	ZE	W0, W0
	AND	W0, #31, W0
;tiempo_rtc.c,171 :: 		valueRead = Bcd2Dec(valueRead);
	MOV.B	W0, W10
	CALL	_Bcd2Dec
;tiempo_rtc.c,172 :: 		mes = (long)valueRead;
; mes start address is: 16 (W8)
	ZE	W0, W8
	CLR	W9
;tiempo_rtc.c,173 :: 		valueRead = DS3234_read_byte(Anio_Lec);
	MOV.B	#6, W10
	CALL	_DS3234_read_byte
;tiempo_rtc.c,174 :: 		valueRead = Bcd2Dec(valueRead);
	MOV.B	W0, W10
	CALL	_Bcd2Dec
;tiempo_rtc.c,175 :: 		anio = (long)valueRead;
	ZE	W0, W0
	CLR	W1
;tiempo_rtc.c,177 :: 		fechaRTC = (anio*10000)+(mes*100)+(dia);                                   //10000*aa + 100*mm + dd
	MOV	#10000, W2
	MOV	#0, W3
	CALL	__Multiply_32x32
	MOV	W0, [W14+0]
	MOV	W1, [W14+2]
	MOV.D	W8, W0
	MOV	#100, W2
	MOV	#0, W3
	CALL	__Multiply_32x32
; mes end address is: 16 (W8)
	MOV	[W14+0], W2
	MOV	[W14+2], W3
	ADD	W2, W0, W0
	ADDC	W3, W1, W1
; fechaRTC start address is: 4 (W2)
	ADD	W0, W6, W2
	ADDC	W1, W7, W3
; dia end address is: 12 (W6)
;tiempo_rtc.c,179 :: 		SPI2_Init();
	CALL	_SPI2_Init
;tiempo_rtc.c,181 :: 		return fechaRTC;
	MOV.D	W2, W0
; fechaRTC end address is: 4 (W2)
;tiempo_rtc.c,183 :: 		}
;tiempo_rtc.c,181 :: 		return fechaRTC;
;tiempo_rtc.c,183 :: 		}
L_end_RecuperarFechaRTC:
	POP	W13
	POP	W12
	POP	W11
	POP	W10
	ULNK
	RETURN
; end of _RecuperarFechaRTC

_IncrementarFecha:
	LNK	#4

;tiempo_rtc.c,186 :: 		unsigned long IncrementarFecha(unsigned long longFecha){
;tiempo_rtc.c,193 :: 		anio = longFecha / 10000;
	PUSH.D	W10
	MOV	#10000, W2
	MOV	#0, W3
	MOV.D	W10, W0
	CLR	W4
	CALL	__Divide_32x32
	POP.D	W10
; anio start address is: 4 (W2)
	MOV.D	W0, W2
;tiempo_rtc.c,194 :: 		mes = (longFecha%10000) / 100;
	PUSH.D	W2
	MOV	#10000, W2
	MOV	#0, W3
	MOV.D	W10, W0
	CLR	W4
	CALL	__Modulus_32x32
	MOV	W0, [W14+0]
	MOV	W1, [W14+2]
	MOV	#100, W2
	MOV	#0, W3
	CLR	W4
	CALL	__Divide_32x32
	POP.D	W2
; mes start address is: 8 (W4)
	MOV.D	W0, W4
;tiempo_rtc.c,195 :: 		dia = (longFecha%10000) % 100;
	MOV	[W14+0], W0
	MOV	[W14+2], W1
	PUSH.D	W4
	PUSH.D	W2
	MOV	#100, W2
	MOV	#0, W3
	CLR	W4
	CALL	__Modulus_32x32
	POP.D	W2
	POP.D	W4
; dia start address is: 12 (W6)
	MOV.D	W0, W6
;tiempo_rtc.c,197 :: 		if (dia<28){
	CP	W0, #28
	CPB	W1, #0
	BRA LTU	L__IncrementarFecha307
	GOTO	L_IncrementarFecha22
L__IncrementarFecha307:
;tiempo_rtc.c,198 :: 		dia++;
; dia start address is: 16 (W8)
	ADD	W6, #1, W8
	ADDC	W7, #0, W9
; dia end address is: 12 (W6)
;tiempo_rtc.c,199 :: 		} else {
; dia end address is: 16 (W8)
	MOV.D	W4, W6
	GOTO	L_IncrementarFecha23
L_IncrementarFecha22:
;tiempo_rtc.c,200 :: 		if (mes==2){
; dia start address is: 12 (W6)
	CP	W4, #2
	CPB	W5, #0
	BRA Z	L__IncrementarFecha308
	GOTO	L_IncrementarFecha24
L__IncrementarFecha308:
;tiempo_rtc.c,202 :: 		if (((anio-16)%4)==0){
	SUB	W2, #16, W0
	SUBB	W3, #0, W1
	AND	W0, #3, W0
	AND	W1, #0, W1
	CP	W0, #0
	CPB	W1, #0
	BRA Z	L__IncrementarFecha309
	GOTO	L_IncrementarFecha25
L__IncrementarFecha309:
;tiempo_rtc.c,203 :: 		if (dia==29){
	CP	W6, #29
	CPB	W7, #0
	BRA Z	L__IncrementarFecha310
	GOTO	L_IncrementarFecha26
L__IncrementarFecha310:
; dia end address is: 12 (W6)
;tiempo_rtc.c,204 :: 		dia = 1;
; dia start address is: 0 (W0)
	MOV	#1, W0
	MOV	#0, W1
;tiempo_rtc.c,205 :: 		mes++;
	ADD	W4, #1, W4
	ADDC	W5, #0, W5
;tiempo_rtc.c,206 :: 		} else {
; dia end address is: 0 (W0)
	GOTO	L_IncrementarFecha27
L_IncrementarFecha26:
;tiempo_rtc.c,207 :: 		dia++;
; dia start address is: 0 (W0)
; dia start address is: 12 (W6)
	ADD	W6, #1, W0
	ADDC	W7, #0, W1
; dia end address is: 12 (W6)
; mes end address is: 8 (W4)
; dia end address is: 0 (W0)
;tiempo_rtc.c,208 :: 		}
L_IncrementarFecha27:
;tiempo_rtc.c,209 :: 		} else {
; dia start address is: 0 (W0)
; mes start address is: 8 (W4)
	MOV.D	W0, W8
; dia end address is: 0 (W0)
	MOV.D	W4, W6
	GOTO	L_IncrementarFecha28
L_IncrementarFecha25:
;tiempo_rtc.c,210 :: 		dia = 1;
; dia start address is: 0 (W0)
	MOV	#1, W0
	MOV	#0, W1
;tiempo_rtc.c,211 :: 		mes++;
	ADD	W4, #1, W4
	ADDC	W5, #0, W5
	MOV.D	W0, W8
; mes end address is: 8 (W4)
; dia end address is: 0 (W0)
	MOV.D	W4, W6
;tiempo_rtc.c,212 :: 		}
L_IncrementarFecha28:
;tiempo_rtc.c,213 :: 		} else {
; mes start address is: 12 (W6)
; dia start address is: 16 (W8)
; mes end address is: 12 (W6)
; dia end address is: 16 (W8)
	GOTO	L_IncrementarFecha29
L_IncrementarFecha24:
;tiempo_rtc.c,214 :: 		if (dia<30){
; mes start address is: 8 (W4)
; dia start address is: 12 (W6)
	CP	W6, #30
	CPB	W7, #0
	BRA LTU	L__IncrementarFecha311
	GOTO	L_IncrementarFecha30
L__IncrementarFecha311:
;tiempo_rtc.c,215 :: 		dia++;
; dia start address is: 0 (W0)
	ADD	W6, #1, W0
	ADDC	W7, #0, W1
; dia end address is: 12 (W6)
;tiempo_rtc.c,216 :: 		} else {
	PUSH.D	W4
; dia end address is: 0 (W0)
	MOV.D	W2, W4
	MOV.D	W0, W2
	POP.D	W0
	GOTO	L_IncrementarFecha31
L_IncrementarFecha30:
;tiempo_rtc.c,217 :: 		if (mes==4||mes==6||mes==9||mes==11){
; dia start address is: 12 (W6)
	CP	W4, #4
	CPB	W5, #0
	BRA NZ	L__IncrementarFecha312
	GOTO	L__IncrementarFecha202
L__IncrementarFecha312:
	CP	W4, #6
	CPB	W5, #0
	BRA NZ	L__IncrementarFecha313
	GOTO	L__IncrementarFecha201
L__IncrementarFecha313:
	CP	W4, #9
	CPB	W5, #0
	BRA NZ	L__IncrementarFecha314
	GOTO	L__IncrementarFecha200
L__IncrementarFecha314:
	CP	W4, #11
	CPB	W5, #0
	BRA NZ	L__IncrementarFecha315
	GOTO	L__IncrementarFecha199
L__IncrementarFecha315:
	MOV.D	W4, W0
	MOV.D	W6, W4
	GOTO	L_IncrementarFecha34
L__IncrementarFecha202:
L__IncrementarFecha201:
L__IncrementarFecha200:
L__IncrementarFecha199:
;tiempo_rtc.c,218 :: 		if (dia==30){
	CP	W6, #30
	CPB	W7, #0
	BRA Z	L__IncrementarFecha316
	GOTO	L_IncrementarFecha35
L__IncrementarFecha316:
; dia end address is: 12 (W6)
;tiempo_rtc.c,219 :: 		dia = 1;
; dia start address is: 0 (W0)
	MOV	#1, W0
	MOV	#0, W1
;tiempo_rtc.c,220 :: 		mes++;
	ADD	W4, #1, W4
	ADDC	W5, #0, W5
;tiempo_rtc.c,221 :: 		} else {
	PUSH.D	W0
; dia end address is: 0 (W0)
	MOV.D	W4, W0
	POP.D	W4
	GOTO	L_IncrementarFecha36
L_IncrementarFecha35:
;tiempo_rtc.c,222 :: 		dia++;
; dia start address is: 0 (W0)
; dia start address is: 12 (W6)
	ADD	W6, #1, W0
	ADDC	W7, #0, W1
; dia end address is: 12 (W6)
	PUSH.D	W0
; mes end address is: 8 (W4)
; dia end address is: 0 (W0)
	MOV.D	W4, W0
	POP.D	W4
;tiempo_rtc.c,223 :: 		}
L_IncrementarFecha36:
;tiempo_rtc.c,224 :: 		}
; dia start address is: 8 (W4)
; mes start address is: 0 (W0)
; dia end address is: 8 (W4)
; mes end address is: 0 (W0)
L_IncrementarFecha34:
;tiempo_rtc.c,225 :: 		if ((dia!=1)&&(mes==1||mes==3||mes==5||mes==7||mes==8||mes==10)){
; mes start address is: 0 (W0)
; dia start address is: 8 (W4)
	CP	W4, #1
	CPB	W5, #0
	BRA NZ	L__IncrementarFecha317
	GOTO	L__IncrementarFecha212
L__IncrementarFecha317:
	CP	W0, #1
	CPB	W1, #0
	BRA NZ	L__IncrementarFecha318
	GOTO	L__IncrementarFecha208
L__IncrementarFecha318:
	CP	W0, #3
	CPB	W1, #0
	BRA NZ	L__IncrementarFecha319
	GOTO	L__IncrementarFecha207
L__IncrementarFecha319:
	CP	W0, #5
	CPB	W1, #0
	BRA NZ	L__IncrementarFecha320
	GOTO	L__IncrementarFecha206
L__IncrementarFecha320:
	CP	W0, #7
	CPB	W1, #0
	BRA NZ	L__IncrementarFecha321
	GOTO	L__IncrementarFecha205
L__IncrementarFecha321:
	CP	W0, #8
	CPB	W1, #0
	BRA NZ	L__IncrementarFecha322
	GOTO	L__IncrementarFecha204
L__IncrementarFecha322:
	CP	W0, #10
	CPB	W1, #0
	BRA NZ	L__IncrementarFecha323
	GOTO	L__IncrementarFecha203
L__IncrementarFecha323:
	GOTO	L_IncrementarFecha41
L__IncrementarFecha208:
L__IncrementarFecha207:
L__IncrementarFecha206:
L__IncrementarFecha205:
L__IncrementarFecha204:
L__IncrementarFecha203:
L__IncrementarFecha196:
;tiempo_rtc.c,226 :: 		if (dia==31){
	CP	W4, #31
	CPB	W5, #0
	BRA Z	L__IncrementarFecha324
	GOTO	L_IncrementarFecha42
L__IncrementarFecha324:
;tiempo_rtc.c,227 :: 		dia = 1;
	MOV	#1, W4
	MOV	#0, W5
;tiempo_rtc.c,228 :: 		mes++;
	ADD	W0, #1, W0
	ADDC	W1, #0, W1
;tiempo_rtc.c,229 :: 		} else {
	GOTO	L_IncrementarFecha43
L_IncrementarFecha42:
;tiempo_rtc.c,230 :: 		dia++;
	ADD	W4, #1, W4
	ADDC	W5, #0, W5
; dia end address is: 8 (W4)
; mes end address is: 0 (W0)
;tiempo_rtc.c,231 :: 		}
L_IncrementarFecha43:
;tiempo_rtc.c,232 :: 		}
; dia start address is: 8 (W4)
; mes start address is: 0 (W0)
; dia end address is: 8 (W4)
; mes end address is: 0 (W0)
L_IncrementarFecha41:
;tiempo_rtc.c,225 :: 		if ((dia!=1)&&(mes==1||mes==3||mes==5||mes==7||mes==8||mes==10)){
; mes start address is: 0 (W0)
; dia start address is: 8 (W4)
; dia end address is: 8 (W4)
; mes end address is: 0 (W0)
	GOTO	L__IncrementarFecha209
L__IncrementarFecha212:
L__IncrementarFecha209:
;tiempo_rtc.c,233 :: 		if ((dia!=1)&&(mes==12)){
; dia start address is: 8 (W4)
; mes start address is: 0 (W0)
	CP	W4, #1
	CPB	W5, #0
	BRA NZ	L__IncrementarFecha325
	GOTO	L__IncrementarFecha213
L__IncrementarFecha325:
	CP	W0, #12
	CPB	W1, #0
	BRA Z	L__IncrementarFecha326
	GOTO	L__IncrementarFecha214
L__IncrementarFecha326:
L__IncrementarFecha195:
;tiempo_rtc.c,234 :: 		if (dia==31){
	CP	W4, #31
	CPB	W5, #0
	BRA Z	L__IncrementarFecha327
	GOTO	L_IncrementarFecha47
L__IncrementarFecha327:
; mes end address is: 0 (W0)
;tiempo_rtc.c,235 :: 		dia = 1;
	MOV	#1, W4
	MOV	#0, W5
;tiempo_rtc.c,236 :: 		mes = 1;
; mes start address is: 0 (W0)
	MOV	#1, W0
	MOV	#0, W1
;tiempo_rtc.c,237 :: 		anio++;
	ADD	W2, #1, W2
	ADDC	W3, #0, W3
;tiempo_rtc.c,238 :: 		} else {
	GOTO	L_IncrementarFecha48
L_IncrementarFecha47:
;tiempo_rtc.c,239 :: 		dia++;
	ADD	W4, #1, W4
	ADDC	W5, #0, W5
; dia end address is: 8 (W4)
; mes end address is: 0 (W0)
; anio end address is: 4 (W2)
;tiempo_rtc.c,240 :: 		}
L_IncrementarFecha48:
;tiempo_rtc.c,233 :: 		if ((dia!=1)&&(mes==12)){
; dia start address is: 8 (W4)
; anio start address is: 4 (W2)
; mes start address is: 0 (W0)
; dia end address is: 8 (W4)
; mes end address is: 0 (W0)
; anio end address is: 4 (W2)
	GOTO	L__IncrementarFecha211
L__IncrementarFecha213:
L__IncrementarFecha211:
; mes start address is: 0 (W0)
; anio start address is: 4 (W2)
; dia start address is: 8 (W4)
; dia end address is: 8 (W4)
; mes end address is: 0 (W0)
; anio end address is: 4 (W2)
	GOTO	L__IncrementarFecha210
L__IncrementarFecha214:
L__IncrementarFecha210:
;tiempo_rtc.c,242 :: 		}
; dia start address is: 8 (W4)
; anio start address is: 4 (W2)
; mes start address is: 0 (W0)
	PUSH.D	W2
; dia end address is: 8 (W4)
; mes end address is: 0 (W0)
; anio end address is: 4 (W2)
	MOV.D	W4, W2
	POP.D	W4
L_IncrementarFecha31:
;tiempo_rtc.c,243 :: 		}
; mes start address is: 0 (W0)
; anio start address is: 8 (W4)
; dia start address is: 4 (W2)
	MOV.D	W0, W6
; mes end address is: 0 (W0)
; anio end address is: 8 (W4)
; dia end address is: 4 (W2)
	MOV.D	W2, W8
	MOV.D	W4, W2
L_IncrementarFecha29:
;tiempo_rtc.c,245 :: 		}
; dia start address is: 16 (W8)
; anio start address is: 4 (W2)
; mes start address is: 12 (W6)
; mes end address is: 12 (W6)
; anio end address is: 4 (W2)
; dia end address is: 16 (W8)
L_IncrementarFecha23:
;tiempo_rtc.c,247 :: 		fechaInc = (anio*10000)+(mes*100)+(dia);                                   //10000*aa + 100*mm + dd
; mes start address is: 12 (W6)
; anio start address is: 4 (W2)
; dia start address is: 16 (W8)
	MOV	#10000, W0
	MOV	#0, W1
	CALL	__Multiply_32x32
; anio end address is: 4 (W2)
	MOV	W0, [W14+0]
	MOV	W1, [W14+2]
	MOV.D	W6, W0
	MOV	#100, W2
	MOV	#0, W3
	CALL	__Multiply_32x32
; mes end address is: 12 (W6)
	MOV	[W14+0], W2
	MOV	[W14+2], W3
	ADD	W2, W0, W0
	ADDC	W3, W1, W1
	ADD	W0, W8, W0
	ADDC	W1, W9, W1
; dia end address is: 16 (W8)
;tiempo_rtc.c,248 :: 		return fechaInc;
;tiempo_rtc.c,250 :: 		}
L_end_IncrementarFecha:
	ULNK
	RETURN
; end of _IncrementarFecha

_AjustarTiempoSistema:
	LNK	#14

;tiempo_rtc.c,253 :: 		void AjustarTiempoSistema(unsigned long longHora, unsigned long longFecha, unsigned short *tramaTiempoSistema){
	MOV	[W14-8], W0
	MOV	W0, [W14-8]
;tiempo_rtc.c,262 :: 		hora = (short)(longHora / 3600);
	PUSH.D	W12
	PUSH.D	W10
	MOV	#3600, W2
	MOV	#0, W3
	MOV.D	W10, W0
	CLR	W4
	CALL	__Divide_32x32
	POP.D	W10
	MOV.B	W0, [W14+0]
;tiempo_rtc.c,263 :: 		minuto = (short)((longHora%3600) / 60);
	MOV	#3600, W2
	MOV	#0, W3
	MOV.D	W10, W0
	CLR	W4
	CALL	__Modulus_32x32
	MOV	W0, [W14+10]
	MOV	W1, [W14+12]
	MOV	#60, W2
	MOV	#0, W3
	CLR	W4
	CALL	__Divide_32x32
	MOV.B	W0, [W14+1]
;tiempo_rtc.c,264 :: 		segundo = (short)((longHora%3600) % 60);
	MOV	[W14+10], W0
	MOV	[W14+12], W1
	MOV	#60, W2
	MOV	#0, W3
	CLR	W4
	CALL	__Modulus_32x32
	POP.D	W12
	MOV.B	W0, [W14+2]
;tiempo_rtc.c,266 :: 		anio = (short)(longFecha / 10000);
	PUSH.D	W12
	MOV	#10000, W2
	MOV	#0, W3
	MOV.D	W12, W0
	CLR	W4
	CALL	__Divide_32x32
	POP.D	W12
	MOV.B	W0, [W14+4]
;tiempo_rtc.c,267 :: 		mes = (short)((longFecha%10000) / 100);
	MOV	#10000, W2
	MOV	#0, W3
	MOV.D	W12, W0
	CLR	W4
	CALL	__Modulus_32x32
	MOV	W0, [W14+10]
	MOV	W1, [W14+12]
	MOV	#100, W2
	MOV	#0, W3
	CLR	W4
	CALL	__Divide_32x32
	MOV.B	W0, [W14+3]
;tiempo_rtc.c,268 :: 		dia = (short)((longFecha%10000) % 100);
	MOV	[W14+10], W0
	MOV	[W14+12], W1
	MOV	#100, W2
	MOV	#0, W3
	CLR	W4
	CALL	__Modulus_32x32
; dia start address is: 4 (W2)
	MOV.B	W0, W2
;tiempo_rtc.c,270 :: 		tramaTiempoSistema[0] = anio;
	MOV	[W14-8], W1
	MOV.B	[W14+4], W0
	MOV.B	W0, [W1]
;tiempo_rtc.c,271 :: 		tramaTiempoSistema[1] = mes;
	MOV	[W14-8], W0
	ADD	W0, #1, W1
	MOV.B	[W14+3], W0
	MOV.B	W0, [W1]
;tiempo_rtc.c,272 :: 		tramaTiempoSistema[2] = dia;
	MOV	[W14-8], W0
	INC2	W0
	MOV.B	W2, [W0]
; dia end address is: 4 (W2)
;tiempo_rtc.c,273 :: 		tramaTiempoSistema[3] = hora;
	MOV	[W14-8], W0
	ADD	W0, #3, W1
	MOV.B	[W14+0], W0
	MOV.B	W0, [W1]
;tiempo_rtc.c,274 :: 		tramaTiempoSistema[4] = minuto;
	MOV	[W14-8], W0
	ADD	W0, #4, W1
	MOV.B	[W14+1], W0
	MOV.B	W0, [W1]
;tiempo_rtc.c,275 :: 		tramaTiempoSistema[5] = segundo;
	MOV	[W14-8], W0
	ADD	W0, #5, W1
	MOV.B	[W14+2], W0
	MOV.B	W0, [W1]
;tiempo_rtc.c,277 :: 		}
L_end_AjustarTiempoSistema:
	ULNK
	RETURN
; end of _AjustarTiempoSistema

_RecuperarFechaRPI:
	LNK	#4

;tiempo_rpi.c,10 :: 		unsigned long RecuperarFechaRPI(unsigned short *tramaTiempoRpi){
;tiempo_rpi.c,14 :: 		fechaRPi = ((long)tramaTiempoRpi[0]*10000)+((long)tramaTiempoRpi[1]*100)+((long)tramaTiempoRpi[2]);      //10000*dd + 100*mm + aa
	ZE	[W10], W0
	CLR	W1
	MOV	#10000, W2
	MOV	#0, W3
	CALL	__Multiply_32x32
	MOV	W0, [W14+0]
	MOV	W1, [W14+2]
	ADD	W10, #1, W0
	ZE	[W0], W0
	CLR	W1
	MOV	#100, W2
	MOV	#0, W3
	CALL	__Multiply_32x32
	MOV	[W14+0], W2
	MOV	[W14+2], W3
	ADD	W2, W0, W2
	ADDC	W3, W1, W3
	ADD	W10, #2, W0
	ZE	[W0], W0
	CLR	W1
	ADD	W2, W0, W0
	ADDC	W3, W1, W1
;tiempo_rpi.c,16 :: 		return fechaRPi;
;tiempo_rpi.c,18 :: 		}
L_end_RecuperarFechaRPI:
	ULNK
	RETURN
; end of _RecuperarFechaRPI

_RecuperarHoraRPI:
	LNK	#4

;tiempo_rpi.c,21 :: 		unsigned long RecuperarHoraRPI(unsigned short *tramaTiempoRpi){
;tiempo_rpi.c,25 :: 		horaRPi = ((long)tramaTiempoRpi[3]*3600)+((long)tramaTiempoRpi[4]*60)+((long)tramaTiempoRpi[5]);      //Calcula el segundo actual = hh*3600 + mm*60 + ss
	ADD	W10, #3, W0
	ZE	[W0], W0
	CLR	W1
	MOV	#3600, W2
	MOV	#0, W3
	CALL	__Multiply_32x32
	MOV	W0, [W14+0]
	MOV	W1, [W14+2]
	ADD	W10, #4, W0
	ZE	[W0], W0
	CLR	W1
	MOV	#60, W2
	MOV	#0, W3
	CALL	__Multiply_32x32
	MOV	[W14+0], W2
	MOV	[W14+2], W3
	ADD	W2, W0, W2
	ADDC	W3, W1, W3
	ADD	W10, #5, W0
	ZE	[W0], W0
	CLR	W1
	ADD	W2, W0, W0
	ADDC	W3, W1, W1
;tiempo_rpi.c,27 :: 		return horaRPi;
;tiempo_rpi.c,29 :: 		}
L_end_RecuperarHoraRPI:
	ULNK
	RETURN
; end of _RecuperarHoraRPI

_main:
	MOV	#2048, W15
	MOV	#6142, W0
	MOV	WREG, 32
	MOV	#1, W0
	MOV	WREG, 50
	MOV	#4, W0
	IOR	68

;Acelerografo.c,86 :: 		void main()
;Acelerografo.c,90 :: 		tasaMuestreo = 1;                  // 1=250Hz, 2=125Hz, 4=62.5Hz, 8=31.25Hz
	PUSH	W10
	MOV	#lo_addr(_tasaMuestreo), W1
	MOV.B	#1, W0
	MOV.B	W0, [W1]
;Acelerografo.c,91 :: 		numTMR1 = (tasaMuestreo * 10) - 1; // Calcula el numero de veces que tienen que desbordarse el TMR1 para cada tasa de muestreo
	MOV	#lo_addr(_numTMR1), W1
	MOV.B	#9, W0
	MOV.B	W0, [W1]
;Acelerografo.c,94 :: 		i = 0;
	CLR	W0
	MOV	W0, _i
;Acelerografo.c,95 :: 		j = 0;
	CLR	W0
	MOV	W0, _j
;Acelerografo.c,96 :: 		x = 0;
	CLR	W0
	MOV	W0, _x
;Acelerografo.c,97 :: 		y = 0;
	CLR	W0
	MOV	W0, _y
;Acelerografo.c,100 :: 		bufferSPI = 0; //**
	MOV	#lo_addr(_bufferSPI), W1
	CLR	W0
	MOV.B	W0, [W1]
;Acelerografo.c,101 :: 		banLec = 0;
	MOV	#lo_addr(_banLec), W1
	CLR	W0
	MOV.B	W0, [W1]
;Acelerografo.c,102 :: 		banEsc = 0;
	MOV	#lo_addr(_banEsc), W1
	CLR	W0
	MOV.B	W0, [W1]
;Acelerografo.c,103 :: 		banCiclo = 0;
	MOV	#lo_addr(_banCiclo), W1
	CLR	W0
	MOV.B	W0, [W1]
;Acelerografo.c,104 :: 		banInicioMuestreo = 0;
	MOV	#lo_addr(_banInicioMuestreo), W1
	CLR	W0
	MOV.B	W0, [W1]
;Acelerografo.c,106 :: 		tipoOperacion = 0;
	MOV	#lo_addr(_tipoOperacion), W1
	CLR	W0
	MOV.B	W0, [W1]
;Acelerografo.c,109 :: 		banSPI0 = 0;
	MOV	#lo_addr(_banSPI0), W1
	CLR	W0
	MOV.B	W0, [W1]
;Acelerografo.c,110 :: 		banSPI1 = 0;
	MOV	#lo_addr(_banSPI1), W1
	CLR	W0
	MOV.B	W0, [W1]
;Acelerografo.c,111 :: 		banSPI2 = 0;
	MOV	#lo_addr(_banSPI2), W1
	CLR	W0
	MOV.B	W0, [W1]
;Acelerografo.c,112 :: 		banSPI3 = 0;
	MOV	#lo_addr(_banSPI3), W1
	CLR	W0
	MOV.B	W0, [W1]
;Acelerografo.c,113 :: 		banSPI4 = 0;
	MOV	#lo_addr(_banSPI4), W1
	CLR	W0
	MOV.B	W0, [W1]
;Acelerografo.c,114 :: 		banSPI5 = 0;
	MOV	#lo_addr(_banSPI5), W1
	CLR	W0
	MOV.B	W0, [W1]
;Acelerografo.c,115 :: 		banSPI6 = 0;
	MOV	#lo_addr(_banSPI6), W1
	CLR	W0
	MOV.B	W0, [W1]
;Acelerografo.c,118 :: 		i_gps = 0;
	CLR	W0
	MOV	W0, _i_gps
;Acelerografo.c,119 :: 		byteGPS = 0;
	MOV	#lo_addr(_byteGPS), W1
	CLR	W0
	MOV.B	W0, [W1]
;Acelerografo.c,120 :: 		banGPSI = 0;
	MOV	#lo_addr(_banGPSI), W1
	CLR	W0
	MOV.B	W0, [W1]
;Acelerografo.c,121 :: 		banGPSC = 0;
	MOV	#lo_addr(_banGPSC), W1
	CLR	W0
	MOV.B	W0, [W1]
;Acelerografo.c,124 :: 		banSetReloj = 0;
	MOV	#lo_addr(_banSetReloj), W1
	CLR	W0
	MOV.B	W0, [W1]
;Acelerografo.c,125 :: 		banSyncReloj = 0;
	MOV	#lo_addr(_banSyncReloj), W1
	CLR	W0
	MOV.B	W0, [W1]
;Acelerografo.c,126 :: 		fuenteReloj = 0;
	MOV	#lo_addr(_fuenteReloj), W1
	CLR	W0
	MOV.B	W0, [W1]
;Acelerografo.c,127 :: 		horaSistema = 0;
	CLR	W0
	CLR	W1
	MOV	W0, _horaSistema
	MOV	W1, _horaSistema+2
;Acelerografo.c,128 :: 		fechaSistema = 0;
	CLR	W0
	CLR	W1
	MOV	W0, _fechaSistema
	MOV	W1, _fechaSistema+2
;Acelerografo.c,129 :: 		referenciaTiempo = 0;
	MOV	#lo_addr(_referenciaTiempo), W1
	CLR	W0
	MOV.B	W0, [W1]
;Acelerografo.c,132 :: 		contMuestras = 0;
	MOV	#lo_addr(_contMuestras), W1
	CLR	W0
	MOV.B	W0, [W1]
;Acelerografo.c,133 :: 		contCiclos = 0;
	MOV	#lo_addr(_contCiclos), W1
	CLR	W0
	MOV.B	W0, [W1]
;Acelerografo.c,134 :: 		contFIFO = 0;
	CLR	W0
	MOV	W0, _contFIFO
;Acelerografo.c,135 :: 		numFIFO = 0;
	MOV	#lo_addr(_numFIFO), W1
	CLR	W0
	MOV.B	W0, [W1]
;Acelerografo.c,136 :: 		numSetsFIFO = 0;
	MOV	#lo_addr(_numSetsFIFO), W1
	CLR	W0
	MOV.B	W0, [W1]
;Acelerografo.c,137 :: 		contTimer1 = 0;
	MOV	#lo_addr(_contTimer1), W1
	CLR	W0
	MOV.B	W0, [W1]
;Acelerografo.c,140 :: 		banInicializar = 0;
	MOV	#lo_addr(_banInicializar), W1
	CLR	W0
	MOV.B	W0, [W1]
;Acelerografo.c,143 :: 		RP1 = 0;
	BCLR	LATA4_bit, BitPos(LATA4_bit+0)
;Acelerografo.c,144 :: 		RP2 = 0;
	BCLR	LATB4_bit, BitPos(LATB4_bit+0)
;Acelerografo.c,145 :: 		ledTest = 1;
	BSET	LATB12_bit, BitPos(LATB12_bit+0)
;Acelerografo.c,147 :: 		SPI1BUF = 0x00;
	CLR	SPI1BUF
;Acelerografo.c,150 :: 		ConfiguracionPrincipal();
	CALL	_ConfiguracionPrincipal
;Acelerografo.c,152 :: 		while (1)
L_main49:
;Acelerografo.c,154 :: 		if (banInicializar == 1)
	MOV	#lo_addr(_banInicializar), W0
	MOV.B	[W0], W0
	CP.B	W0, #1
	BRA Z	L__main332
	GOTO	L_main51
L__main332:
;Acelerografo.c,156 :: 		GPS_init();                 // Inicializa el GPS
	CALL	_GPS_init
;Acelerografo.c,157 :: 		DS3234_init();              // inicializa el RTC
	CALL	_DS3234_init
;Acelerografo.c,158 :: 		ADXL355_init(tasaMuestreo); // Inicializa el modulo ADXL con la tasa de muestreo requerida
	MOV	#lo_addr(_tasaMuestreo), W0
	MOV.B	[W0], W10
	CALL	_ADXL355_init
;Acelerografo.c,159 :: 		banInicializar = 0;         // Desactiva la bandera para salir del bucle
	MOV	#lo_addr(_banInicializar), W1
	CLR	W0
	MOV.B	W0, [W1]
;Acelerografo.c,162 :: 		ledTest = ~ledTest;
	BTG	LATB12_bit, BitPos(LATB12_bit+0)
;Acelerografo.c,163 :: 		Delay_ms(150);
	MOV	#19, W8
	MOV	#20362, W7
L_main52:
	DEC	W7
	BRA NZ	L_main52
	DEC	W8
	BRA NZ	L_main52
	NOP
	NOP
	NOP
;Acelerografo.c,164 :: 		ledTest = ~ledTest;
	BTG	LATB12_bit, BitPos(LATB12_bit+0)
;Acelerografo.c,165 :: 		Delay_ms(150);
	MOV	#19, W8
	MOV	#20362, W7
L_main54:
	DEC	W7
	BRA NZ	L_main54
	DEC	W8
	BRA NZ	L_main54
	NOP
	NOP
	NOP
;Acelerografo.c,166 :: 		ledTest = ~ledTest;
	BTG	LATB12_bit, BitPos(LATB12_bit+0)
;Acelerografo.c,167 :: 		Delay_ms(150);
	MOV	#19, W8
	MOV	#20362, W7
L_main56:
	DEC	W7
	BRA NZ	L_main56
	DEC	W8
	BRA NZ	L_main56
	NOP
	NOP
	NOP
;Acelerografo.c,168 :: 		ledTest = ~ledTest;
	BTG	LATB12_bit, BitPos(LATB12_bit+0)
;Acelerografo.c,169 :: 		Delay_ms(150);
	MOV	#19, W8
	MOV	#20362, W7
L_main58:
	DEC	W7
	BRA NZ	L_main58
	DEC	W8
	BRA NZ	L_main58
	NOP
	NOP
	NOP
;Acelerografo.c,170 :: 		ledTest = ~ledTest;
	BTG	LATB12_bit, BitPos(LATB12_bit+0)
;Acelerografo.c,171 :: 		}
L_main51:
;Acelerografo.c,173 :: 		Delay_ms(10);
	MOV	#2, W8
	MOV	#14464, W7
L_main60:
	DEC	W7
	BRA NZ	L_main60
	DEC	W8
	BRA NZ	L_main60
	NOP
	NOP
;Acelerografo.c,174 :: 		}
	GOTO	L_main49
;Acelerografo.c,175 :: 		}
L_end_main:
	POP	W10
L__main_end_loop:
	BRA	L__main_end_loop
; end of _main

_ConfiguracionPrincipal:

;Acelerografo.c,185 :: 		void ConfiguracionPrincipal()
;Acelerografo.c,189 :: 		CLKDIVbits.FRCDIV = 0;   // FIN=FRC/1
	PUSH	W10
	PUSH	W11
	PUSH	W12
	PUSH	W13
	MOV	CLKDIVbits, W1
	MOV	#63743, W0
	AND	W1, W0, W0
	MOV	WREG, CLKDIVbits
;Acelerografo.c,190 :: 		CLKDIVbits.PLLPOST = 0;  // N2=2
	MOV	#lo_addr(CLKDIVbits), W0
	MOV.B	[W0], W1
	MOV.B	#63, W0
	AND.B	W1, W0, W1
	MOV	#lo_addr(CLKDIVbits), W0
	MOV.B	W1, [W0]
;Acelerografo.c,191 :: 		CLKDIVbits.PLLPRE = 5;   // N1=7
	MOV.B	#5, W0
	MOV.B	W0, W1
	MOV	#lo_addr(CLKDIVbits), W0
	XOR.B	W1, [W0], W1
	AND.B	W1, #31, W1
	MOV	#lo_addr(CLKDIVbits), W0
	XOR.B	W1, [W0], W1
	MOV	#lo_addr(CLKDIVbits), W0
	MOV.B	W1, [W0]
;Acelerografo.c,192 :: 		PLLFBDbits.PLLDIV = 150; // M=152
	MOV	#150, W0
	MOV	W0, W1
	MOV	#lo_addr(PLLFBDbits), W0
	XOR	W1, [W0], W1
	MOV	#511, W0
	AND	W1, W0, W1
	MOV	#lo_addr(PLLFBDbits), W0
	XOR	W1, [W0], W1
	MOV	W1, PLLFBDbits
;Acelerografo.c,195 :: 		ANSELA = 0;      // Configura PORTA como digital     *
	CLR	ANSELA
;Acelerografo.c,196 :: 		ANSELB = 0;      // Configura PORTB como digital     *
	CLR	ANSELB
;Acelerografo.c,197 :: 		TRISA0_bit = 0;  // Sensor corriente *no utilizado*
	BCLR	TRISA0_bit, BitPos(TRISA0_bit+0)
;Acelerografo.c,198 :: 		TRISA1_bit = 0;  // Sensor tension *no utilizado*
	BCLR	TRISA1_bit, BitPos(TRISA1_bit+0)
;Acelerografo.c,199 :: 		TRISA2_bit = 0;  // CS1
	BCLR	TRISA2_bit, BitPos(TRISA2_bit+0)
;Acelerografo.c,200 :: 		TRISA3_bit = 0;  // CS2
	BCLR	TRISA3_bit, BitPos(TRISA3_bit+0)
;Acelerografo.c,201 :: 		TRISA4_bit = 0;  // RPI1
	BCLR	TRISA4_bit, BitPos(TRISA4_bit+0)
;Acelerografo.c,202 :: 		TRISB4_bit = 0;  // RPI2
	BCLR	TRISB4_bit, BitPos(TRISB4_bit+0)
;Acelerografo.c,203 :: 		TRISB12_bit = 0; // Led Test
	BCLR	TRISB12_bit, BitPos(TRISB12_bit+0)
;Acelerografo.c,205 :: 		TRISB10_bit = 1; // ADXL1
	BSET	TRISB10_bit, BitPos(TRISB10_bit+0)
;Acelerografo.c,206 :: 		TRISB11_bit = 1; // ADXL2
	BSET	TRISB11_bit, BitPos(TRISB11_bit+0)
;Acelerografo.c,207 :: 		TRISB13_bit = 1; // ADXL3
	BSET	TRISB13_bit, BitPos(TRISB13_bit+0)
;Acelerografo.c,208 :: 		TRISB14_bit = 1; // PPS
	BSET	TRISB14_bit, BitPos(TRISB14_bit+0)
;Acelerografo.c,209 :: 		TRISB15_bit = 1; // SQW
	BSET	TRISB15_bit, BitPos(TRISB15_bit+0)
;Acelerografo.c,212 :: 		INTCON2.GIE = 1; // Habilita las interrupciones globales *
	BSET	INTCON2, #15
;Acelerografo.c,215 :: 		RPINR18bits.U1RXR = 0x22; // Configura el pin RB2/RPI34 como Rx1 *
	MOV.B	#34, W0
	MOV.B	W0, W1
	MOV	#lo_addr(RPINR18bits), W0
	XOR.B	W1, [W0], W1
	MOV.B	#127, W0
	AND.B	W1, W0, W1
	MOV	#lo_addr(RPINR18bits), W0
	XOR.B	W1, [W0], W1
	MOV	#lo_addr(RPINR18bits), W0
	MOV.B	W1, [W0]
;Acelerografo.c,216 :: 		RPOR0bits.RP35R = 0x01;   // Configura el Tx1 en el pin RB3/RP35 *
	MOV	#256, W0
	MOV	W0, W1
	MOV	#lo_addr(RPOR0bits), W0
	XOR	W1, [W0], W1
	MOV	#16128, W0
	AND	W1, W0, W1
	MOV	#lo_addr(RPOR0bits), W0
	XOR	W1, [W0], W1
	MOV	W1, RPOR0bits
;Acelerografo.c,217 :: 		IPC2bits.U1RXIP = 0x04;   // Prioridad de la interrupcion UART1 RX (1-7, 7=>mas alta)
	MOV	#16384, W0
	MOV	W0, W1
	MOV	#lo_addr(IPC2bits), W0
	XOR	W1, [W0], W1
	MOV	#28672, W0
	AND	W1, W0, W1
	MOV	#lo_addr(IPC2bits), W0
	XOR	W1, [W0], W1
	MOV	W1, IPC2bits
;Acelerografo.c,218 :: 		U1RXIF_bit = 0;           // Limpia la bandera de interrupcion por UART1 RX *
	BCLR	U1RXIF_bit, BitPos(U1RXIF_bit+0)
;Acelerografo.c,219 :: 		U1RXIE_bit = 1;           // Habilita la interrupcion por UART1 RX *
	BSET	U1RXIE_bit, BitPos(U1RXIE_bit+0)
;Acelerografo.c,220 :: 		U1STAbits.URXISEL = 0x00; // Interrupt is set when any character is received and transferred from the UxRSR to the receive buffer; receive buffer has one or more characters
	MOV	#lo_addr(U1STAbits), W0
	MOV.B	[W0], W1
	MOV.B	#63, W0
	AND.B	W1, W0, W1
	MOV	#lo_addr(U1STAbits), W0
	MOV.B	W1, [W0]
;Acelerografo.c,221 :: 		UART1_Init(9600);         // Inicializa el UART1 con una velocidad de 9600 baudios
	MOV	#9600, W10
	MOV	#0, W11
	CALL	_UART1_Init
;Acelerografo.c,224 :: 		SPI1STAT.SPIEN = 1;                                                                                                                                                 // Habilita el SPI1 *
	BSET	SPI1STAT, #15
;Acelerografo.c,225 :: 		SPI1_Init_Advanced(_SPI_SLAVE, _SPI_8_BIT, _SPI_PRESCALE_SEC_1, _SPI_PRESCALE_PRI_1, _SPI_SS_ENABLE, _SPI_DATA_SAMPLE_END, _SPI_CLK_IDLE_HIGH, _SPI_ACTIVE_2_IDLE); //*
	MOV	#3, W13
	MOV	#28, W12
	CLR	W11
	CLR	W10
	CLR	W0
	PUSH	W0
	MOV	#64, W0
	PUSH	W0
	MOV	#512, W0
	PUSH	W0
	MOV	#128, W0
	PUSH	W0
	CALL	_SPI1_Init_Advanced
	SUB	#8, W15
;Acelerografo.c,226 :: 		IPC2bits.SPI1IP = 0x03;                                                                                                                                             // Prioridad de la interrupcion SPI1
	MOV	#768, W0
	MOV	W0, W1
	MOV	#lo_addr(IPC2bits), W0
	XOR	W1, [W0], W1
	MOV	#1792, W0
	AND	W1, W0, W1
	MOV	#lo_addr(IPC2bits), W0
	XOR	W1, [W0], W1
	MOV	W1, IPC2bits
;Acelerografo.c,227 :: 		SPI1IF_bit = 0;                                                                                                                                                     // Limpia la bandera de interrupcion por SPI *
	BCLR	SPI1IF_bit, BitPos(SPI1IF_bit+0)
;Acelerografo.c,228 :: 		SPI1IE_bit = 1;                                                                                                                                                     // Habilita la interrupcion por SPI1  *
	BSET	SPI1IE_bit, BitPos(SPI1IE_bit+0)
;Acelerografo.c,231 :: 		RPINR22bits.SDI2R = 0x21; // Configura el pin RB1/RPI33 como SDI2 *
	MOV.B	#33, W0
	MOV.B	W0, W1
	MOV	#lo_addr(RPINR22bits), W0
	XOR.B	W1, [W0], W1
	MOV.B	#127, W0
	AND.B	W1, W0, W1
	MOV	#lo_addr(RPINR22bits), W0
	XOR.B	W1, [W0], W1
	MOV	#lo_addr(RPINR22bits), W0
	MOV.B	W1, [W0]
;Acelerografo.c,232 :: 		RPOR2bits.RP38R = 0x08;   // Configura el SDO2 en el pin RB6/RP38 *
	MOV.B	#8, W0
	MOV.B	W0, W1
	MOV	#lo_addr(RPOR2bits), W0
	XOR.B	W1, [W0], W1
	MOV.B	#63, W0
	AND.B	W1, W0, W1
	MOV	#lo_addr(RPOR2bits), W0
	XOR.B	W1, [W0], W1
	MOV	#lo_addr(RPOR2bits), W0
	MOV.B	W1, [W0]
;Acelerografo.c,233 :: 		RPOR1bits.RP37R = 0x09;   // Configura el SCK2 en el pin RB5/RP37 *
	MOV	#2304, W0
	MOV	W0, W1
	MOV	#lo_addr(RPOR1bits), W0
	XOR	W1, [W0], W1
	MOV	#16128, W0
	AND	W1, W0, W1
	MOV	#lo_addr(RPOR1bits), W0
	XOR	W1, [W0], W1
	MOV	W1, RPOR1bits
;Acelerografo.c,234 :: 		SPI2STAT.SPIEN = 1;       // Habilita el SPI2 *
	BSET	SPI2STAT, #15
;Acelerografo.c,235 :: 		SPI2_Init();              // Inicializa el modulo SPI2
	CALL	_SPI2_Init
;Acelerografo.c,236 :: 		CS_DS3234 = 1;            // Pone en alto el CS del RTC
	BSET	LATA2_bit, BitPos(LATA2_bit+0)
;Acelerografo.c,237 :: 		CS_ADXL355 = 1;           // Pone en alto el CS del acelerometro
	BSET	LATA3_bit, BitPos(LATA3_bit+0)
;Acelerografo.c,240 :: 		ADXL355_write_byte(POWER_CTL, DRDY_OFF | STANDBY); // Coloco el ADXL en modo STANDBY para pausar las conversiones y limpiar el FIFO
	MOV.B	#5, W11
	MOV.B	#45, W10
	CALL	_ADXL355_write_byte
;Acelerografo.c,244 :: 		RPINR0 = 0x2F00;        // Asigna INT1 al RB15/RPI47 (SQW)
	MOV	#12032, W0
	MOV	WREG, RPINR0
;Acelerografo.c,245 :: 		IPC5bits.INT1IP = 0x01; // Prioridad en la interrupcion INT1 (1-7, 7=>mas alta)
	MOV.B	#1, W0
	MOV.B	W0, W1
	MOV	#lo_addr(IPC5bits), W0
	XOR.B	W1, [W0], W1
	AND.B	W1, #7, W1
	MOV	#lo_addr(IPC5bits), W0
	XOR.B	W1, [W0], W1
	MOV	#lo_addr(IPC5bits), W0
	MOV.B	W1, [W0]
;Acelerografo.c,246 :: 		INT1IF_bit = 0;         // Limpia la bandera de interrupcion INT1
	BCLR	INT1IF_bit, BitPos(INT1IF_bit+0)
;Acelerografo.c,247 :: 		INT1IE_bit = 1;         // Habilita la interrupcion INT1
	BSET	INT1IE_bit, BitPos(INT1IE_bit+0)
;Acelerografo.c,250 :: 		T1CON = 0x0020;
	MOV	#32, W0
	MOV	WREG, T1CON
;Acelerografo.c,251 :: 		PR1 = 62500;          // Carga el preload para un tiempo de 100ms
	MOV	#62500, W0
	MOV	WREG, PR1
;Acelerografo.c,252 :: 		T1CON.TON = 0;        // Apaga el Timer1
	BCLR	T1CON, #15
;Acelerografo.c,253 :: 		IPC0bits.T1IP = 0x02; // Prioridad de la interrupcion por desbordamiento del TMR1
	MOV	#8192, W0
	MOV	W0, W1
	MOV	#lo_addr(IPC0bits), W0
	XOR	W1, [W0], W1
	MOV	#28672, W0
	AND	W1, W0, W1
	MOV	#lo_addr(IPC0bits), W0
	XOR	W1, [W0], W1
	MOV	W1, IPC0bits
;Acelerografo.c,254 :: 		T1IF_bit = 0;         // Limpia la bandera de interrupcion del TMR1
	BCLR	T1IF_bit, BitPos(T1IF_bit+0)
;Acelerografo.c,255 :: 		T1IE_bit = 1;         // Habilita la interrupcion de desbordamiento TMR1
	BSET	T1IE_bit, BitPos(T1IE_bit+0)
;Acelerografo.c,258 :: 		Delay_ms(500);
	MOV	#62, W8
	MOV	#2340, W7
L_ConfiguracionPrincipal62:
	DEC	W7
	BRA NZ	L_ConfiguracionPrincipal62
	DEC	W8
	BRA NZ	L_ConfiguracionPrincipal62
	NOP
	NOP
;Acelerografo.c,261 :: 		ledTest = ~ledTest;
	BTG	LATB12_bit, BitPos(LATB12_bit+0)
;Acelerografo.c,262 :: 		Delay_ms(300);
	MOV	#37, W8
	MOV	#40725, W7
L_ConfiguracionPrincipal64:
	DEC	W7
	BRA NZ	L_ConfiguracionPrincipal64
	DEC	W8
	BRA NZ	L_ConfiguracionPrincipal64
	NOP
	NOP
;Acelerografo.c,263 :: 		ledTest = ~ledTest;
	BTG	LATB12_bit, BitPos(LATB12_bit+0)
;Acelerografo.c,264 :: 		Delay_ms(300);
	MOV	#37, W8
	MOV	#40725, W7
L_ConfiguracionPrincipal66:
	DEC	W7
	BRA NZ	L_ConfiguracionPrincipal66
	DEC	W8
	BRA NZ	L_ConfiguracionPrincipal66
	NOP
	NOP
;Acelerografo.c,265 :: 		ledTest = ~ledTest;
	BTG	LATB12_bit, BitPos(LATB12_bit+0)
;Acelerografo.c,268 :: 		banInicializar = 1;
	MOV	#lo_addr(_banInicializar), W1
	MOV.B	#1, W0
	MOV.B	W0, [W1]
;Acelerografo.c,269 :: 		}
L_end_ConfiguracionPrincipal:
	POP	W13
	POP	W12
	POP	W11
	POP	W10
	RETURN
; end of _ConfiguracionPrincipal

_InterrupcionP1:

;Acelerografo.c,275 :: 		void InterrupcionP1(char operacion)
;Acelerografo.c,279 :: 		tipoOperacion = operacion; // Carga en la variable el tipo de operacion requerido
	MOV	#lo_addr(_tipoOperacion), W0
	MOV.B	W10, [W0]
;Acelerografo.c,281 :: 		RP1 = 1;
	BSET	LATA4_bit, BitPos(LATA4_bit+0)
;Acelerografo.c,282 :: 		Delay_us(50);
	MOV	#400, W7
L_InterrupcionP168:
	DEC	W7
	BRA NZ	L_InterrupcionP168
	NOP
	NOP
;Acelerografo.c,283 :: 		RP1 = 0;
	BCLR	LATA4_bit, BitPos(LATA4_bit+0)
;Acelerografo.c,284 :: 		}
L_end_InterrupcionP1:
	RETURN
; end of _InterrupcionP1

_CambiarEstadoBandera:

;Acelerografo.c,290 :: 		void CambiarEstadoBandera(char bandera, char estado)
;Acelerografo.c,294 :: 		if (estado == 0)
	CP.B	W11, #0
	BRA Z	L__CambiarEstadoBandera337
	GOTO	L_CambiarEstadoBandera70
L__CambiarEstadoBandera337:
;Acelerografo.c,296 :: 		banSPI0 = 0;
	MOV	#lo_addr(_banSPI0), W1
	CLR	W0
	MOV.B	W0, [W1]
;Acelerografo.c,297 :: 		banSPI1 = 0;
	MOV	#lo_addr(_banSPI1), W1
	CLR	W0
	MOV.B	W0, [W1]
;Acelerografo.c,298 :: 		banSPI2 = 0;
	MOV	#lo_addr(_banSPI2), W1
	CLR	W0
	MOV.B	W0, [W1]
;Acelerografo.c,299 :: 		banSPI3 = 0;
	MOV	#lo_addr(_banSPI3), W1
	CLR	W0
	MOV.B	W0, [W1]
;Acelerografo.c,300 :: 		banSPI4 = 0;
	MOV	#lo_addr(_banSPI4), W1
	CLR	W0
	MOV.B	W0, [W1]
;Acelerografo.c,301 :: 		banSPI5 = 0;
	MOV	#lo_addr(_banSPI5), W1
	CLR	W0
	MOV.B	W0, [W1]
;Acelerografo.c,302 :: 		banSPI6 = 0;
	MOV	#lo_addr(_banSPI6), W1
	CLR	W0
	MOV.B	W0, [W1]
;Acelerografo.c,303 :: 		}
	GOTO	L_CambiarEstadoBandera71
L_CambiarEstadoBandera70:
;Acelerografo.c,307 :: 		banSPI0 = 0xFF;
	MOV	#lo_addr(_banSPI0), W1
	MOV.B	#255, W0
	MOV.B	W0, [W1]
;Acelerografo.c,308 :: 		banSPI1 = 0xFF;
	MOV	#lo_addr(_banSPI1), W1
	MOV.B	#255, W0
	MOV.B	W0, [W1]
;Acelerografo.c,309 :: 		banSPI2 = 0xFF;
	MOV	#lo_addr(_banSPI2), W1
	MOV.B	#255, W0
	MOV.B	W0, [W1]
;Acelerografo.c,310 :: 		banSPI4 = 0xFF;
	MOV	#lo_addr(_banSPI4), W1
	MOV.B	#255, W0
	MOV.B	W0, [W1]
;Acelerografo.c,311 :: 		banSPI5 = 0xFF;
	MOV	#lo_addr(_banSPI5), W1
	MOV.B	#255, W0
	MOV.B	W0, [W1]
;Acelerografo.c,312 :: 		banSPI6 = 0xFF;
	MOV	#lo_addr(_banSPI6), W1
	MOV.B	#255, W0
	MOV.B	W0, [W1]
;Acelerografo.c,314 :: 		switch (bandera)
	GOTO	L_CambiarEstadoBandera72
;Acelerografo.c,316 :: 		case 0:
L_CambiarEstadoBandera74:
;Acelerografo.c,317 :: 		banSPI0 = estado;
	MOV	#lo_addr(_banSPI0), W0
	MOV.B	W11, [W0]
;Acelerografo.c,318 :: 		break;
	GOTO	L_CambiarEstadoBandera73
;Acelerografo.c,319 :: 		case 1:
L_CambiarEstadoBandera75:
;Acelerografo.c,320 :: 		banSPI1 = estado;
	MOV	#lo_addr(_banSPI1), W0
	MOV.B	W11, [W0]
;Acelerografo.c,321 :: 		break;
	GOTO	L_CambiarEstadoBandera73
;Acelerografo.c,322 :: 		case 2:
L_CambiarEstadoBandera76:
;Acelerografo.c,323 :: 		banSPI2 = estado;
	MOV	#lo_addr(_banSPI2), W0
	MOV.B	W11, [W0]
;Acelerografo.c,324 :: 		break;
	GOTO	L_CambiarEstadoBandera73
;Acelerografo.c,325 :: 		case 3:
L_CambiarEstadoBandera77:
;Acelerografo.c,326 :: 		banSPI3 = estado;
	MOV	#lo_addr(_banSPI3), W0
	MOV.B	W11, [W0]
;Acelerografo.c,327 :: 		break;
	GOTO	L_CambiarEstadoBandera73
;Acelerografo.c,328 :: 		case 4:
L_CambiarEstadoBandera78:
;Acelerografo.c,329 :: 		banSPI4 = estado;
	MOV	#lo_addr(_banSPI4), W0
	MOV.B	W11, [W0]
;Acelerografo.c,330 :: 		break;
	GOTO	L_CambiarEstadoBandera73
;Acelerografo.c,331 :: 		case 5:
L_CambiarEstadoBandera79:
;Acelerografo.c,332 :: 		banSPI5 = estado;
	MOV	#lo_addr(_banSPI5), W0
	MOV.B	W11, [W0]
;Acelerografo.c,333 :: 		break;
	GOTO	L_CambiarEstadoBandera73
;Acelerografo.c,334 :: 		case 6:
L_CambiarEstadoBandera80:
;Acelerografo.c,335 :: 		banSPI6 = estado;
	MOV	#lo_addr(_banSPI6), W0
	MOV.B	W11, [W0]
;Acelerografo.c,336 :: 		break;
	GOTO	L_CambiarEstadoBandera73
;Acelerografo.c,337 :: 		}
L_CambiarEstadoBandera72:
	CP.B	W10, #0
	BRA NZ	L__CambiarEstadoBandera338
	GOTO	L_CambiarEstadoBandera74
L__CambiarEstadoBandera338:
	CP.B	W10, #1
	BRA NZ	L__CambiarEstadoBandera339
	GOTO	L_CambiarEstadoBandera75
L__CambiarEstadoBandera339:
	CP.B	W10, #2
	BRA NZ	L__CambiarEstadoBandera340
	GOTO	L_CambiarEstadoBandera76
L__CambiarEstadoBandera340:
	CP.B	W10, #3
	BRA NZ	L__CambiarEstadoBandera341
	GOTO	L_CambiarEstadoBandera77
L__CambiarEstadoBandera341:
	CP.B	W10, #4
	BRA NZ	L__CambiarEstadoBandera342
	GOTO	L_CambiarEstadoBandera78
L__CambiarEstadoBandera342:
	CP.B	W10, #5
	BRA NZ	L__CambiarEstadoBandera343
	GOTO	L_CambiarEstadoBandera79
L__CambiarEstadoBandera343:
	CP.B	W10, #6
	BRA NZ	L__CambiarEstadoBandera344
	GOTO	L_CambiarEstadoBandera80
L__CambiarEstadoBandera344:
L_CambiarEstadoBandera73:
;Acelerografo.c,338 :: 		}
L_CambiarEstadoBandera71:
;Acelerografo.c,339 :: 		}
L_end_CambiarEstadoBandera:
	RETURN
; end of _CambiarEstadoBandera

_Muestrear:

;Acelerografo.c,345 :: 		void Muestrear()
;Acelerografo.c,347 :: 		if (banCiclo == 0)
	PUSH	W10
	PUSH	W11
	PUSH	W12
	PUSH	W13
	MOV	#lo_addr(_banCiclo), W0
	MOV.B	[W0], W0
	CP.B	W0, #0
	BRA Z	L__Muestrear346
	GOTO	L_Muestrear81
L__Muestrear346:
;Acelerografo.c,351 :: 		T1CON.TON = 1; // Enciende el Timer1
	BSET	T1CON, #15
;Acelerografo.c,352 :: 		}
	GOTO	L_Muestrear82
L_Muestrear81:
;Acelerografo.c,353 :: 		else if (banCiclo == 1)
	MOV	#lo_addr(_banCiclo), W0
	MOV.B	[W0], W0
	CP.B	W0, #1
	BRA Z	L__Muestrear347
	GOTO	L_Muestrear83
L__Muestrear347:
;Acelerografo.c,356 :: 		banCiclo = 2; // Limpia la bandera de ciclo completo
	MOV	#lo_addr(_banCiclo), W1
	MOV.B	#2, W0
	MOV.B	W0, [W1]
;Acelerografo.c,358 :: 		tramaCompleta[0] = contCiclos; // LLena el primer elemento de la tramaCompleta con el contador de ciclos
	MOV	#lo_addr(_tramaCompleta), W1
	MOV	#lo_addr(_contCiclos), W0
	MOV.B	[W0], [W1]
;Acelerografo.c,359 :: 		numFIFO = ADXL355_read_byte(FIFO_ENTRIES);
	MOV.B	#5, W10
	CALL	_ADXL355_read_byte
	MOV	#lo_addr(_numFIFO), W1
	MOV.B	W0, [W1]
;Acelerografo.c,360 :: 		numSetsFIFO = (numFIFO) / 3; // Lee el numero de sets disponibles en el FIFO
	ZE	W0, W0
	MOV	#3, W2
	REPEAT	#17
	DIV.S	W0, W2
	MOV	W0, W1
	MOV	#lo_addr(_numSetsFIFO), W0
	MOV.B	W1, [W0]
;Acelerografo.c,363 :: 		for (x = 0; x < numSetsFIFO; x++)
	CLR	W0
	MOV	W0, _x
L_Muestrear84:
	MOV	#lo_addr(_numSetsFIFO), W0
	ZE	[W0], W1
	MOV	#lo_addr(_x), W0
	CP	W1, [W0]
	BRA GTU	L__Muestrear348
	GOTO	L_Muestrear85
L__Muestrear348:
;Acelerografo.c,365 :: 		ADXL355_read_FIFO(datosLeidos); // Lee una sola posicion del FIFO
	MOV	#lo_addr(_datosLeidos), W10
	CALL	_ADXL355_read_FIFO
;Acelerografo.c,366 :: 		for (y = 0; y < 9; y++)
	CLR	W0
	MOV	W0, _y
L_Muestrear87:
	MOV	_y, W0
	CP	W0, #9
	BRA LTU	L__Muestrear349
	GOTO	L_Muestrear88
L__Muestrear349:
;Acelerografo.c,368 :: 		datosFIFO[y + (x * 9)] = datosLeidos[y]; // LLena la trama datosFIFO
	MOV	_x, W1
	MOV	#9, W0
	MUL.UU	W1, W0, W2
	MOV	#lo_addr(_y), W0
	ADD	W2, [W0], W1
	MOV	#lo_addr(_datosFIFO), W0
	ADD	W0, W1, W2
	MOV	#lo_addr(_datosLeidos), W1
	MOV	#lo_addr(_y), W0
	ADD	W1, [W0], W0
	MOV.B	[W0], [W2]
;Acelerografo.c,366 :: 		for (y = 0; y < 9; y++)
	MOV	#1, W1
	MOV	#lo_addr(_y), W0
	ADD	W1, [W0], [W0]
;Acelerografo.c,369 :: 		}
	GOTO	L_Muestrear87
L_Muestrear88:
;Acelerografo.c,363 :: 		for (x = 0; x < numSetsFIFO; x++)
	MOV	#1, W1
	MOV	#lo_addr(_x), W0
	ADD	W1, [W0], [W0]
;Acelerografo.c,370 :: 		}
	GOTO	L_Muestrear84
L_Muestrear85:
;Acelerografo.c,373 :: 		for (x = 0; x < (numSetsFIFO * 9); x++)
	CLR	W0
	MOV	W0, _x
L_Muestrear90:
	MOV	#lo_addr(_numSetsFIFO), W0
	ZE	[W0], W1
	MOV	#9, W0
	MUL.SS	W1, W0, W2
	MOV	#lo_addr(_x), W0
	CP	W2, [W0]
	BRA GTU	L__Muestrear350
	GOTO	L_Muestrear91
L__Muestrear350:
;Acelerografo.c,375 :: 		if ((x == 0) || (x % 9 == 0))
	MOV	_x, W0
	CP	W0, #0
	BRA NZ	L__Muestrear351
	GOTO	L__Muestrear217
L__Muestrear351:
	MOV	_x, W0
	MOV	#9, W2
	REPEAT	#17
	DIV.U	W0, W2
	MOV	W1, W0
	CP	W0, #0
	BRA NZ	L__Muestrear352
	GOTO	L__Muestrear216
L__Muestrear352:
	GOTO	L_Muestrear95
L__Muestrear217:
L__Muestrear216:
;Acelerografo.c,377 :: 		tramaCompleta[contFIFO + contMuestras + x] = contMuestras; // Funciona bien
	MOV	#lo_addr(_contMuestras), W0
	ZE	[W0], W1
	MOV	#lo_addr(_contFIFO), W0
	ADD	W1, [W0], W1
	MOV	#lo_addr(_x), W0
	ADD	W1, [W0], W1
	MOV	#lo_addr(_tramaCompleta), W0
	ADD	W0, W1, W1
	MOV	#lo_addr(_contMuestras), W0
	MOV.B	[W0], [W1]
;Acelerografo.c,378 :: 		tramaCompleta[contFIFO + contMuestras + x + 1] = datosFIFO[x];
	MOV	#lo_addr(_contMuestras), W0
	ZE	[W0], W1
	MOV	#lo_addr(_contFIFO), W0
	ADD	W1, [W0], W1
	MOV	#lo_addr(_x), W0
	ADD	W1, [W0], W0
	ADD	W0, #1, W1
	MOV	#lo_addr(_tramaCompleta), W0
	ADD	W0, W1, W2
	MOV	#lo_addr(_datosFIFO), W1
	MOV	#lo_addr(_x), W0
	ADD	W1, [W0], W0
	MOV.B	[W0], [W2]
;Acelerografo.c,379 :: 		contMuestras++;
	MOV.B	#1, W1
	MOV	#lo_addr(_contMuestras), W0
	ADD.B	W1, [W0], [W0]
;Acelerografo.c,380 :: 		}
	GOTO	L_Muestrear96
L_Muestrear95:
;Acelerografo.c,383 :: 		tramaCompleta[contFIFO + contMuestras + x] = datosFIFO[x];
	MOV	#lo_addr(_contMuestras), W0
	ZE	[W0], W1
	MOV	#lo_addr(_contFIFO), W0
	ADD	W1, [W0], W1
	MOV	#lo_addr(_x), W0
	ADD	W1, [W0], W1
	MOV	#lo_addr(_tramaCompleta), W0
	ADD	W0, W1, W2
	MOV	#lo_addr(_datosFIFO), W1
	MOV	#lo_addr(_x), W0
	ADD	W1, [W0], W0
	MOV.B	[W0], [W2]
;Acelerografo.c,384 :: 		}
L_Muestrear96:
;Acelerografo.c,373 :: 		for (x = 0; x < (numSetsFIFO * 9); x++)
	MOV	#1, W1
	MOV	#lo_addr(_x), W0
	ADD	W1, [W0], [W0]
;Acelerografo.c,385 :: 		}
	GOTO	L_Muestrear90
L_Muestrear91:
;Acelerografo.c,388 :: 		AjustarTiempoSistema(horaSistema, fechaSistema, tiempo);
	MOV	_fechaSistema, W12
	MOV	_fechaSistema+2, W13
	MOV	_horaSistema, W10
	MOV	_horaSistema+2, W11
	MOV	#lo_addr(_tiempo), W0
	PUSH	W0
	CALL	_AjustarTiempoSistema
	SUB	#2, W15
;Acelerografo.c,389 :: 		for (x = 0; x < 6; x++)
	CLR	W0
	MOV	W0, _x
L_Muestrear97:
	MOV	_x, W0
	CP	W0, #6
	BRA LTU	L__Muestrear353
	GOTO	L_Muestrear98
L__Muestrear353:
;Acelerografo.c,391 :: 		tramaCompleta[2500 + x] = tiempo[x];
	MOV	#2500, W1
	MOV	#lo_addr(_x), W0
	ADD	W1, [W0], W1
	MOV	#lo_addr(_tramaCompleta), W0
	ADD	W0, W1, W2
	MOV	#lo_addr(_tiempo), W1
	MOV	#lo_addr(_x), W0
	ADD	W1, [W0], W0
	MOV.B	[W0], [W2]
;Acelerografo.c,389 :: 		for (x = 0; x < 6; x++)
	MOV	#1, W1
	MOV	#lo_addr(_x), W0
	ADD	W1, [W0], [W0]
;Acelerografo.c,392 :: 		}
	GOTO	L_Muestrear97
L_Muestrear98:
;Acelerografo.c,394 :: 		contMuestras = 0; // Limpia el contador de muestras
	MOV	#lo_addr(_contMuestras), W1
	CLR	W0
	MOV.B	W0, [W1]
;Acelerografo.c,395 :: 		contFIFO = 0;     // Limpia el contador de FIFOs
	CLR	W0
	MOV	W0, _contFIFO
;Acelerografo.c,396 :: 		T1CON.TON = 1;    // Enciende el Timer1
	BSET	T1CON, #15
;Acelerografo.c,401 :: 		CambiarEstadoBandera(3, 1);
	MOV.B	#1, W11
	MOV.B	#3, W10
	CALL	_CambiarEstadoBandera
;Acelerografo.c,403 :: 		tipoOperacion = 0xB1;
	MOV	#lo_addr(_tipoOperacion), W1
	MOV.B	#177, W0
	MOV.B	W0, [W1]
;Acelerografo.c,404 :: 		InterrupcionP1(177); // 0xB1
	MOV.B	#177, W10
	CALL	_InterrupcionP1
;Acelerografo.c,406 :: 		ledTest = 0;
	BCLR	LATB12_bit, BitPos(LATB12_bit+0)
;Acelerografo.c,407 :: 		}
L_Muestrear83:
L_Muestrear82:
;Acelerografo.c,409 :: 		contCiclos++; // Incrementa el contador de ciclos
	MOV.B	#1, W1
	MOV	#lo_addr(_contCiclos), W0
	ADD.B	W1, [W0], [W0]
;Acelerografo.c,410 :: 		}
L_end_Muestrear:
	POP	W13
	POP	W12
	POP	W11
	POP	W10
	RETURN
; end of _Muestrear

_spi_1:
	PUSH	DSWPAG
	PUSH	50
	PUSH	RCOUNT
	PUSH	W0
	MOV	#2, W0
	REPEAT	#12
	PUSH	[W0++]

;Acelerografo.c,422 :: 		void spi_1() org IVT_ADDR_SPI1INTERRUPT
;Acelerografo.c,424 :: 		bufferSPI = SPI1BUF; // Guarda el contenido del bufeer (lectura)
	PUSH	W10
	PUSH	W11
	PUSH	W12
	PUSH	W13
	MOV	#lo_addr(_bufferSPI), W1
	MOV.B	SPI1BUF, WREG
	MOV.B	W0, [W1]
;Acelerografo.c,429 :: 		if ((banSPI0 == 0) && (bufferSPI == 0xA0))
	MOV	#lo_addr(_banSPI0), W0
	MOV.B	[W0], W0
	CP.B	W0, #0
	BRA Z	L__spi_1355
	GOTO	L__spi_1235
L__spi_1355:
	MOV	#lo_addr(_bufferSPI), W0
	MOV.B	[W0], W1
	MOV.B	#160, W0
	CP.B	W1, W0
	BRA Z	L__spi_1356
	GOTO	L__spi_1234
L__spi_1356:
L__spi_1233:
;Acelerografo.c,432 :: 		CambiarEstadoBandera(0, 1);
	MOV.B	#1, W11
	CLR	W10
	CALL	_CambiarEstadoBandera
;Acelerografo.c,433 :: 		SPI1BUF = tipoOperacion; // Carga en el buffer el tipo de operacion requerido
	MOV	#lo_addr(_tipoOperacion), W0
	ZE	[W0], W0
	MOV	WREG, SPI1BUF
;Acelerografo.c,429 :: 		if ((banSPI0 == 0) && (bufferSPI == 0xA0))
L__spi_1235:
L__spi_1234:
;Acelerografo.c,435 :: 		if ((banSPI0 == 1) && (bufferSPI == 0xF0))
	MOV	#lo_addr(_banSPI0), W0
	MOV.B	[W0], W0
	CP.B	W0, #1
	BRA Z	L__spi_1357
	GOTO	L__spi_1237
L__spi_1357:
	MOV	#lo_addr(_bufferSPI), W0
	MOV.B	[W0], W1
	MOV.B	#240, W0
	CP.B	W1, W0
	BRA Z	L__spi_1358
	GOTO	L__spi_1236
L__spi_1358:
L__spi_1232:
;Acelerografo.c,437 :: 		CambiarEstadoBandera(0, 0); // Limpia la bandera
	CLR	W11
	CLR	W10
	CALL	_CambiarEstadoBandera
;Acelerografo.c,438 :: 		tipoOperacion = 0;          // Limpia la variable de tipo de operacion
	MOV	#lo_addr(_tipoOperacion), W1
	CLR	W0
	MOV.B	W0, [W1]
;Acelerografo.c,435 :: 		if ((banSPI0 == 1) && (bufferSPI == 0xF0))
L__spi_1237:
L__spi_1236:
;Acelerografo.c,447 :: 		if ((banSPI1 == 0) && (bufferSPI == 0xA1))
	MOV	#lo_addr(_banSPI1), W0
	MOV.B	[W0], W0
	CP.B	W0, #0
	BRA Z	L__spi_1359
	GOTO	L__spi_1239
L__spi_1359:
	MOV	#lo_addr(_bufferSPI), W0
	MOV.B	[W0], W1
	MOV.B	#161, W0
	CP.B	W1, W0
	BRA Z	L__spi_1360
	GOTO	L__spi_1238
L__spi_1360:
L__spi_1231:
;Acelerografo.c,450 :: 		CambiarEstadoBandera(1, 1);
	MOV.B	#1, W11
	MOV.B	#1, W10
	CALL	_CambiarEstadoBandera
;Acelerografo.c,447 :: 		if ((banSPI1 == 0) && (bufferSPI == 0xA1))
L__spi_1239:
L__spi_1238:
;Acelerografo.c,452 :: 		if ((banSPI1 == 1) && (bufferSPI == 0xF1))
	MOV	#lo_addr(_banSPI1), W0
	MOV.B	[W0], W0
	CP.B	W0, #1
	BRA Z	L__spi_1361
	GOTO	L__spi_1241
L__spi_1361:
	MOV	#lo_addr(_bufferSPI), W0
	MOV.B	[W0], W1
	MOV.B	#241, W0
	CP.B	W1, W0
	BRA Z	L__spi_1362
	GOTO	L__spi_1240
L__spi_1362:
L__spi_1230:
;Acelerografo.c,454 :: 		CambiarEstadoBandera(1, 0);
	CLR	W11
	MOV.B	#1, W10
	CALL	_CambiarEstadoBandera
;Acelerografo.c,456 :: 		banCiclo = 0;
	MOV	#lo_addr(_banCiclo), W1
	CLR	W0
	MOV.B	W0, [W1]
;Acelerografo.c,457 :: 		contMuestras = 0;
	MOV	#lo_addr(_contMuestras), W1
	CLR	W0
	MOV.B	W0, [W1]
;Acelerografo.c,458 :: 		contCiclos = 0;
	MOV	#lo_addr(_contCiclos), W1
	CLR	W0
	MOV.B	W0, [W1]
;Acelerografo.c,459 :: 		contFIFO = 0;
	CLR	W0
	MOV	W0, _contFIFO
;Acelerografo.c,460 :: 		numFIFO = 0;
	MOV	#lo_addr(_numFIFO), W1
	CLR	W0
	MOV.B	W0, [W1]
;Acelerografo.c,461 :: 		numSetsFIFO = 0;
	MOV	#lo_addr(_numSetsFIFO), W1
	CLR	W0
	MOV.B	W0, [W1]
;Acelerografo.c,462 :: 		contTimer1 = 0;
	MOV	#lo_addr(_contTimer1), W1
	CLR	W0
	MOV.B	W0, [W1]
;Acelerografo.c,464 :: 		banInicioMuestreo = 1;
	MOV	#lo_addr(_banInicioMuestreo), W1
	MOV.B	#1, W0
	MOV.B	W0, [W1]
;Acelerografo.c,452 :: 		if ((banSPI1 == 1) && (bufferSPI == 0xF1))
L__spi_1241:
L__spi_1240:
;Acelerografo.c,469 :: 		if ((banSPI3 == 1) && (bufferSPI == 0xA3))
	MOV	#lo_addr(_banSPI3), W0
	MOV.B	[W0], W0
	CP.B	W0, #1
	BRA Z	L__spi_1363
	GOTO	L__spi_1243
L__spi_1363:
	MOV	#lo_addr(_bufferSPI), W0
	MOV.B	[W0], W1
	MOV.B	#163, W0
	CP.B	W1, W0
	BRA Z	L__spi_1364
	GOTO	L__spi_1242
L__spi_1364:
L__spi_1229:
;Acelerografo.c,472 :: 		CambiarEstadoBandera(3, 2);
	MOV.B	#2, W11
	MOV.B	#3, W10
	CALL	_CambiarEstadoBandera
;Acelerografo.c,473 :: 		i = 0;
	CLR	W0
	MOV	W0, _i
;Acelerografo.c,474 :: 		SPI1BUF = tramaCompleta[i];
	MOV	#lo_addr(_tramaCompleta), W1
	MOV	#lo_addr(_i), W0
	ADD	W1, [W0], W0
	MOV.B	[W0], W0
	ZE	W0, W0
	MOV	WREG, SPI1BUF
;Acelerografo.c,469 :: 		if ((banSPI3 == 1) && (bufferSPI == 0xA3))
L__spi_1243:
L__spi_1242:
;Acelerografo.c,476 :: 		if ((banSPI3 == 2) && (bufferSPI != 0xA3) && (bufferSPI != 0xF3))
	MOV	#lo_addr(_banSPI3), W0
	MOV.B	[W0], W0
	CP.B	W0, #2
	BRA Z	L__spi_1365
	GOTO	L__spi_1246
L__spi_1365:
	MOV	#lo_addr(_bufferSPI), W0
	MOV.B	[W0], W1
	MOV.B	#163, W0
	CP.B	W1, W0
	BRA NZ	L__spi_1366
	GOTO	L__spi_1245
L__spi_1366:
	MOV	#lo_addr(_bufferSPI), W0
	MOV.B	[W0], W1
	MOV.B	#243, W0
	CP.B	W1, W0
	BRA NZ	L__spi_1367
	GOTO	L__spi_1244
L__spi_1367:
L__spi_1228:
;Acelerografo.c,478 :: 		SPI1BUF = tramaCompleta[i];
	MOV	#lo_addr(_tramaCompleta), W1
	MOV	#lo_addr(_i), W0
	ADD	W1, [W0], W0
	MOV.B	[W0], W0
	ZE	W0, W0
	MOV	WREG, SPI1BUF
;Acelerografo.c,479 :: 		i++;
	MOV	#1, W1
	MOV	#lo_addr(_i), W0
	ADD	W1, [W0], [W0]
;Acelerografo.c,476 :: 		if ((banSPI3 == 2) && (bufferSPI != 0xA3) && (bufferSPI != 0xF3))
L__spi_1246:
L__spi_1245:
L__spi_1244:
;Acelerografo.c,481 :: 		if ((banLec == 2) && (bufferSPI == 0xF3))
	MOV	#lo_addr(_banLec), W0
	MOV.B	[W0], W0
	CP.B	W0, #2
	BRA Z	L__spi_1368
	GOTO	L__spi_1248
L__spi_1368:
	MOV	#lo_addr(_bufferSPI), W0
	MOV.B	[W0], W1
	MOV.B	#243, W0
	CP.B	W1, W0
	BRA Z	L__spi_1369
	GOTO	L__spi_1247
L__spi_1369:
L__spi_1227:
;Acelerografo.c,485 :: 		SPI1BUF = 0xFF;
	MOV	#255, W0
	MOV	WREG, SPI1BUF
;Acelerografo.c,486 :: 		CambiarEstadoBandera(3, 0);
	CLR	W11
	MOV.B	#3, W10
	CALL	_CambiarEstadoBandera
;Acelerografo.c,481 :: 		if ((banLec == 2) && (bufferSPI == 0xF3))
L__spi_1248:
L__spi_1247:
;Acelerografo.c,496 :: 		if ((banSPI4 == 0) && (bufferSPI == 0xA4))
	MOV	#lo_addr(_banSPI4), W0
	MOV.B	[W0], W0
	CP.B	W0, #0
	BRA Z	L__spi_1370
	GOTO	L__spi_1250
L__spi_1370:
	MOV	#lo_addr(_bufferSPI), W0
	MOV.B	[W0], W1
	MOV.B	#164, W0
	CP.B	W1, W0
	BRA Z	L__spi_1371
	GOTO	L__spi_1249
L__spi_1371:
L__spi_1226:
;Acelerografo.c,498 :: 		CambiarEstadoBandera(4, 1);
	MOV.B	#1, W11
	MOV.B	#4, W10
	CALL	_CambiarEstadoBandera
;Acelerografo.c,499 :: 		j = 0;
	CLR	W0
	MOV	W0, _j
;Acelerografo.c,496 :: 		if ((banSPI4 == 0) && (bufferSPI == 0xA4))
L__spi_1250:
L__spi_1249:
;Acelerografo.c,501 :: 		if ((banSPI4 == 1) && (bufferSPI != 0xA4) && (bufferSPI != 0xF4))
	MOV	#lo_addr(_banSPI4), W0
	MOV.B	[W0], W0
	CP.B	W0, #1
	BRA Z	L__spi_1372
	GOTO	L__spi_1253
L__spi_1372:
	MOV	#lo_addr(_bufferSPI), W0
	MOV.B	[W0], W1
	MOV.B	#164, W0
	CP.B	W1, W0
	BRA NZ	L__spi_1373
	GOTO	L__spi_1252
L__spi_1373:
	MOV	#lo_addr(_bufferSPI), W0
	MOV.B	[W0], W1
	MOV.B	#244, W0
	CP.B	W1, W0
	BRA NZ	L__spi_1374
	GOTO	L__spi_1251
L__spi_1374:
L__spi_1225:
;Acelerografo.c,503 :: 		tiempoRPI[j] = bufferSPI;
	MOV	#lo_addr(_tiempoRPI), W1
	MOV	#lo_addr(_j), W0
	ADD	W1, [W0], W1
	MOV	#lo_addr(_bufferSPI), W0
	MOV.B	[W0], [W1]
;Acelerografo.c,504 :: 		j++;
	MOV	#1, W1
	MOV	#lo_addr(_j), W0
	ADD	W1, [W0], [W0]
;Acelerografo.c,501 :: 		if ((banSPI4 == 1) && (bufferSPI != 0xA4) && (bufferSPI != 0xF4))
L__spi_1253:
L__spi_1252:
L__spi_1251:
;Acelerografo.c,506 :: 		if ((banSPI4 == 1) && (bufferSPI == 0xF4))
	MOV	#lo_addr(_banSPI4), W0
	MOV.B	[W0], W0
	CP.B	W0, #1
	BRA Z	L__spi_1375
	GOTO	L__spi_1255
L__spi_1375:
	MOV	#lo_addr(_bufferSPI), W0
	MOV.B	[W0], W1
	MOV.B	#244, W0
	CP.B	W1, W0
	BRA Z	L__spi_1376
	GOTO	L__spi_1254
L__spi_1376:
L__spi_1224:
;Acelerografo.c,508 :: 		CambiarEstadoBandera(4, 0);
	CLR	W11
	MOV.B	#4, W10
	CALL	_CambiarEstadoBandera
;Acelerografo.c,509 :: 		horaSistema = RecuperarHoraRPI(tiempoRPI);               // Recupera la hora de la RPi
	MOV	#lo_addr(_tiempoRPI), W10
	CALL	_RecuperarHoraRPI
	MOV	W0, _horaSistema
	MOV	W1, _horaSistema+2
;Acelerografo.c,510 :: 		fechaSistema = RecuperarFechaRPI(tiempoRPI);             // Recupera la fecha de la RPi
	MOV	#lo_addr(_tiempoRPI), W10
	CALL	_RecuperarFechaRPI
	MOV	W0, _fechaSistema
	MOV	W1, _fechaSistema+2
;Acelerografo.c,511 :: 		DS3234_setDate(horaSistema, fechaSistema);               // Configura la hora en el RTC
	MOV.D	W0, W12
	MOV	_horaSistema, W10
	MOV	_horaSistema+2, W11
	CALL	_DS3234_setDate
;Acelerografo.c,512 :: 		horaSistema = RecuperarHoraRTC();                        // Recupera la hora del RTC
	CALL	_RecuperarHoraRTC
	MOV	W0, _horaSistema
	MOV	W1, _horaSistema+2
;Acelerografo.c,513 :: 		fechaSistema = RecuperarFechaRTC();                      // Recupera la fecha del RTC
	CALL	_RecuperarFechaRTC
	MOV	W0, _fechaSistema
	MOV	W1, _fechaSistema+2
;Acelerografo.c,514 :: 		AjustarTiempoSistema(horaSistema, fechaSistema, tiempo); // Actualiza los datos de la trama tiempo con la hora y fecha recuperadas
	MOV.D	W0, W12
	MOV	_horaSistema, W10
	MOV	_horaSistema+2, W11
	MOV	#lo_addr(_tiempo), W0
	PUSH	W0
	CALL	_AjustarTiempoSistema
	SUB	#2, W15
;Acelerografo.c,515 :: 		fuenteReloj = 0;                                         // Fuente de reloj = RPi
	MOV	#lo_addr(_fuenteReloj), W1
	CLR	W0
	MOV.B	W0, [W1]
;Acelerografo.c,516 :: 		banSetReloj = 1;                                         // Activa esta bandera para usar la hora/fecha recuperada
	MOV	#lo_addr(_banSetReloj), W1
	MOV.B	#1, W0
	MOV.B	W0, [W1]
;Acelerografo.c,517 :: 		InterrupcionP1(0xB2);                                    // Envia la hora local a la RPi
	MOV.B	#178, W10
	CALL	_InterrupcionP1
;Acelerografo.c,506 :: 		if ((banSPI4 == 1) && (bufferSPI == 0xF4))
L__spi_1255:
L__spi_1254:
;Acelerografo.c,522 :: 		if ((banSPI5 == 0) && (bufferSPI == 0xA5))
	MOV	#lo_addr(_banSPI5), W0
	MOV.B	[W0], W0
	CP.B	W0, #0
	BRA Z	L__spi_1377
	GOTO	L__spi_1257
L__spi_1377:
	MOV	#lo_addr(_bufferSPI), W0
	MOV.B	[W0], W1
	MOV.B	#165, W0
	CP.B	W1, W0
	BRA Z	L__spi_1378
	GOTO	L__spi_1256
L__spi_1378:
L__spi_1223:
;Acelerografo.c,524 :: 		CambiarEstadoBandera(5, 1);
	MOV.B	#1, W11
	MOV.B	#5, W10
	CALL	_CambiarEstadoBandera
;Acelerografo.c,525 :: 		j = 0;
	CLR	W0
	MOV	W0, _j
;Acelerografo.c,526 :: 		SPI1BUF = fuenteReloj; // Envia el indicador de fuente de reloj (0:RTC, 1:GPS)
	MOV	#lo_addr(_fuenteReloj), W0
	ZE	[W0], W0
	MOV	WREG, SPI1BUF
;Acelerografo.c,522 :: 		if ((banSPI5 == 0) && (bufferSPI == 0xA5))
L__spi_1257:
L__spi_1256:
;Acelerografo.c,528 :: 		if ((banSPI5 == 1) && (bufferSPI != 0xA5) && (bufferSPI != 0xF5))
	MOV	#lo_addr(_banSPI5), W0
	MOV.B	[W0], W0
	CP.B	W0, #1
	BRA Z	L__spi_1379
	GOTO	L__spi_1260
L__spi_1379:
	MOV	#lo_addr(_bufferSPI), W0
	MOV.B	[W0], W1
	MOV.B	#165, W0
	CP.B	W1, W0
	BRA NZ	L__spi_1380
	GOTO	L__spi_1259
L__spi_1380:
	MOV	#lo_addr(_bufferSPI), W0
	MOV.B	[W0], W1
	MOV.B	#245, W0
	CP.B	W1, W0
	BRA NZ	L__spi_1381
	GOTO	L__spi_1258
L__spi_1381:
L__spi_1222:
;Acelerografo.c,530 :: 		SPI1BUF = tiempo[j]; // Envia la trama de tiempo
	MOV	#lo_addr(_tiempo), W1
	MOV	#lo_addr(_j), W0
	ADD	W1, [W0], W0
	MOV.B	[W0], W0
	ZE	W0, W0
	MOV	WREG, SPI1BUF
;Acelerografo.c,531 :: 		j++;
	MOV	#1, W1
	MOV	#lo_addr(_j), W0
	ADD	W1, [W0], [W0]
;Acelerografo.c,528 :: 		if ((banSPI5 == 1) && (bufferSPI != 0xA5) && (bufferSPI != 0xF5))
L__spi_1260:
L__spi_1259:
L__spi_1258:
;Acelerografo.c,533 :: 		if ((banSPI5 == 1) && (bufferSPI == 0xF5))
	MOV	#lo_addr(_banSPI5), W0
	MOV.B	[W0], W0
	CP.B	W0, #1
	BRA Z	L__spi_1382
	GOTO	L__spi_1262
L__spi_1382:
	MOV	#lo_addr(_bufferSPI), W0
	MOV.B	[W0], W1
	MOV.B	#245, W0
	CP.B	W1, W0
	BRA Z	L__spi_1383
	GOTO	L__spi_1261
L__spi_1383:
L__spi_1221:
;Acelerografo.c,535 :: 		CambiarEstadoBandera(5, 0);
	CLR	W11
	MOV.B	#5, W10
	CALL	_CambiarEstadoBandera
;Acelerografo.c,536 :: 		SPI1BUF = 0xFF; //**No se que hace esto
	MOV	#255, W0
	MOV	WREG, SPI1BUF
;Acelerografo.c,533 :: 		if ((banSPI5 == 1) && (bufferSPI == 0xF5))
L__spi_1262:
L__spi_1261:
;Acelerografo.c,541 :: 		if ((banSPI6 == 0) && (bufferSPI == 0xA6))
	MOV	#lo_addr(_banSPI6), W0
	MOV.B	[W0], W0
	CP.B	W0, #0
	BRA Z	L__spi_1384
	GOTO	L__spi_1264
L__spi_1384:
	MOV	#lo_addr(_bufferSPI), W0
	MOV.B	[W0], W1
	MOV.B	#166, W0
	CP.B	W1, W0
	BRA Z	L__spi_1385
	GOTO	L__spi_1263
L__spi_1385:
L__spi_1220:
;Acelerografo.c,543 :: 		CambiarEstadoBandera(6, 1);
	MOV.B	#1, W11
	MOV.B	#6, W10
	CALL	_CambiarEstadoBandera
;Acelerografo.c,541 :: 		if ((banSPI6 == 0) && (bufferSPI == 0xA6))
L__spi_1264:
L__spi_1263:
;Acelerografo.c,545 :: 		if ((banSPI6 == 1) && (bufferSPI != 0xA6) && (bufferSPI != 0xF6))
	MOV	#lo_addr(_banSPI6), W0
	MOV.B	[W0], W0
	CP.B	W0, #1
	BRA Z	L__spi_1386
	GOTO	L__spi_1267
L__spi_1386:
	MOV	#lo_addr(_bufferSPI), W0
	MOV.B	[W0], W1
	MOV.B	#166, W0
	CP.B	W1, W0
	BRA NZ	L__spi_1387
	GOTO	L__spi_1266
L__spi_1387:
	MOV	#lo_addr(_bufferSPI), W0
	MOV.B	[W0], W1
	MOV.B	#246, W0
	CP.B	W1, W0
	BRA NZ	L__spi_1388
	GOTO	L__spi_1265
L__spi_1388:
L__spi_1219:
;Acelerografo.c,547 :: 		referenciaTiempo = bufferSPI; // Recupera la opcion de referencia de tiempo solicitada
	MOV	#lo_addr(_referenciaTiempo), W1
	MOV	#lo_addr(_bufferSPI), W0
	MOV.B	[W0], [W1]
;Acelerografo.c,545 :: 		if ((banSPI6 == 1) && (bufferSPI != 0xA6) && (bufferSPI != 0xF6))
L__spi_1267:
L__spi_1266:
L__spi_1265:
;Acelerografo.c,549 :: 		if ((banSPI6 == 1) && (bufferSPI == 0xF6))
	MOV	#lo_addr(_banSPI6), W0
	MOV.B	[W0], W0
	CP.B	W0, #1
	BRA Z	L__spi_1389
	GOTO	L__spi_1269
L__spi_1389:
	MOV	#lo_addr(_bufferSPI), W0
	MOV.B	[W0], W1
	MOV.B	#246, W0
	CP.B	W1, W0
	BRA Z	L__spi_1390
	GOTO	L__spi_1268
L__spi_1390:
L__spi_1218:
;Acelerografo.c,551 :: 		CambiarEstadoBandera(6, 0); // Limpia las banderas
	CLR	W11
	MOV.B	#6, W10
	CALL	_CambiarEstadoBandera
;Acelerografo.c,552 :: 		banSetReloj = 1;            // Activa esta bandera para usar la hora/fecha recuperada
	MOV	#lo_addr(_banSetReloj), W1
	MOV.B	#1, W0
	MOV.B	W0, [W1]
;Acelerografo.c,554 :: 		if (referenciaTiempo == 1)
	MOV	#lo_addr(_referenciaTiempo), W0
	MOV.B	[W0], W0
	CP.B	W0, #1
	BRA Z	L__spi_1391
	GOTO	L_spi_1148
L__spi_1391:
;Acelerografo.c,557 :: 		banGPSI = 1;       // Activa la bandera de inicio de trama  del GPS
	MOV	#lo_addr(_banGPSI), W1
	MOV.B	#1, W0
	MOV.B	W0, [W1]
;Acelerografo.c,558 :: 		banGPSC = 0;       // Limpia la bandera de trama completa
	MOV	#lo_addr(_banGPSC), W1
	CLR	W0
	MOV.B	W0, [W1]
;Acelerografo.c,559 :: 		U1MODE.UARTEN = 1; // Inicializa el UART1
	BSET	U1MODE, #15
;Acelerografo.c,563 :: 		}
	GOTO	L_spi_1149
L_spi_1148:
;Acelerografo.c,567 :: 		horaSistema = RecuperarHoraRTC();                        // Recupera la hora del RTC
	CALL	_RecuperarHoraRTC
	MOV	W0, _horaSistema
	MOV	W1, _horaSistema+2
;Acelerografo.c,568 :: 		fechaSistema = RecuperarFechaRTC();                      // Recupera la fecha del RTC
	CALL	_RecuperarFechaRTC
	MOV	W0, _fechaSistema
	MOV	W1, _fechaSistema+2
;Acelerografo.c,569 :: 		AjustarTiempoSistema(horaSistema, fechaSistema, tiempo); // Actualiza los datos de la trama tiempo con la hora y fecha recuperadas
	MOV.D	W0, W12
	MOV	_horaSistema, W10
	MOV	_horaSistema+2, W11
	MOV	#lo_addr(_tiempo), W0
	PUSH	W0
	CALL	_AjustarTiempoSistema
	SUB	#2, W15
;Acelerografo.c,570 :: 		fuenteReloj = 2;                                         // Fuente de reloj = RTC
	MOV	#lo_addr(_fuenteReloj), W1
	MOV.B	#2, W0
	MOV.B	W0, [W1]
;Acelerografo.c,571 :: 		InterrupcionP1(0xB2);                                    // Envia la hora local a la RPi
	MOV.B	#178, W10
	CALL	_InterrupcionP1
;Acelerografo.c,572 :: 		}
L_spi_1149:
;Acelerografo.c,549 :: 		if ((banSPI6 == 1) && (bufferSPI == 0xF6))
L__spi_1269:
L__spi_1268:
;Acelerografo.c,578 :: 		SPI1IF_bit = 0;
	BCLR	SPI1IF_bit, BitPos(SPI1IF_bit+0)
;Acelerografo.c,580 :: 		}
L_end_spi_1:
	POP	W13
	POP	W12
	POP	W11
	POP	W10
	MOV	#26, W0
	REPEAT	#12
	POP	[W0--]
	POP	W0
	POP	RCOUNT
	POP	50
	POP	DSWPAG
	RETFIE
; end of _spi_1

_int_1:
	PUSH	DSWPAG
	PUSH	50
	PUSH	RCOUNT
	PUSH	W0
	MOV	#2, W0
	REPEAT	#12
	PUSH	[W0++]

;Acelerografo.c,586 :: 		void int_1() org IVT_ADDR_INT1INTERRUPT
;Acelerografo.c,590 :: 		if (banSetReloj == 1)
	MOV	#lo_addr(_banSetReloj), W0
	MOV.B	[W0], W0
	CP.B	W0, #1
	BRA Z	L__int_1393
	GOTO	L_int_1150
L__int_1393:
;Acelerografo.c,592 :: 		ledTest = ~ledTest;
	BTG	LATB12_bit, BitPos(LATB12_bit+0)
;Acelerografo.c,593 :: 		horaSistema++; // Incrementa el reloj del sistema
	MOV	#1, W1
	MOV	#0, W2
	MOV	#lo_addr(_horaSistema), W0
	ADD	W1, [W0], [W0++]
	ADDC	W2, [W0], [W0--]
;Acelerografo.c,594 :: 		}
L_int_1150:
;Acelerografo.c,597 :: 		if (horaSistema == 86400)
	MOV	_horaSistema, W2
	MOV	_horaSistema+2, W3
	MOV	#20864, W0
	MOV	#1, W1
	CP	W2, W0
	CPB	W3, W1
	BRA Z	L__int_1394
	GOTO	L_int_1151
L__int_1394:
;Acelerografo.c,599 :: 		horaSistema = 0;
	CLR	W0
	CLR	W1
	MOV	W0, _horaSistema
	MOV	W1, _horaSistema+2
;Acelerografo.c,600 :: 		}
L_int_1151:
;Acelerografo.c,603 :: 		if (banInicioMuestreo == 1)
	MOV	#lo_addr(_banInicioMuestreo), W0
	MOV.B	[W0], W0
	CP.B	W0, #1
	BRA Z	L__int_1395
	GOTO	L_int_1152
L__int_1395:
;Acelerografo.c,606 :: 		Muestrear();
	CALL	_Muestrear
;Acelerografo.c,607 :: 		}
L_int_1152:
;Acelerografo.c,610 :: 		INT1IF_bit = 0;
	BCLR	INT1IF_bit, BitPos(INT1IF_bit+0)
;Acelerografo.c,611 :: 		}
L_end_int_1:
	MOV	#26, W0
	REPEAT	#12
	POP	[W0--]
	POP	W0
	POP	RCOUNT
	POP	50
	POP	DSWPAG
	RETFIE
; end of _int_1

_Timer1Int:
	PUSH	DSWPAG
	PUSH	50
	PUSH	RCOUNT
	PUSH	W0
	MOV	#2, W0
	REPEAT	#12
	PUSH	[W0++]

;Acelerografo.c,617 :: 		void Timer1Int() org IVT_ADDR_T1INTERRUPT
;Acelerografo.c,619 :: 		numFIFO = ADXL355_read_byte(FIFO_ENTRIES); // 75                            //Lee el numero de muestras disponibles en el FIFO
	PUSH	W10
	MOV.B	#5, W10
	CALL	_ADXL355_read_byte
	MOV	#lo_addr(_numFIFO), W1
	MOV.B	W0, [W1]
;Acelerografo.c,620 :: 		numSetsFIFO = (numFIFO) / 3;               // 25                            //Lee el numero de sets disponibles en el FIFO
	ZE	W0, W0
	MOV	#3, W2
	REPEAT	#17
	DIV.S	W0, W2
	MOV	W0, W1
	MOV	#lo_addr(_numSetsFIFO), W0
	MOV.B	W1, [W0]
;Acelerografo.c,623 :: 		for (x = 0; x < numSetsFIFO; x++)
	CLR	W0
	MOV	W0, _x
L_Timer1Int153:
	MOV	#lo_addr(_numSetsFIFO), W0
	ZE	[W0], W1
	MOV	#lo_addr(_x), W0
	CP	W1, [W0]
	BRA GTU	L__Timer1Int397
	GOTO	L_Timer1Int154
L__Timer1Int397:
;Acelerografo.c,625 :: 		ADXL355_read_FIFO(datosLeidos); // Lee una sola posicion del FIFO
	MOV	#lo_addr(_datosLeidos), W10
	CALL	_ADXL355_read_FIFO
;Acelerografo.c,626 :: 		for (y = 0; y < 9; y++)
	CLR	W0
	MOV	W0, _y
L_Timer1Int156:
	MOV	_y, W0
	CP	W0, #9
	BRA LTU	L__Timer1Int398
	GOTO	L_Timer1Int157
L__Timer1Int398:
;Acelerografo.c,628 :: 		datosFIFO[y + (x * 9)] = datosLeidos[y]; // LLena la trama datosFIFO
	MOV	_x, W1
	MOV	#9, W0
	MUL.UU	W1, W0, W2
	MOV	#lo_addr(_y), W0
	ADD	W2, [W0], W1
	MOV	#lo_addr(_datosFIFO), W0
	ADD	W0, W1, W2
	MOV	#lo_addr(_datosLeidos), W1
	MOV	#lo_addr(_y), W0
	ADD	W1, [W0], W0
	MOV.B	[W0], [W2]
;Acelerografo.c,626 :: 		for (y = 0; y < 9; y++)
	MOV	#1, W1
	MOV	#lo_addr(_y), W0
	ADD	W1, [W0], [W0]
;Acelerografo.c,629 :: 		}
	GOTO	L_Timer1Int156
L_Timer1Int157:
;Acelerografo.c,623 :: 		for (x = 0; x < numSetsFIFO; x++)
	MOV	#1, W1
	MOV	#lo_addr(_x), W0
	ADD	W1, [W0], [W0]
;Acelerografo.c,630 :: 		}
	GOTO	L_Timer1Int153
L_Timer1Int154:
;Acelerografo.c,633 :: 		for (x = 0; x < (numSetsFIFO * 9); x++)
	CLR	W0
	MOV	W0, _x
L_Timer1Int159:
	MOV	#lo_addr(_numSetsFIFO), W0
	ZE	[W0], W1
	MOV	#9, W0
	MUL.SS	W1, W0, W2
	MOV	#lo_addr(_x), W0
	CP	W2, [W0]
	BRA GTU	L__Timer1Int399
	GOTO	L_Timer1Int160
L__Timer1Int399:
;Acelerografo.c,635 :: 		if ((x == 0) || (x % 9 == 0))
	MOV	_x, W0
	CP	W0, #0
	BRA NZ	L__Timer1Int400
	GOTO	L__Timer1Int272
L__Timer1Int400:
	MOV	_x, W0
	MOV	#9, W2
	REPEAT	#17
	DIV.U	W0, W2
	MOV	W1, W0
	CP	W0, #0
	BRA NZ	L__Timer1Int401
	GOTO	L__Timer1Int271
L__Timer1Int401:
	GOTO	L_Timer1Int164
L__Timer1Int272:
L__Timer1Int271:
;Acelerografo.c,637 :: 		tramaCompleta[contFIFO + contMuestras + x] = contMuestras;
	MOV	#lo_addr(_contMuestras), W0
	ZE	[W0], W1
	MOV	#lo_addr(_contFIFO), W0
	ADD	W1, [W0], W1
	MOV	#lo_addr(_x), W0
	ADD	W1, [W0], W1
	MOV	#lo_addr(_tramaCompleta), W0
	ADD	W0, W1, W1
	MOV	#lo_addr(_contMuestras), W0
	MOV.B	[W0], [W1]
;Acelerografo.c,638 :: 		tramaCompleta[contFIFO + contMuestras + x + 1] = datosFIFO[x];
	MOV	#lo_addr(_contMuestras), W0
	ZE	[W0], W1
	MOV	#lo_addr(_contFIFO), W0
	ADD	W1, [W0], W1
	MOV	#lo_addr(_x), W0
	ADD	W1, [W0], W0
	ADD	W0, #1, W1
	MOV	#lo_addr(_tramaCompleta), W0
	ADD	W0, W1, W2
	MOV	#lo_addr(_datosFIFO), W1
	MOV	#lo_addr(_x), W0
	ADD	W1, [W0], W0
	MOV.B	[W0], [W2]
;Acelerografo.c,639 :: 		contMuestras++;
	MOV.B	#1, W1
	MOV	#lo_addr(_contMuestras), W0
	ADD.B	W1, [W0], [W0]
;Acelerografo.c,640 :: 		}
	GOTO	L_Timer1Int165
L_Timer1Int164:
;Acelerografo.c,643 :: 		tramaCompleta[contFIFO + contMuestras + x] = datosFIFO[x];
	MOV	#lo_addr(_contMuestras), W0
	ZE	[W0], W1
	MOV	#lo_addr(_contFIFO), W0
	ADD	W1, [W0], W1
	MOV	#lo_addr(_x), W0
	ADD	W1, [W0], W1
	MOV	#lo_addr(_tramaCompleta), W0
	ADD	W0, W1, W2
	MOV	#lo_addr(_datosFIFO), W1
	MOV	#lo_addr(_x), W0
	ADD	W1, [W0], W0
	MOV.B	[W0], [W2]
;Acelerografo.c,644 :: 		}
L_Timer1Int165:
;Acelerografo.c,633 :: 		for (x = 0; x < (numSetsFIFO * 9); x++)
	MOV	#1, W1
	MOV	#lo_addr(_x), W0
	ADD	W1, [W0], [W0]
;Acelerografo.c,645 :: 		}
	GOTO	L_Timer1Int159
L_Timer1Int160:
;Acelerografo.c,647 :: 		contFIFO = (contMuestras * 9); // Incrementa el contador de FIFOs
	MOV	#lo_addr(_contMuestras), W0
	ZE	[W0], W1
	MOV	#9, W0
	MUL.SS	W1, W0, W0
	MOV	W0, _contFIFO
;Acelerografo.c,649 :: 		contTimer1++; // Incrementa una unidad cada vez que entra a la interrupcion por Timer1
	MOV.B	#1, W1
	MOV	#lo_addr(_contTimer1), W0
	ADD.B	W1, [W0], [W0]
;Acelerografo.c,651 :: 		if (contTimer1 == numTMR1)
	MOV	#lo_addr(_contTimer1), W0
	ZE	[W0], W1
	MOV	#lo_addr(_numTMR1), W0
	SE	[W0], W0
	CP	W1, W0
	BRA Z	L__Timer1Int402
	GOTO	L_Timer1Int166
L__Timer1Int402:
;Acelerografo.c,653 :: 		T1CON.TON = 0;  // Apaga el Timer1
	BCLR	T1CON, #15
;Acelerografo.c,654 :: 		banCiclo = 1;   // Activa la bandera que indica que se completo un ciclo de medicion
	MOV	#lo_addr(_banCiclo), W1
	MOV.B	#1, W0
	MOV.B	W0, [W1]
;Acelerografo.c,655 :: 		contTimer1 = 0; // Limpia el contador de interrupciones por Timer1
	MOV	#lo_addr(_contTimer1), W1
	CLR	W0
	MOV.B	W0, [W1]
;Acelerografo.c,656 :: 		}
L_Timer1Int166:
;Acelerografo.c,659 :: 		T1IF_bit = 0;
	BCLR	T1IF_bit, BitPos(T1IF_bit+0)
;Acelerografo.c,660 :: 		}
L_end_Timer1Int:
	POP	W10
	MOV	#26, W0
	REPEAT	#12
	POP	[W0--]
	POP	W0
	POP	RCOUNT
	POP	50
	POP	DSWPAG
	RETFIE
; end of _Timer1Int

_urx_1:
	PUSH	DSWPAG
	PUSH	50
	PUSH	RCOUNT
	PUSH	W0
	MOV	#2, W0
	REPEAT	#12
	PUSH	[W0++]

;Acelerografo.c,666 :: 		void urx_1() org IVT_ADDR_U1RXINTERRUPT
;Acelerografo.c,670 :: 		byteGPS = U1RXREG; // Lee el byte de la trama enviada por el GPS
	PUSH	W10
	PUSH	W11
	PUSH	W12
	PUSH	W13
	MOV	#lo_addr(_byteGPS), W1
	MOV.B	U1RXREG, WREG
	MOV.B	W0, [W1]
;Acelerografo.c,671 :: 		U1STA.OERR = 0;    // Limpia este bit para limpiar el FIFO UART1
	BCLR	U1STA, #1
;Acelerografo.c,674 :: 		if (banGPSI == 3)
	MOV	#lo_addr(_banGPSI), W0
	MOV.B	[W0], W0
	CP.B	W0, #3
	BRA Z	L__urx_1404
	GOTO	L_urx_1167
L__urx_1404:
;Acelerografo.c,676 :: 		if (byteGPS != 0x2A)
	MOV	#lo_addr(_byteGPS), W0
	MOV.B	[W0], W1
	MOV.B	#42, W0
	CP.B	W1, W0
	BRA NZ	L__urx_1405
	GOTO	L_urx_1168
L__urx_1405:
;Acelerografo.c,678 :: 		tramaGPS[i_gps] = byteGPS; // LLena la tramaGPS hasta recibir el ultimo simbolo ("*") de la trama GPS
	MOV	#lo_addr(_tramaGPS), W1
	MOV	#lo_addr(_i_gps), W0
	ADD	W1, [W0], W1
	MOV	#lo_addr(_byteGPS), W0
	MOV.B	[W0], [W1]
;Acelerografo.c,679 :: 		i_gps++;
	MOV	#1, W1
	MOV	#lo_addr(_i_gps), W0
	ADD	W1, [W0], [W0]
;Acelerografo.c,680 :: 		}
	GOTO	L_urx_1169
L_urx_1168:
;Acelerografo.c,683 :: 		banGPSI = 0; // Limpia la bandera de inicio de trama
	MOV	#lo_addr(_banGPSI), W1
	CLR	W0
	MOV.B	W0, [W1]
;Acelerografo.c,684 :: 		banGPSC = 1; // Activa la bandera de trama completa
	MOV	#lo_addr(_banGPSC), W1
	MOV.B	#1, W0
	MOV.B	W0, [W1]
;Acelerografo.c,685 :: 		}
L_urx_1169:
;Acelerografo.c,686 :: 		}
L_urx_1167:
;Acelerografo.c,689 :: 		if ((banGPSI == 1))
	MOV	#lo_addr(_banGPSI), W0
	MOV.B	[W0], W0
	CP.B	W0, #1
	BRA Z	L__urx_1406
	GOTO	L_urx_1170
L__urx_1406:
;Acelerografo.c,691 :: 		if (byteGPS == 0x24)
	MOV	#lo_addr(_byteGPS), W0
	MOV.B	[W0], W1
	MOV.B	#36, W0
	CP.B	W1, W0
	BRA Z	L__urx_1407
	GOTO	L_urx_1171
L__urx_1407:
;Acelerografo.c,693 :: 		banGPSI = 2;
	MOV	#lo_addr(_banGPSI), W1
	MOV.B	#2, W0
	MOV.B	W0, [W1]
;Acelerografo.c,694 :: 		i_gps = 0;
	CLR	W0
	MOV	W0, _i_gps
;Acelerografo.c,695 :: 		}
L_urx_1171:
;Acelerografo.c,696 :: 		}
L_urx_1170:
;Acelerografo.c,697 :: 		if ((banGPSI == 2) && (i_gps < 6))
	MOV	#lo_addr(_banGPSI), W0
	MOV.B	[W0], W0
	CP.B	W0, #2
	BRA Z	L__urx_1408
	GOTO	L__urx_1277
L__urx_1408:
	MOV	_i_gps, W0
	CP	W0, #6
	BRA LTU	L__urx_1409
	GOTO	L__urx_1276
L__urx_1409:
L__urx_1275:
;Acelerografo.c,699 :: 		tramaGPS[i_gps] = byteGPS; // Recupera los datos de cabecera de la trama GPS: ["$", "G", "P", "R", "M", "C"]
	MOV	#lo_addr(_tramaGPS), W1
	MOV	#lo_addr(_i_gps), W0
	ADD	W1, [W0], W1
	MOV	#lo_addr(_byteGPS), W0
	MOV.B	[W0], [W1]
;Acelerografo.c,700 :: 		i_gps++;
	MOV	#1, W1
	MOV	#lo_addr(_i_gps), W0
	ADD	W1, [W0], [W0]
;Acelerografo.c,697 :: 		if ((banGPSI == 2) && (i_gps < 6))
L__urx_1277:
L__urx_1276:
;Acelerografo.c,702 :: 		if ((banGPSI == 2) && (i_gps == 6))
	MOV	#lo_addr(_banGPSI), W0
	MOV.B	[W0], W0
	CP.B	W0, #2
	BRA Z	L__urx_1410
	GOTO	L__urx_1284
L__urx_1410:
	MOV	_i_gps, W0
	CP	W0, #6
	BRA Z	L__urx_1411
	GOTO	L__urx_1283
L__urx_1411:
L__urx_1274:
;Acelerografo.c,705 :: 		T2CON.TON = 0;
	BCLR	T2CON, #15
;Acelerografo.c,706 :: 		TMR2 = 0;
	CLR	TMR2
;Acelerografo.c,708 :: 		if (tramaGPS[1] == 'G' && tramaGPS[2] == 'P' && tramaGPS[3] == 'R' && tramaGPS[4] == 'M' && tramaGPS[5] == 'C')
	MOV	#lo_addr(_tramaGPS+1), W0
	MOV.B	[W0], W1
	MOV.B	#71, W0
	CP.B	W1, W0
	BRA Z	L__urx_1412
	GOTO	L__urx_1282
L__urx_1412:
	MOV	#lo_addr(_tramaGPS+2), W0
	MOV.B	[W0], W1
	MOV.B	#80, W0
	CP.B	W1, W0
	BRA Z	L__urx_1413
	GOTO	L__urx_1281
L__urx_1413:
	MOV	#lo_addr(_tramaGPS+3), W0
	MOV.B	[W0], W1
	MOV.B	#82, W0
	CP.B	W1, W0
	BRA Z	L__urx_1414
	GOTO	L__urx_1280
L__urx_1414:
	MOV	#lo_addr(_tramaGPS+4), W0
	MOV.B	[W0], W1
	MOV.B	#77, W0
	CP.B	W1, W0
	BRA Z	L__urx_1415
	GOTO	L__urx_1279
L__urx_1415:
	MOV	#lo_addr(_tramaGPS+5), W0
	MOV.B	[W0], W1
	MOV.B	#67, W0
	CP.B	W1, W0
	BRA Z	L__urx_1416
	GOTO	L__urx_1278
L__urx_1416:
L__urx_1273:
;Acelerografo.c,710 :: 		banGPSI = 3;
	MOV	#lo_addr(_banGPSI), W1
	MOV.B	#3, W0
	MOV.B	W0, [W1]
;Acelerografo.c,711 :: 		i_gps = 0;
	CLR	W0
	MOV	W0, _i_gps
;Acelerografo.c,712 :: 		}
	GOTO	L_urx_1181
;Acelerografo.c,708 :: 		if (tramaGPS[1] == 'G' && tramaGPS[2] == 'P' && tramaGPS[3] == 'R' && tramaGPS[4] == 'M' && tramaGPS[5] == 'C')
L__urx_1282:
L__urx_1281:
L__urx_1280:
L__urx_1279:
L__urx_1278:
;Acelerografo.c,715 :: 		banGPSI = 0;
	MOV	#lo_addr(_banGPSI), W1
	CLR	W0
	MOV.B	W0, [W1]
;Acelerografo.c,716 :: 		banGPSC = 0;
	MOV	#lo_addr(_banGPSC), W1
	CLR	W0
	MOV.B	W0, [W1]
;Acelerografo.c,717 :: 		i_gps = 0;
	CLR	W0
	MOV	W0, _i_gps
;Acelerografo.c,719 :: 		horaSistema = RecuperarHoraRTC();                        // Recupera la hora del RTC
	CALL	_RecuperarHoraRTC
	MOV	W0, _horaSistema
	MOV	W1, _horaSistema+2
;Acelerografo.c,720 :: 		fechaSistema = RecuperarFechaRTC();                      // Recupera la fecha del RTC
	CALL	_RecuperarFechaRTC
	MOV	W0, _fechaSistema
	MOV	W1, _fechaSistema+2
;Acelerografo.c,721 :: 		AjustarTiempoSistema(horaSistema, fechaSistema, tiempo); // Actualiza los datos de la trama tiempo con la hora y fecha recuperadas del RTC
	MOV.D	W0, W12
	MOV	_horaSistema, W10
	MOV	_horaSistema+2, W11
	MOV	#lo_addr(_tiempo), W0
	PUSH	W0
	CALL	_AjustarTiempoSistema
	SUB	#2, W15
;Acelerografo.c,722 :: 		fuenteReloj = 4;                                         // Fuente reloj: RTC/E4
	MOV	#lo_addr(_fuenteReloj), W1
	MOV.B	#4, W0
	MOV.B	W0, [W1]
;Acelerografo.c,723 :: 		banSetReloj = 1;
	MOV	#lo_addr(_banSetReloj), W1
	MOV.B	#1, W0
	MOV.B	W0, [W1]
;Acelerografo.c,724 :: 		InterrupcionP1(0xB2); // Envia la hora local a la RPi y a los nodos                                                   //Envia la hora local a la RPi
	MOV.B	#178, W10
	CALL	_InterrupcionP1
;Acelerografo.c,725 :: 		banGPSI = 0;
	MOV	#lo_addr(_banGPSI), W1
	CLR	W0
	MOV.B	W0, [W1]
;Acelerografo.c,726 :: 		banGPSC = 0;
	MOV	#lo_addr(_banGPSC), W1
	CLR	W0
	MOV.B	W0, [W1]
;Acelerografo.c,727 :: 		i_gps = 0;
	CLR	W0
	MOV	W0, _i_gps
;Acelerografo.c,728 :: 		U1MODE.UARTEN = 0; // Desactiva el UART1
	BCLR	U1MODE, #15
;Acelerografo.c,729 :: 		}
L_urx_1181:
;Acelerografo.c,702 :: 		if ((banGPSI == 2) && (i_gps == 6))
L__urx_1284:
L__urx_1283:
;Acelerografo.c,733 :: 		if (banGPSC == 1)
	MOV	#lo_addr(_banGPSC), W0
	MOV.B	[W0], W0
	CP.B	W0, #1
	BRA Z	L__urx_1417
	GOTO	L_urx_1182
L__urx_1417:
;Acelerografo.c,736 :: 		for (x = 0; x < 6; x++)
	CLR	W0
	MOV	W0, _x
L_urx_1183:
	MOV	_x, W0
	CP	W0, #6
	BRA LTU	L__urx_1418
	GOTO	L_urx_1184
L__urx_1418:
;Acelerografo.c,738 :: 		datosGPS[x] = tramaGPS[x + 1]; // Guarda los datos de hhmmss
	MOV	#lo_addr(_datosGPS), W1
	MOV	#lo_addr(_x), W0
	ADD	W1, [W0], W2
	MOV	_x, W0
	ADD	W0, #1, W1
	MOV	#lo_addr(_tramaGPS), W0
	ADD	W0, W1, W0
	MOV.B	[W0], [W2]
;Acelerografo.c,736 :: 		for (x = 0; x < 6; x++)
	MOV	#1, W1
	MOV	#lo_addr(_x), W0
	ADD	W1, [W0], [W0]
;Acelerografo.c,739 :: 		}
	GOTO	L_urx_1183
L_urx_1184:
;Acelerografo.c,741 :: 		for (x = 44; x < 54; x++)
	MOV	#44, W0
	MOV	W0, _x
L_urx_1186:
	MOV	#54, W1
	MOV	#lo_addr(_x), W0
	CP	W1, [W0]
	BRA GTU	L__urx_1419
	GOTO	L_urx_1187
L__urx_1419:
;Acelerografo.c,743 :: 		if (tramaGPS[x] == 0x2C)
	MOV	#lo_addr(_tramaGPS), W1
	MOV	#lo_addr(_x), W0
	ADD	W1, [W0], W0
	MOV.B	[W0], W1
	MOV.B	#44, W0
	CP.B	W1, W0
	BRA Z	L__urx_1420
	GOTO	L_urx_1189
L__urx_1420:
;Acelerografo.c,745 :: 		for (y = 0; y < 6; y++)
	CLR	W0
	MOV	W0, _y
L_urx_1190:
	MOV	_y, W0
	CP	W0, #6
	BRA LTU	L__urx_1421
	GOTO	L_urx_1191
L__urx_1421:
;Acelerografo.c,747 :: 		datosGPS[6 + y] = tramaGPS[x + y + 1]; // Guarda los datos de DDMMAA en la trama datosGPS
	MOV	_y, W0
	ADD	W0, #6, W1
	MOV	#lo_addr(_datosGPS), W0
	ADD	W0, W1, W2
	MOV	_x, W1
	MOV	#lo_addr(_y), W0
	ADD	W1, [W0], W0
	ADD	W0, #1, W1
	MOV	#lo_addr(_tramaGPS), W0
	ADD	W0, W1, W0
	MOV.B	[W0], [W2]
;Acelerografo.c,745 :: 		for (y = 0; y < 6; y++)
	MOV	#1, W1
	MOV	#lo_addr(_y), W0
	ADD	W1, [W0], [W0]
;Acelerografo.c,748 :: 		}
	GOTO	L_urx_1190
L_urx_1191:
;Acelerografo.c,749 :: 		}
L_urx_1189:
;Acelerografo.c,741 :: 		for (x = 44; x < 54; x++)
	MOV	#1, W1
	MOV	#lo_addr(_x), W0
	ADD	W1, [W0], [W0]
;Acelerografo.c,750 :: 		}
	GOTO	L_urx_1186
L_urx_1187:
;Acelerografo.c,751 :: 		horaSistema = RecuperarHoraGPS(datosGPS);                // Recupera la hora del GPS
	MOV	#lo_addr(_datosGPS), W10
	CALL	_RecuperarHoraGPS
	MOV	W0, _horaSistema
	MOV	W1, _horaSistema+2
;Acelerografo.c,752 :: 		fechaSistema = RecuperarFechaGPS(datosGPS);              // Recupera la fecha del GPS
	MOV	#lo_addr(_datosGPS), W10
	CALL	_RecuperarFechaGPS
	MOV	W0, _fechaSistema
	MOV	W1, _fechaSistema+2
;Acelerografo.c,753 :: 		AjustarTiempoSistema(horaSistema, fechaSistema, tiempo); // Actualiza los datos de la trama tiempo con la hora y fecha recuperadas del gps
	MOV.D	W0, W12
	MOV	_horaSistema, W10
	MOV	_horaSistema+2, W11
	MOV	#lo_addr(_tiempo), W0
	PUSH	W0
	CALL	_AjustarTiempoSistema
	SUB	#2, W15
;Acelerografo.c,766 :: 		if (tramaGPS[12] == 0x41)
	MOV	#lo_addr(_tramaGPS+12), W0
	MOV.B	[W0], W1
	MOV.B	#65, W0
	CP.B	W1, W0
	BRA Z	L__urx_1422
	GOTO	L_urx_1193
L__urx_1422:
;Acelerografo.c,768 :: 		fuenteReloj = 1; // Fuente reloj: GPS
	MOV	#lo_addr(_fuenteReloj), W1
	MOV.B	#1, W0
	MOV.B	W0, [W1]
;Acelerografo.c,772 :: 		}
	GOTO	L_urx_1194
L_urx_1193:
;Acelerografo.c,775 :: 		fuenteReloj = 3; // Fuente reloj: GPS/E3
	MOV	#lo_addr(_fuenteReloj), W1
	MOV.B	#3, W0
	MOV.B	W0, [W1]
;Acelerografo.c,779 :: 		}
L_urx_1194:
;Acelerografo.c,780 :: 		banGPSI = 0;
	MOV	#lo_addr(_banGPSI), W1
	CLR	W0
	MOV.B	W0, [W1]
;Acelerografo.c,781 :: 		banGPSC = 0;
	MOV	#lo_addr(_banGPSC), W1
	CLR	W0
	MOV.B	W0, [W1]
;Acelerografo.c,782 :: 		i_gps = 0;
	CLR	W0
	MOV	W0, _i_gps
;Acelerografo.c,783 :: 		banSyncReloj = 1;
	MOV	#lo_addr(_banSyncReloj), W1
	MOV.B	#1, W0
	MOV.B	W0, [W1]
;Acelerografo.c,784 :: 		banSetReloj = 1;
	MOV	#lo_addr(_banSetReloj), W1
	MOV.B	#1, W0
	MOV.B	W0, [W1]
;Acelerografo.c,785 :: 		InterrupcionP1(0xB2); // Envia la hora local a la RPi
	MOV.B	#178, W10
	CALL	_InterrupcionP1
;Acelerografo.c,786 :: 		U1MODE.UARTEN = 0;    // Desactiva el UART1
	BCLR	U1MODE, #15
;Acelerografo.c,787 :: 		}
L_urx_1182:
;Acelerografo.c,790 :: 		U1RXIF_bit = 0;
	BCLR	U1RXIF_bit, BitPos(U1RXIF_bit+0)
;Acelerografo.c,791 :: 		}
L_end_urx_1:
	POP	W13
	POP	W12
	POP	W11
	POP	W10
	MOV	#26, W0
	REPEAT	#12
	POP	[W0--]
	POP	W0
	POP	RCOUNT
	POP	50
	POP	DSWPAG
	RETFIE
; end of _urx_1
