
_ADXL355_init:

;adxl355_spi.c,106 :: 		void ADXL355_init(short tMuestreo){
;adxl355_spi.c,107 :: 		ADXL355_write_byte(Reset,0x52);                                             //Resetea el dispositivo
	PUSH	W10
	PUSH	W11
	PUSH	W10
	MOV.B	#82, W11
	MOV.B	#47, W10
	CALL	_ADXL355_write_byte
;adxl355_spi.c,108 :: 		Delay_ms(10);
	MOV	#2, W8
	MOV	#14464, W7
L_ADXL355_init0:
	DEC	W7
	BRA NZ	L_ADXL355_init0
	DEC	W8
	BRA NZ	L_ADXL355_init0
	NOP
	NOP
;adxl355_spi.c,109 :: 		ADXL355_write_byte(POWER_CTL, DRDY_OFF|STANDBY);
	MOV.B	#5, W11
	MOV.B	#45, W10
	CALL	_ADXL355_write_byte
;adxl355_spi.c,110 :: 		ADXL355_write_byte(Range, _2G);
	MOV.B	#1, W11
	MOV.B	#44, W10
	CALL	_ADXL355_write_byte
	POP	W10
;adxl355_spi.c,111 :: 		switch (tMuestreo){
	GOTO	L_ADXL355_init2
;adxl355_spi.c,112 :: 		case 1:
L_ADXL355_init4:
;adxl355_spi.c,113 :: 		ADXL355_write_byte(Filter, NO_HIGH_PASS_FILTER|_62_5_Hz);       //ODR=250Hz 1
	MOV.B	#4, W11
	MOV.B	#40, W10
	CALL	_ADXL355_write_byte
;adxl355_spi.c,114 :: 		break;
	GOTO	L_ADXL355_init3
;adxl355_spi.c,115 :: 		case 2:
L_ADXL355_init5:
;adxl355_spi.c,116 :: 		ADXL355_write_byte(Filter, NO_HIGH_PASS_FILTER|_31_25_Hz);      //ODR=125Hz 2
	MOV.B	#5, W11
	MOV.B	#40, W10
	CALL	_ADXL355_write_byte
;adxl355_spi.c,117 :: 		break;
	GOTO	L_ADXL355_init3
;adxl355_spi.c,118 :: 		case 4:
L_ADXL355_init6:
;adxl355_spi.c,119 :: 		ADXL355_write_byte(Filter, NO_HIGH_PASS_FILTER|_15_625_Hz);     //ODR=62.5Hz 4
	MOV.B	#6, W11
	MOV.B	#40, W10
	CALL	_ADXL355_write_byte
;adxl355_spi.c,120 :: 		break;
	GOTO	L_ADXL355_init3
;adxl355_spi.c,121 :: 		case 8:
L_ADXL355_init7:
;adxl355_spi.c,122 :: 		ADXL355_write_byte(Filter, NO_HIGH_PASS_FILTER|_7_813_Hz );     //ODR=31.25Hz 8
	MOV.B	#7, W11
	MOV.B	#40, W10
	CALL	_ADXL355_write_byte
;adxl355_spi.c,123 :: 		break;
	GOTO	L_ADXL355_init3
;adxl355_spi.c,124 :: 		}
L_ADXL355_init2:
	CP.B	W10, #1
	BRA NZ	L__ADXL355_init173
	GOTO	L_ADXL355_init4
L__ADXL355_init173:
	CP.B	W10, #2
	BRA NZ	L__ADXL355_init174
	GOTO	L_ADXL355_init5
L__ADXL355_init174:
	CP.B	W10, #4
	BRA NZ	L__ADXL355_init175
	GOTO	L_ADXL355_init6
L__ADXL355_init175:
	CP.B	W10, #8
	BRA NZ	L__ADXL355_init176
	GOTO	L_ADXL355_init7
L__ADXL355_init176:
L_ADXL355_init3:
;adxl355_spi.c,125 :: 		}
L_end_ADXL355_init:
	POP	W11
	POP	W10
	RETURN
; end of _ADXL355_init

_ADXL355_write_byte:

;adxl355_spi.c,128 :: 		void ADXL355_write_byte(unsigned char address, unsigned char value){
;adxl355_spi.c,129 :: 		address = (address<<1)&0xFE;
	PUSH	W10
	ZE	W10, W0
	SL	W0, #1, W1
	MOV	#254, W0
	AND	W1, W0, W0
	MOV.B	W0, W10
;adxl355_spi.c,130 :: 		CS_ADXL355=0;
	BCLR	LATA3_bit, BitPos(LATA3_bit+0)
;adxl355_spi.c,131 :: 		SPI2_Write(address);
	ZE	W0, W10
	CALL	_SPI2_Write
;adxl355_spi.c,132 :: 		SPI2_Write(value);
	ZE	W11, W10
	CALL	_SPI2_Write
;adxl355_spi.c,133 :: 		CS_ADXL355=1;
	BSET	LATA3_bit, BitPos(LATA3_bit+0)
;adxl355_spi.c,134 :: 		}
L_end_ADXL355_write_byte:
	POP	W10
	RETURN
; end of _ADXL355_write_byte

_ADXL355_read_byte:

;adxl355_spi.c,137 :: 		unsigned char ADXL355_read_byte(unsigned char address){
;adxl355_spi.c,138 :: 		unsigned char value = 0x00;
	PUSH	W10
;adxl355_spi.c,139 :: 		address=(address<<1)|0x01;
	ZE	W10, W0
	SL	W0, #1, W0
	IOR	W0, #1, W0
	MOV.B	W0, W10
;adxl355_spi.c,140 :: 		CS_ADXL355=0;
	BCLR	LATA3_bit, BitPos(LATA3_bit+0)
;adxl355_spi.c,141 :: 		SPI2_Write(address);
	ZE	W0, W10
	CALL	_SPI2_Write
;adxl355_spi.c,142 :: 		value=SPI2_Read(0);
	CLR	W10
	CALL	_SPI2_Read
;adxl355_spi.c,143 :: 		CS_ADXL355=1;
	BSET	LATA3_bit, BitPos(LATA3_bit+0)
;adxl355_spi.c,144 :: 		return value;
;adxl355_spi.c,145 :: 		}
;adxl355_spi.c,144 :: 		return value;
;adxl355_spi.c,145 :: 		}
L_end_ADXL355_read_byte:
	POP	W10
	RETURN
; end of _ADXL355_read_byte

_ADXL355_read_data:

;adxl355_spi.c,148 :: 		unsigned int ADXL355_read_data(unsigned char *vectorMuestra){
;adxl355_spi.c,151 :: 		if((ADXL355_read_byte(Status)&0x01)==1){                                 //Verifica que el bit DATA_RDY del registro Status este en alto
	PUSH	W10
	MOV.B	#4, W10
	CALL	_ADXL355_read_byte
	POP	W10
	ZE	W0, W0
	AND	W0, #1, W0
	CP	W0, #1
	BRA Z	L__ADXL355_read_data180
	GOTO	L_ADXL355_read_data8
L__ADXL355_read_data180:
;adxl355_spi.c,152 :: 		CS_ADXL355=0;
	BCLR	LATA3_bit, BitPos(LATA3_bit+0)
;adxl355_spi.c,153 :: 		for (j=0;j<9;j++){
; j start address is: 4 (W2)
	CLR	W2
; j end address is: 4 (W2)
L_ADXL355_read_data9:
; j start address is: 4 (W2)
	CP.B	W2, #9
	BRA LTU	L__ADXL355_read_data181
	GOTO	L_ADXL355_read_data10
L__ADXL355_read_data181:
;adxl355_spi.c,154 :: 		muestra = ADXL355_read_byte(axisAddresses[j]);
	ZE	W2, W1
	MOV	#lo_addr(_axisAddresses), W0
	ADD	W0, W1, W0
	PUSH	W10
	MOV.B	[W0], W10
	CALL	_ADXL355_read_byte
	POP	W10
;adxl355_spi.c,155 :: 		vectorMuestra[j] = muestra;
	ZE	W2, W1
	ADD	W10, W1, W1
	MOV.B	W0, [W1]
;adxl355_spi.c,153 :: 		for (j=0;j<9;j++){
	INC.B	W2
;adxl355_spi.c,156 :: 		}
; j end address is: 4 (W2)
	GOTO	L_ADXL355_read_data9
L_ADXL355_read_data10:
;adxl355_spi.c,157 :: 		CS_ADXL355=1;
	BSET	LATA3_bit, BitPos(LATA3_bit+0)
;adxl355_spi.c,158 :: 		} else {
	GOTO	L_ADXL355_read_data12
L_ADXL355_read_data8:
;adxl355_spi.c,159 :: 		for (j=0;j<9;j++){
; j start address is: 4 (W2)
	CLR	W2
; j end address is: 4 (W2)
L_ADXL355_read_data13:
; j start address is: 4 (W2)
	CP.B	W2, #9
	BRA LTU	L__ADXL355_read_data182
	GOTO	L_ADXL355_read_data14
L__ADXL355_read_data182:
;adxl355_spi.c,160 :: 		vectorMuestra[j] = 0;
	ZE	W2, W0
	ADD	W10, W0, W1
	CLR	W0
	MOV.B	W0, [W1]
;adxl355_spi.c,159 :: 		for (j=0;j<9;j++){
	INC.B	W2
;adxl355_spi.c,161 :: 		}
; j end address is: 4 (W2)
	GOTO	L_ADXL355_read_data13
L_ADXL355_read_data14:
;adxl355_spi.c,162 :: 		}
L_ADXL355_read_data12:
;adxl355_spi.c,163 :: 		return;
;adxl355_spi.c,164 :: 		}
L_end_ADXL355_read_data:
	RETURN
; end of _ADXL355_read_data

_ADXL355_read_FIFO:
	LNK	#2

;adxl355_spi.c,167 :: 		unsigned int ADXL355_read_FIFO(unsigned char *vectorFIFO){
;adxl355_spi.c,170 :: 		CS_ADXL355 = 0;
	PUSH	W10
	BCLR	LATA3_bit, BitPos(LATA3_bit+0)
;adxl355_spi.c,171 :: 		SPI2_Write(add);
	PUSH	W10
	MOV	#35, W10
	CALL	_SPI2_Write
	POP	W10
;adxl355_spi.c,173 :: 		vectorFIFO[0] = SPI2_Read(0);
	MOV	W10, W0
	MOV	W0, [W14+0]
	PUSH	W10
	CLR	W10
	CALL	_SPI2_Read
	POP	W10
	MOV	[W14+0], W1
	MOV.B	W0, [W1]
;adxl355_spi.c,174 :: 		vectorFIFO[1] = SPI2_Read(1);
	ADD	W10, #1, W0
	MOV	W0, [W14+0]
	PUSH	W10
	MOV	#1, W10
	CALL	_SPI2_Read
	POP	W10
	MOV	[W14+0], W1
	MOV.B	W0, [W1]
;adxl355_spi.c,175 :: 		vectorFIFO[2] = SPI2_Read(2);
	ADD	W10, #2, W0
	MOV	W0, [W14+0]
	PUSH	W10
	MOV	#2, W10
	CALL	_SPI2_Read
	POP	W10
	MOV	[W14+0], W1
	MOV.B	W0, [W1]
;adxl355_spi.c,177 :: 		vectorFIFO[3] = SPI2_Read(0);
	ADD	W10, #3, W0
	MOV	W0, [W14+0]
	PUSH	W10
	CLR	W10
	CALL	_SPI2_Read
	POP	W10
	MOV	[W14+0], W1
	MOV.B	W0, [W1]
;adxl355_spi.c,178 :: 		vectorFIFO[4] = SPI2_Read(1);
	ADD	W10, #4, W0
	MOV	W0, [W14+0]
	PUSH	W10
	MOV	#1, W10
	CALL	_SPI2_Read
	POP	W10
	MOV	[W14+0], W1
	MOV.B	W0, [W1]
;adxl355_spi.c,179 :: 		vectorFIFO[5] = SPI2_Read(2);
	ADD	W10, #5, W0
	MOV	W0, [W14+0]
	PUSH	W10
	MOV	#2, W10
	CALL	_SPI2_Read
	POP	W10
	MOV	[W14+0], W1
	MOV.B	W0, [W1]
;adxl355_spi.c,181 :: 		vectorFIFO[6] = SPI2_Read(0);
	ADD	W10, #6, W0
	MOV	W0, [W14+0]
	PUSH	W10
	CLR	W10
	CALL	_SPI2_Read
	POP	W10
	MOV	[W14+0], W1
	MOV.B	W0, [W1]
;adxl355_spi.c,182 :: 		vectorFIFO[7] = SPI2_Read(1);
	ADD	W10, #7, W0
	MOV	W0, [W14+0]
	PUSH	W10
	MOV	#1, W10
	CALL	_SPI2_Read
	POP	W10
	MOV	[W14+0], W1
	MOV.B	W0, [W1]
;adxl355_spi.c,183 :: 		vectorFIFO[8] = SPI2_Read(2);
	ADD	W10, #8, W0
	MOV	W0, [W14+0]
	MOV	#2, W10
	CALL	_SPI2_Read
	MOV	[W14+0], W1
	MOV.B	W0, [W1]
;adxl355_spi.c,184 :: 		CS_ADXL355 = 1;
	BSET	LATA3_bit, BitPos(LATA3_bit+0)
;adxl355_spi.c,185 :: 		Delay_us(5);
	MOV	#40, W7
L_ADXL355_read_FIFO16:
	DEC	W7
	BRA NZ	L_ADXL355_read_FIFO16
	NOP
	NOP
;adxl355_spi.c,187 :: 		}
;adxl355_spi.c,186 :: 		return;
;adxl355_spi.c,187 :: 		}
L_end_ADXL355_read_FIFO:
	POP	W10
	ULNK
	RETURN
; end of _ADXL355_read_FIFO

_ConfigurarGPS:

;tiempo_gps.c,5 :: 		void ConfigurarGPS(){
;tiempo_gps.c,6 :: 		UART1_Write_Text("$PMTK605*31\r\n");
	PUSH	W10
	PUSH	W11
	MOV	#lo_addr(?lstr1_Acelerografo), W10
	CALL	_UART1_Write_Text
;tiempo_gps.c,7 :: 		UART1_Write_Text("$PMTK220,1000*1F\r\n");
	MOV	#lo_addr(?lstr2_Acelerografo), W10
	CALL	_UART1_Write_Text
;tiempo_gps.c,8 :: 		UART1_Write_Text("$PMTK251,115200*1F\r\n");
	MOV	#lo_addr(?lstr3_Acelerografo), W10
	CALL	_UART1_Write_Text
;tiempo_gps.c,9 :: 		Delay_ms(1000);                                                            //Tiempo necesario para que se de efecto el cambio de configuracion
	MOV	#123, W8
	MOV	#4681, W7
L_ConfigurarGPS18:
	DEC	W7
	BRA NZ	L_ConfigurarGPS18
	DEC	W8
	BRA NZ	L_ConfigurarGPS18
;tiempo_gps.c,10 :: 		UART1_Init(115200);
	MOV	#49664, W10
	MOV	#1, W11
	CALL	_UART1_Init
;tiempo_gps.c,11 :: 		UART1_Write_Text("$PMTK313,1*2E\r\n");
	MOV	#lo_addr(?lstr4_Acelerografo), W10
	CALL	_UART1_Write_Text
;tiempo_gps.c,12 :: 		UART1_Write_Text("$PMTK314,0,1,0,0,0,0,0,0,0,0,0,0,0,0,0,0,0*29\r\n");
	MOV	#lo_addr(?lstr5_Acelerografo), W10
	CALL	_UART1_Write_Text
;tiempo_gps.c,13 :: 		UART1_Write_Text("$PMTK319,1*24\r\n");
	MOV	#lo_addr(?lstr6_Acelerografo), W10
	CALL	_UART1_Write_Text
;tiempo_gps.c,14 :: 		UART1_Write_Text("$PMTK413*34\r\n");
	MOV	#lo_addr(?lstr7_Acelerografo), W10
	CALL	_UART1_Write_Text
;tiempo_gps.c,15 :: 		UART1_Write_Text("$PMTK513,1*28\r\n");
	MOV	#lo_addr(?lstr8_Acelerografo), W10
	CALL	_UART1_Write_Text
;tiempo_gps.c,16 :: 		Delay_ms(1000);
	MOV	#123, W8
	MOV	#4681, W7
L_ConfigurarGPS20:
	DEC	W7
	BRA NZ	L_ConfigurarGPS20
	DEC	W8
	BRA NZ	L_ConfigurarGPS20
;tiempo_gps.c,17 :: 		}
L_end_ConfigurarGPS:
	POP	W11
	POP	W10
	RETURN
; end of _ConfigurarGPS

_RecuperarFechaGPS:
	LNK	#28

;tiempo_gps.c,22 :: 		unsigned long RecuperarFechaGPS(unsigned char *tramaDatosGPS){
;tiempo_gps.c,27 :: 		char *ptrDatoStringF = &datoStringF;
	PUSH	W10
	ADD	W14, #16, W4
	MOV	W4, [W14+26]
; ptrDatoStringF start address is: 12 (W6)
	MOV	W4, W6
;tiempo_gps.c,28 :: 		datoStringF[2] = '\0';
	ADD	W4, #2, W1
	CLR	W0
	MOV.B	W0, [W1]
;tiempo_gps.c,29 :: 		tramaFecha[3] = '\0';
	ADD	W14, #0, W3
	MOV	W3, [W14+24]
	ADD	W3, #12, W2
	CLR	W0
	CLR	W1
	MOV.D	W0, [W2]
;tiempo_gps.c,32 :: 		datoStringF[0] = tramaDatosGPS[6];
	ADD	W10, #6, W0
	MOV.B	[W0], [W4]
;tiempo_gps.c,33 :: 		datoStringF[1] = tramaDatosGPS[7];
	ADD	W4, #1, W1
	ADD	W10, #7, W0
	MOV.B	[W0], [W1]
;tiempo_gps.c,34 :: 		tramaFecha[0] =  atoi(ptrDatoStringF);
	MOV	W3, W0
	MOV	W0, [W14+20]
	PUSH	W10
	MOV	W6, W10
	CALL	_atoi
	POP	W10
	MOV	W0, W1
	ASR	W1, #15, W2
	MOV	[W14+20], W0
	MOV	W1, [W0++]
	MOV	W2, [W0--]
;tiempo_gps.c,37 :: 		datoStringF[0] = tramaDatosGPS[8];
	ADD	W10, #8, W1
	MOV	[W14+26], W0
	MOV.B	[W1], [W0]
;tiempo_gps.c,38 :: 		datoStringF[1] = tramaDatosGPS[9];
	ADD	W0, #1, W1
	ADD	W10, #9, W0
	MOV.B	[W0], [W1]
;tiempo_gps.c,39 :: 		tramaFecha[1] = atoi(ptrDatoStringF);
	MOV	[W14+24], W0
	ADD	W0, #4, W0
	MOV	W0, [W14+20]
	PUSH	W10
	MOV	W6, W10
	CALL	_atoi
	POP	W10
	MOV	W0, W1
	ASR	W1, #15, W2
	MOV	[W14+20], W0
	MOV	W1, [W0++]
	MOV	W2, [W0--]
;tiempo_gps.c,42 :: 		datoStringF[0] = tramaDatosGPS[10];
	ADD	W10, #10, W1
	MOV	[W14+26], W0
	MOV.B	[W1], [W0]
;tiempo_gps.c,43 :: 		datoStringF[1] = tramaDatosGPS[11];
	ADD	W0, #1, W1
	ADD	W10, #11, W0
	MOV.B	[W0], [W1]
;tiempo_gps.c,44 :: 		tramaFecha[2] = atoi(ptrDatoStringF);
	MOV	[W14+24], W0
	ADD	W0, #8, W0
	MOV	W0, [W14+20]
	MOV	W6, W10
; ptrDatoStringF end address is: 12 (W6)
	CALL	_atoi
	MOV	W0, W1
	ASR	W1, #15, W2
	MOV	[W14+20], W0
	MOV	W1, [W0++]
	MOV	W2, [W0--]
;tiempo_gps.c,46 :: 		fechaGPS = (tramaFecha[0]*10000)+(tramaFecha[1]*100)+(tramaFecha[2]);      //10000*dd + 100*mm + aa
	MOV	[W14+24], W2
	MOV.D	[W2], W0
	MOV	#10000, W2
	MOV	#0, W3
	CALL	__Multiply_32x32
	MOV	[W14+24], W2
	MOV	W0, [W14+20]
	MOV	W1, [W14+22]
	ADD	W2, #4, W2
	MOV.D	[W2], W0
	MOV	#100, W2
	MOV	#0, W3
	CALL	__Multiply_32x32
	MOV	[W14+20], W2
	MOV	[W14+22], W3
	ADD	W2, W0, W4
	ADDC	W3, W1, W5
	MOV	[W14+24], W0
	ADD	W0, #8, W2
	ADD	W4, [W2++], W0
	ADDC	W5, [W2--], W1
;tiempo_gps.c,48 :: 		return fechaGPS;
;tiempo_gps.c,50 :: 		}
;tiempo_gps.c,48 :: 		return fechaGPS;
;tiempo_gps.c,50 :: 		}
L_end_RecuperarFechaGPS:
	POP	W10
	ULNK
	RETURN
; end of _RecuperarFechaGPS

_RecuperarHoraGPS:
	LNK	#28

;tiempo_gps.c,55 :: 		unsigned long RecuperarHoraGPS(unsigned char *tramaDatosGPS){
;tiempo_gps.c,60 :: 		char *ptrDatoString = &datoString;
	PUSH	W10
	ADD	W14, #16, W4
	MOV	W4, [W14+26]
; ptrDatoString start address is: 12 (W6)
	MOV	W4, W6
;tiempo_gps.c,61 :: 		datoString[2] = '\0';
	ADD	W4, #2, W1
	CLR	W0
	MOV.B	W0, [W1]
;tiempo_gps.c,62 :: 		tramaTiempo[3] = '\0';
	ADD	W14, #0, W3
	MOV	W3, [W14+24]
	ADD	W3, #12, W2
	CLR	W0
	CLR	W1
	MOV.D	W0, [W2]
;tiempo_gps.c,65 :: 		datoString[0] = tramaDatosGPS[0];
	MOV.B	[W10], [W4]
;tiempo_gps.c,66 :: 		datoString[1] = tramaDatosGPS[1];
	ADD	W4, #1, W1
	ADD	W10, #1, W0
	MOV.B	[W0], [W1]
;tiempo_gps.c,67 :: 		tramaTiempo[0] = atoi(ptrDatoString);
	MOV	W3, W0
	MOV	W0, [W14+20]
	PUSH	W10
	MOV	W6, W10
	CALL	_atoi
	POP	W10
	MOV	W0, W1
	ASR	W1, #15, W2
	MOV	[W14+20], W0
	MOV	W1, [W0++]
	MOV	W2, [W0--]
;tiempo_gps.c,70 :: 		datoString[0] = tramaDatosGPS[2];
	ADD	W10, #2, W1
	MOV	[W14+26], W0
	MOV.B	[W1], [W0]
;tiempo_gps.c,71 :: 		datoString[1] = tramaDatosGPS[3];
	ADD	W0, #1, W1
	ADD	W10, #3, W0
	MOV.B	[W0], [W1]
;tiempo_gps.c,72 :: 		tramaTiempo[1] = atoi(ptrDatoString);
	MOV	[W14+24], W0
	ADD	W0, #4, W0
	MOV	W0, [W14+20]
	PUSH	W10
	MOV	W6, W10
	CALL	_atoi
	POP	W10
	MOV	W0, W1
	ASR	W1, #15, W2
	MOV	[W14+20], W0
	MOV	W1, [W0++]
	MOV	W2, [W0--]
;tiempo_gps.c,75 :: 		datoString[0] = tramaDatosGPS[4];
	ADD	W10, #4, W1
	MOV	[W14+26], W0
	MOV.B	[W1], [W0]
;tiempo_gps.c,76 :: 		datoString[1] = tramaDatosGPS[5];
	ADD	W0, #1, W1
	ADD	W10, #5, W0
	MOV.B	[W0], [W1]
;tiempo_gps.c,77 :: 		tramaTiempo[2] = atoi(ptrDatoString);
	MOV	[W14+24], W0
	ADD	W0, #8, W0
	MOV	W0, [W14+20]
	MOV	W6, W10
; ptrDatoString end address is: 12 (W6)
	CALL	_atoi
	MOV	W0, W1
	ASR	W1, #15, W2
	MOV	[W14+20], W0
	MOV	W1, [W0++]
	MOV	W2, [W0--]
;tiempo_gps.c,79 :: 		horaGPS = (tramaTiempo[0]*3600)+(tramaTiempo[1]*60)+(tramaTiempo[2]);      //Calcula el segundo actual = hh*3600 + mm*60 + ss
	MOV	[W14+24], W2
	MOV.D	[W2], W0
	MOV	#3600, W2
	MOV	#0, W3
	CALL	__Multiply_32x32
	MOV	[W14+24], W2
	MOV	W0, [W14+20]
	MOV	W1, [W14+22]
	ADD	W2, #4, W2
	MOV.D	[W2], W0
	MOV	#60, W2
	MOV	#0, W3
	CALL	__Multiply_32x32
	MOV	[W14+20], W2
	MOV	[W14+22], W3
	ADD	W2, W0, W4
	ADDC	W3, W1, W5
	MOV	[W14+24], W0
	ADD	W0, #8, W2
	ADD	W4, [W2++], W0
	ADDC	W5, [W2--], W1
;tiempo_gps.c,80 :: 		return horaGPS;
;tiempo_gps.c,82 :: 		}
;tiempo_gps.c,80 :: 		return horaGPS;
;tiempo_gps.c,82 :: 		}
L_end_RecuperarHoraGPS:
	POP	W10
	ULNK
	RETURN
; end of _RecuperarHoraGPS

_RecuperarFechaRPI:
	LNK	#4

;tiempo_gps.c,87 :: 		unsigned long RecuperarFechaRPI(unsigned short *tramaTiempoRpi){
;tiempo_gps.c,91 :: 		fechaRPi = ((long)tramaTiempoRpi[0]*10000)+((long)tramaTiempoRpi[1]*100)+((long)tramaTiempoRpi[2]);      //10000*dd + 100*mm + aa
	ZE	[W10], W0
	CLR	W1
	MOV	#10000, W2
	MOV	#0, W3
	CALL	__Multiply_32x32
	MOV	W0, [W14+0]
	MOV	W1, [W14+2]
	ADD	W10, #1, W0
	ZE	[W0], W0
	CLR	W1
	MOV	#100, W2
	MOV	#0, W3
	CALL	__Multiply_32x32
	MOV	[W14+0], W2
	MOV	[W14+2], W3
	ADD	W2, W0, W2
	ADDC	W3, W1, W3
	ADD	W10, #2, W0
	ZE	[W0], W0
	CLR	W1
	ADD	W2, W0, W0
	ADDC	W3, W1, W1
;tiempo_gps.c,94 :: 		return fechaRPi;
;tiempo_gps.c,96 :: 		}
L_end_RecuperarFechaRPI:
	ULNK
	RETURN
; end of _RecuperarFechaRPI

_RecuperarHoraRPI:
	LNK	#4

;tiempo_gps.c,101 :: 		unsigned long RecuperarHoraRPI(unsigned short *tramaTiempoRpi){
;tiempo_gps.c,105 :: 		horaRPi = ((long)tramaTiempoRpi[3]*3600)+((long)tramaTiempoRpi[4]*60)+((long)tramaTiempoRpi[5]);      //Calcula el segundo actual = hh*3600 + mm*60 + ss      //10000*dd + 100*mm + aa
	ADD	W10, #3, W0
	ZE	[W0], W0
	CLR	W1
	MOV	#3600, W2
	MOV	#0, W3
	CALL	__Multiply_32x32
	MOV	W0, [W14+0]
	MOV	W1, [W14+2]
	ADD	W10, #4, W0
	ZE	[W0], W0
	CLR	W1
	MOV	#60, W2
	MOV	#0, W3
	CALL	__Multiply_32x32
	MOV	[W14+0], W2
	MOV	[W14+2], W3
	ADD	W2, W0, W2
	ADDC	W3, W1, W3
	ADD	W10, #5, W0
	ZE	[W0], W0
	CLR	W1
	ADD	W2, W0, W0
	ADDC	W3, W1, W1
;tiempo_gps.c,108 :: 		return horaRPi;
;tiempo_gps.c,110 :: 		}
L_end_RecuperarHoraRPI:
	ULNK
	RETURN
; end of _RecuperarHoraRPI

_AjustarTiempoSistema:
	LNK	#14

;tiempo_gps.c,115 :: 		void AjustarTiempoSistema(unsigned long longHora, unsigned long longFecha, unsigned char *tramaTiempoSistema){
	MOV	[W14-8], W0
	MOV	W0, [W14-8]
;tiempo_gps.c,124 :: 		hora = longHora / 3600;
	PUSH.D	W12
	PUSH.D	W10
	MOV	#3600, W2
	MOV	#0, W3
	MOV.D	W10, W0
	CLR	W4
	CALL	__Divide_32x32
	POP.D	W10
	MOV.B	W0, [W14+0]
;tiempo_gps.c,125 :: 		minuto = (longHora%3600) / 60;
	MOV	#3600, W2
	MOV	#0, W3
	MOV.D	W10, W0
	CLR	W4
	CALL	__Modulus_32x32
	MOV	W0, [W14+10]
	MOV	W1, [W14+12]
	MOV	#60, W2
	MOV	#0, W3
	CLR	W4
	CALL	__Divide_32x32
	MOV.B	W0, [W14+1]
;tiempo_gps.c,126 :: 		segundo = (longHora%3600) % 60;
	MOV	[W14+10], W0
	MOV	[W14+12], W1
	MOV	#60, W2
	MOV	#0, W3
	CLR	W4
	CALL	__Modulus_32x32
	POP.D	W12
	MOV.B	W0, [W14+2]
;tiempo_gps.c,128 :: 		dia = longFecha / 10000;
	PUSH.D	W12
	MOV	#10000, W2
	MOV	#0, W3
	MOV.D	W12, W0
	CLR	W4
	CALL	__Divide_32x32
	POP.D	W12
	MOV.B	W0, [W14+3]
;tiempo_gps.c,129 :: 		mes = (longFecha%10000) / 100;
	MOV	#10000, W2
	MOV	#0, W3
	MOV.D	W12, W0
	CLR	W4
	CALL	__Modulus_32x32
	MOV	W0, [W14+10]
	MOV	W1, [W14+12]
	MOV	#100, W2
	MOV	#0, W3
	CLR	W4
	CALL	__Divide_32x32
	MOV.B	W0, [W14+4]
;tiempo_gps.c,130 :: 		anio = (longFecha%10000) % 100;
	MOV	[W14+10], W0
	MOV	[W14+12], W1
	MOV	#100, W2
	MOV	#0, W3
	CLR	W4
	CALL	__Modulus_32x32
; anio start address is: 4 (W2)
	MOV.B	W0, W2
;tiempo_gps.c,132 :: 		tramaTiempoSistema[0] = dia;
	MOV	[W14-8], W1
	MOV.B	[W14+3], W0
	MOV.B	W0, [W1]
;tiempo_gps.c,133 :: 		tramaTiempoSistema[1] = mes;
	MOV	[W14-8], W0
	ADD	W0, #1, W1
	MOV.B	[W14+4], W0
	MOV.B	W0, [W1]
;tiempo_gps.c,134 :: 		tramaTiempoSistema[2] = anio;
	MOV	[W14-8], W0
	INC2	W0
	MOV.B	W2, [W0]
; anio end address is: 4 (W2)
;tiempo_gps.c,135 :: 		tramaTiempoSistema[3] = hora;
	MOV	[W14-8], W0
	ADD	W0, #3, W1
	MOV.B	[W14+0], W0
	MOV.B	W0, [W1]
;tiempo_gps.c,136 :: 		tramaTiempoSistema[4] = minuto;
	MOV	[W14-8], W0
	ADD	W0, #4, W1
	MOV.B	[W14+1], W0
	MOV.B	W0, [W1]
;tiempo_gps.c,137 :: 		tramaTiempoSistema[5] = segundo;
	MOV	[W14-8], W0
	ADD	W0, #5, W1
	MOV.B	[W14+2], W0
	MOV.B	W0, [W1]
;tiempo_gps.c,140 :: 		}
L_end_AjustarTiempoSistema:
	ULNK
	RETURN
; end of _AjustarTiempoSistema

_main:
	MOV	#2048, W15
	MOV	#6142, W0
	MOV	WREG, 32
	MOV	#1, W0
	MOV	WREG, 50
	MOV	#4, W0
	IOR	68

;Acelerografo.c,70 :: 		void main() {
;Acelerografo.c,72 :: 		ConfiguracionPrincipal();
	PUSH	W10
	CALL	_ConfiguracionPrincipal
;Acelerografo.c,73 :: 		ConfigurarGPS();
	CALL	_ConfigurarGPS
;Acelerografo.c,75 :: 		tasaMuestreo = 1;                                                          //1=250Hz, 2=125Hz, 4=62.5Hz, 8=31.25Hz
	MOV	#lo_addr(_tasaMuestreo), W1
	MOV.B	#1, W0
	MOV.B	W0, [W1]
;Acelerografo.c,76 :: 		ADXL355_init(tasaMuestreo);                                                //Inicializa el modulo ADXL con la tasa de muestreo requerida:
	MOV.B	#1, W10
	CALL	_ADXL355_init
;Acelerografo.c,77 :: 		numTMR1 = (tasaMuestreo*10)-1;                                             //Calcula el numero de veces que tienen que desbordarse el TMR1 para cada tasa de muestreo
	MOV	#lo_addr(_tasaMuestreo), W0
	SE	[W0], W1
	MOV	#10, W0
	MUL.UU	W1, W0, W2
	MOV	#lo_addr(_numTMR1), W0
	SUB.B	W2, #1, [W0]
;Acelerografo.c,79 :: 		banTI = 0;
	MOV	#lo_addr(_banTI), W1
	CLR	W0
	MOV.B	W0, [W1]
;Acelerografo.c,80 :: 		banLec = 0;
	MOV	#lo_addr(_banLec), W1
	CLR	W0
	MOV.B	W0, [W1]
;Acelerografo.c,81 :: 		banEsc = 0;
	MOV	#lo_addr(_banEsc), W1
	CLR	W0
	MOV.B	W0, [W1]
;Acelerografo.c,82 :: 		banCiclo = 0;
	MOV	#lo_addr(_banCiclo), W1
	CLR	W0
	MOV.B	W0, [W1]
;Acelerografo.c,83 :: 		banSetReloj = 0;
	MOV	#lo_addr(_banSetReloj), W1
	CLR	W0
	MOV.B	W0, [W1]
;Acelerografo.c,84 :: 		banSetGPS = 0;
	MOV	#lo_addr(_banSetGPS), W1
	CLR	W0
	MOV.B	W0, [W1]
;Acelerografo.c,85 :: 		banTIGPS = 0;
	MOV	#lo_addr(_banTIGPS), W1
	CLR	W0
	MOV.B	W0, [W1]
;Acelerografo.c,86 :: 		banTFGPS = 0;
	MOV	#lo_addr(_banTFGPS), W1
	CLR	W0
	MOV.B	W0, [W1]
;Acelerografo.c,87 :: 		banTCGPS = 0;
	MOV	#lo_addr(_banTCGPS), W1
	CLR	W0
	MOV.B	W0, [W1]
;Acelerografo.c,89 :: 		banMuestrear = 0;                                                          //Inicia el programa con esta bandera en bajo para permitir que la RPi envie la peticion de inicio de muestreo
	MOV	#lo_addr(_banMuestrear), W1
	CLR	W0
	MOV.B	W0, [W1]
;Acelerografo.c,90 :: 		banInicio = 0;                                                             //Bandera de inicio de muestreo
	MOV	#lo_addr(_banInicio), W1
	CLR	W0
	MOV.B	W0, [W1]
;Acelerografo.c,91 :: 		banLeer = 0;
	MOV	#lo_addr(_banLeer), W1
	CLR	W0
	MOV.B	W0, [W1]
;Acelerografo.c,92 :: 		banConf = 0;
	MOV	#lo_addr(_banConf), W1
	CLR	W0
	MOV.B	W0, [W1]
;Acelerografo.c,94 :: 		i = 0;
	CLR	W0
	MOV	W0, _i
;Acelerografo.c,95 :: 		x = 0;
	CLR	W0
	MOV	W0, _x
;Acelerografo.c,96 :: 		y = 0;
	CLR	W0
	MOV	W0, _y
;Acelerografo.c,97 :: 		i_gps = 0;
	CLR	W0
	MOV	W0, _i_gps
;Acelerografo.c,98 :: 		horaSistema = 0;
	CLR	W0
	CLR	W1
	MOV	W0, _horaSistema
	MOV	W1, _horaSistema+2
;Acelerografo.c,100 :: 		contMuestras = 0;
	MOV	#lo_addr(_contMuestras), W1
	CLR	W0
	MOV.B	W0, [W1]
;Acelerografo.c,101 :: 		contCiclos = 0;
	MOV	#lo_addr(_contCiclos), W1
	CLR	W0
	MOV.B	W0, [W1]
;Acelerografo.c,102 :: 		contFIFO = 0;
	CLR	W0
	MOV	W0, _contFIFO
;Acelerografo.c,103 :: 		numFIFO = 0;
	MOV	#lo_addr(_numFIFO), W1
	CLR	W0
	MOV.B	W0, [W1]
;Acelerografo.c,104 :: 		numSetsFIFO = 0;
	MOV	#lo_addr(_numSetsFIFO), W1
	CLR	W0
	MOV.B	W0, [W1]
;Acelerografo.c,105 :: 		contTimer1 = 0;
	MOV	#lo_addr(_contTimer1), W1
	CLR	W0
	MOV.B	W0, [W1]
;Acelerografo.c,107 :: 		byteGPS = 0;
	MOV	#lo_addr(_byteGPS), W1
	CLR	W0
	MOV.B	W0, [W1]
;Acelerografo.c,109 :: 		RP1 = 0;
	BCLR	LATA4_bit, BitPos(LATA4_bit+0)
;Acelerografo.c,110 :: 		RP2 = 0;
	BCLR	LATB4_bit, BitPos(LATB4_bit+0)
;Acelerografo.c,111 :: 		TEST = 1;
	BSET	LATB12_bit, BitPos(LATB12_bit+0)
;Acelerografo.c,113 :: 		SPI1BUF = 0x00;
	CLR	SPI1BUF
;Acelerografo.c,115 :: 		while(1){
L_main22:
;Acelerografo.c,117 :: 		}
	GOTO	L_main22
;Acelerografo.c,119 :: 		}
L_end_main:
	POP	W10
L__main_end_loop:
	BRA	L__main_end_loop
; end of _main

_ConfiguracionPrincipal:

;Acelerografo.c,128 :: 		void ConfiguracionPrincipal(){
;Acelerografo.c,131 :: 		CLKDIVbits.FRCDIV = 0;                                                     //FIN=FRC/1
	PUSH	W10
	PUSH	W11
	PUSH	W12
	PUSH	W13
	MOV	CLKDIVbits, W1
	MOV	#63743, W0
	AND	W1, W0, W0
	MOV	WREG, CLKDIVbits
;Acelerografo.c,132 :: 		CLKDIVbits.PLLPOST = 0;                                                    //N2=2
	MOV	#lo_addr(CLKDIVbits), W0
	MOV.B	[W0], W1
	MOV.B	#63, W0
	AND.B	W1, W0, W1
	MOV	#lo_addr(CLKDIVbits), W0
	MOV.B	W1, [W0]
;Acelerografo.c,133 :: 		CLKDIVbits.PLLPRE = 5;                                                     //N1=7
	MOV.B	#5, W0
	MOV.B	W0, W1
	MOV	#lo_addr(CLKDIVbits), W0
	XOR.B	W1, [W0], W1
	AND.B	W1, #31, W1
	MOV	#lo_addr(CLKDIVbits), W0
	XOR.B	W1, [W0], W1
	MOV	#lo_addr(CLKDIVbits), W0
	MOV.B	W1, [W0]
;Acelerografo.c,134 :: 		PLLFBDbits.PLLDIV = 150;                                                   //M=152
	MOV	#150, W0
	MOV	W0, W1
	MOV	#lo_addr(PLLFBDbits), W0
	XOR	W1, [W0], W1
	MOV	#511, W0
	AND	W1, W0, W1
	MOV	#lo_addr(PLLFBDbits), W0
	XOR	W1, [W0], W1
	MOV	W1, PLLFBDbits
;Acelerografo.c,137 :: 		ANSELA = 0;                                                                //Configura PORTA como digital     *
	CLR	ANSELA
;Acelerografo.c,138 :: 		ANSELB = 0;                                                                //Configura PORTB como digital     *
	CLR	ANSELB
;Acelerografo.c,139 :: 		TRISA3_bit = 0;                                                            //Configura el pin A3 como salida  *
	BCLR	TRISA3_bit, BitPos(TRISA3_bit+0)
;Acelerografo.c,140 :: 		TRISA4_bit = 0;                                                            //Configura el pin A4 como salida  *
	BCLR	TRISA4_bit, BitPos(TRISA4_bit+0)
;Acelerografo.c,141 :: 		TRISB4_bit = 0;                                                            //Configura el pin B4 como salida  *
	BCLR	TRISB4_bit, BitPos(TRISB4_bit+0)
;Acelerografo.c,142 :: 		TRISB12_bit = 0;                                                           //Configura el pin B12 como salida *
	BCLR	TRISB12_bit, BitPos(TRISB12_bit+0)
;Acelerografo.c,143 :: 		TRISB10_bit = 1;                                                           //Configura el pin B10 como entrada *
	BSET	TRISB10_bit, BitPos(TRISB10_bit+0)
;Acelerografo.c,144 :: 		TRISB11_bit = 1;                                                           //Configura el pin B11 como entrada *
	BSET	TRISB11_bit, BitPos(TRISB11_bit+0)
;Acelerografo.c,145 :: 		TRISB13_bit = 1;                                                           //Configura el pin B13 como entrada *
	BSET	TRISB13_bit, BitPos(TRISB13_bit+0)
;Acelerografo.c,146 :: 		INTCON2.GIE = 1;                                                           //Habilita las interrupciones globales *
	BSET	INTCON2, #15
;Acelerografo.c,149 :: 		RPINR18bits.U1RXR = 0x22;                                                  //Configura el pin RB2/RPI34 como Rx1 *
	MOV.B	#34, W0
	MOV.B	W0, W1
	MOV	#lo_addr(RPINR18bits), W0
	XOR.B	W1, [W0], W1
	MOV.B	#127, W0
	AND.B	W1, W0, W1
	MOV	#lo_addr(RPINR18bits), W0
	XOR.B	W1, [W0], W1
	MOV	#lo_addr(RPINR18bits), W0
	MOV.B	W1, [W0]
;Acelerografo.c,150 :: 		RPOR0bits.RP35R = 0x01;                                                    //Configura el Tx1 en el pin RB3/RP35 *
	MOV	#256, W0
	MOV	W0, W1
	MOV	#lo_addr(RPOR0bits), W0
	XOR	W1, [W0], W1
	MOV	#16128, W0
	AND	W1, W0, W1
	MOV	#lo_addr(RPOR0bits), W0
	XOR	W1, [W0], W1
	MOV	W1, RPOR0bits
;Acelerografo.c,151 :: 		UART1_Init(9600);                                                          //Inicializa el UART1 con una velocidad de 9600 baudios
	MOV	#9600, W10
	MOV	#0, W11
	CALL	_UART1_Init
;Acelerografo.c,152 :: 		U1RXIE_bit = 0;                                                            //Desabilita la interrupcion por UART1 RX *
	BCLR	U1RXIE_bit, BitPos(U1RXIE_bit+0)
;Acelerografo.c,153 :: 		U1RXIF_bit = 0;                                                            //Limpia la bandera de interrupcion por UART1 RX *
	BCLR	U1RXIF_bit, BitPos(U1RXIF_bit+0)
;Acelerografo.c,154 :: 		IPC2bits.U1RXIP = 0x04;                                                    //Prioridad de la interrupcion UART1 RX
	MOV	#16384, W0
	MOV	W0, W1
	MOV	#lo_addr(IPC2bits), W0
	XOR	W1, [W0], W1
	MOV	#28672, W0
	AND	W1, W0, W1
	MOV	#lo_addr(IPC2bits), W0
	XOR	W1, [W0], W1
	MOV	W1, IPC2bits
;Acelerografo.c,155 :: 		U1STAbits.URXISEL = 0x00;
	MOV	#lo_addr(U1STAbits), W0
	MOV.B	[W0], W1
	MOV.B	#63, W0
	AND.B	W1, W0, W1
	MOV	#lo_addr(U1STAbits), W0
	MOV.B	W1, [W0]
;Acelerografo.c,158 :: 		SPI1STAT.SPIEN = 1;                                                        //Habilita el SPI1 *
	BSET	SPI1STAT, #15
;Acelerografo.c,159 :: 		SPI1_Init_Advanced(_SPI_SLAVE, _SPI_8_BIT, _SPI_PRESCALE_SEC_1, _SPI_PRESCALE_PRI_1, _SPI_SS_ENABLE, _SPI_DATA_SAMPLE_END, _SPI_CLK_IDLE_HIGH, _SPI_ACTIVE_2_IDLE);        //*
	MOV	#3, W13
	MOV	#28, W12
	CLR	W11
	CLR	W10
	CLR	W0
	PUSH	W0
	MOV	#64, W0
	PUSH	W0
	MOV	#512, W0
	PUSH	W0
	MOV	#128, W0
	PUSH	W0
	CALL	_SPI1_Init_Advanced
	SUB	#8, W15
;Acelerografo.c,160 :: 		SPI1IE_bit = 1;                                                            //Habilita la interrupcion por SPI1  *
	BSET	SPI1IE_bit, BitPos(SPI1IE_bit+0)
;Acelerografo.c,161 :: 		SPI1IF_bit = 0;                                                            //Limpia la bandera de interrupcion por SPI *
	BCLR	SPI1IF_bit, BitPos(SPI1IF_bit+0)
;Acelerografo.c,162 :: 		IPC2bits.SPI1IP = 0x03;                                                    //Prioridad de la interrupcion SPI1
	MOV	#768, W0
	MOV	W0, W1
	MOV	#lo_addr(IPC2bits), W0
	XOR	W1, [W0], W1
	MOV	#1792, W0
	AND	W1, W0, W1
	MOV	#lo_addr(IPC2bits), W0
	XOR	W1, [W0], W1
	MOV	W1, IPC2bits
;Acelerografo.c,165 :: 		RPINR22bits.SDI2R = 0x21;                                                  //Configura el pin RB1/RPI33 como SDI2 *
	MOV.B	#33, W0
	MOV.B	W0, W1
	MOV	#lo_addr(RPINR22bits), W0
	XOR.B	W1, [W0], W1
	MOV.B	#127, W0
	AND.B	W1, W0, W1
	MOV	#lo_addr(RPINR22bits), W0
	XOR.B	W1, [W0], W1
	MOV	#lo_addr(RPINR22bits), W0
	MOV.B	W1, [W0]
;Acelerografo.c,166 :: 		RPOR2bits.RP38R = 0x08;                                                    //Configura el SDO2 en el pin RB6/RP38 *
	MOV.B	#8, W0
	MOV.B	W0, W1
	MOV	#lo_addr(RPOR2bits), W0
	XOR.B	W1, [W0], W1
	MOV.B	#63, W0
	AND.B	W1, W0, W1
	MOV	#lo_addr(RPOR2bits), W0
	XOR.B	W1, [W0], W1
	MOV	#lo_addr(RPOR2bits), W0
	MOV.B	W1, [W0]
;Acelerografo.c,167 :: 		RPOR1bits.RP37R = 0x09;                                                    //Configura el SCK2 en el pin RB5/RP37 *
	MOV	#2304, W0
	MOV	W0, W1
	MOV	#lo_addr(RPOR1bits), W0
	XOR	W1, [W0], W1
	MOV	#16128, W0
	AND	W1, W0, W1
	MOV	#lo_addr(RPOR1bits), W0
	XOR	W1, [W0], W1
	MOV	W1, RPOR1bits
;Acelerografo.c,168 :: 		SPI2STAT.SPIEN = 1;                                                        //Habilita el SPI2 *
	BSET	SPI2STAT, #15
;Acelerografo.c,169 :: 		SPI2_Init();                                                               //Inicializa el modulo SPI2
	CALL	_SPI2_Init
;Acelerografo.c,172 :: 		ADXL355_write_byte(POWER_CTL, DRDY_OFF|STANDBY);                           //Coloco el ADXL en modo STANDBY para pausar las conversiones y limpiar el FIFO
	MOV.B	#5, W11
	MOV.B	#45, W10
	CALL	_ADXL355_write_byte
;Acelerografo.c,175 :: 		RPINR0 = 0x2E00;                                                           //Asigna INT1 al RB14/RPI46
	MOV	#11776, W0
	MOV	WREG, RPINR0
;Acelerografo.c,176 :: 		INT1IE_bit = 0;                                                            //Habilita la interrupcion externa INT1
	BCLR	INT1IE_bit, BitPos(INT1IE_bit+0)
;Acelerografo.c,177 :: 		INT1IF_bit = 0;                                                            //Limpia la bandera de interrupcion externa INT1
	BCLR	INT1IF_bit, BitPos(INT1IF_bit+0)
;Acelerografo.c,178 :: 		IPC5bits.INT1IP = 0x01;                                                    //Prioridad en la interrupocion externa 1
	MOV.B	#1, W0
	MOV.B	W0, W1
	MOV	#lo_addr(IPC5bits), W0
	XOR.B	W1, [W0], W1
	AND.B	W1, #7, W1
	MOV	#lo_addr(IPC5bits), W0
	XOR.B	W1, [W0], W1
	MOV	#lo_addr(IPC5bits), W0
	MOV.B	W1, [W0]
;Acelerografo.c,181 :: 		T1CON = 0x0020;
	MOV	#32, W0
	MOV	WREG, T1CON
;Acelerografo.c,182 :: 		T1CON.TON = 0;                                                             //Apaga el Timer1
	BCLR	T1CON, #15
;Acelerografo.c,183 :: 		T1IE_bit = 1;                                                              //Habilita la interrupción de desbordamiento TMR1
	BSET	T1IE_bit, BitPos(T1IE_bit+0)
;Acelerografo.c,184 :: 		T1IF_bit = 0;                                                              //Limpia la bandera de interrupcion del TMR1
	BCLR	T1IF_bit, BitPos(T1IF_bit+0)
;Acelerografo.c,185 :: 		PR1 = 62500;                                                               //Car ga el preload para un tiempo de 100ms
	MOV	#62500, W0
	MOV	WREG, PR1
;Acelerografo.c,186 :: 		IPC0bits.T1IP = 0x02;                                                      //Prioridad de la interrupcion por desbordamiento del TMR1
	MOV	#8192, W0
	MOV	W0, W1
	MOV	#lo_addr(IPC0bits), W0
	XOR	W1, [W0], W1
	MOV	#28672, W0
	AND	W1, W0, W1
	MOV	#lo_addr(IPC0bits), W0
	XOR	W1, [W0], W1
	MOV	W1, IPC0bits
;Acelerografo.c,188 :: 		Delay_ms(200);                                                             //Espera hasta que se estabilicen los cambios
	MOV	#25, W8
	MOV	#27150, W7
L_ConfiguracionPrincipal24:
	DEC	W7
	BRA NZ	L_ConfiguracionPrincipal24
	DEC	W8
	BRA NZ	L_ConfiguracionPrincipal24
	NOP
;Acelerografo.c,190 :: 		}
L_end_ConfiguracionPrincipal:
	POP	W13
	POP	W12
	POP	W11
	POP	W10
	RETURN
; end of _ConfiguracionPrincipal

_Muestrear:

;Acelerografo.c,195 :: 		void Muestrear(){
;Acelerografo.c,197 :: 		if (banCiclo==0){
	PUSH	W10
	PUSH	W11
	PUSH	W12
	PUSH	W13
	MOV	#lo_addr(_banCiclo), W0
	MOV.B	[W0], W0
	CP.B	W0, #0
	BRA Z	L__Muestrear194
	GOTO	L_Muestrear26
L__Muestrear194:
;Acelerografo.c,199 :: 		ADXL355_write_byte(POWER_CTL, DRDY_OFF|MEASURING);                     //Coloca el ADXL en modo medicion
	MOV.B	#4, W11
	MOV.B	#45, W10
	CALL	_ADXL355_write_byte
;Acelerografo.c,200 :: 		T1CON.TON = 1;                                                         //Enciende el Timer1
	BSET	T1CON, #15
;Acelerografo.c,202 :: 		} else if (banCiclo==1) {
	GOTO	L_Muestrear27
L_Muestrear26:
	MOV	#lo_addr(_banCiclo), W0
	MOV.B	[W0], W0
	CP.B	W0, #1
	BRA Z	L__Muestrear195
	GOTO	L_Muestrear28
L__Muestrear195:
;Acelerografo.c,204 :: 		banCiclo = 2;                                                          //Limpia la bandera de ciclo completo
	MOV	#lo_addr(_banCiclo), W1
	MOV.B	#2, W0
	MOV.B	W0, [W1]
;Acelerografo.c,206 :: 		tramaCompleta[0] = contCiclos;                                         //LLena el primer elemento de la tramaCompleta con el contador de ciclos
	MOV	#lo_addr(_tramaCompleta), W1
	MOV	#lo_addr(_contCiclos), W0
	MOV.B	[W0], [W1]
;Acelerografo.c,207 :: 		numFIFO = ADXL355_read_byte(FIFO_ENTRIES);
	MOV.B	#5, W10
	CALL	_ADXL355_read_byte
	MOV	#lo_addr(_numFIFO), W1
	MOV.B	W0, [W1]
;Acelerografo.c,208 :: 		numSetsFIFO = (numFIFO)/3;                                             //Lee el numero de sets disponibles en el FIFO
	ZE	W0, W0
	MOV	#3, W2
	REPEAT	#17
	DIV.S	W0, W2
	MOV	W0, W1
	MOV	#lo_addr(_numSetsFIFO), W0
	MOV.B	W1, [W0]
;Acelerografo.c,211 :: 		for (x=0;x<numSetsFIFO;x++){
	CLR	W0
	MOV	W0, _x
L_Muestrear29:
	MOV	#lo_addr(_numSetsFIFO), W0
	ZE	[W0], W1
	MOV	#lo_addr(_x), W0
	CP	W1, [W0]
	BRA GTU	L__Muestrear196
	GOTO	L_Muestrear30
L__Muestrear196:
;Acelerografo.c,212 :: 		ADXL355_read_FIFO(datosLeidos);                                    //Lee una sola posicion del FIFO
	MOV	#lo_addr(_datosLeidos), W10
	CALL	_ADXL355_read_FIFO
;Acelerografo.c,213 :: 		for (y=0;y<9;y++){
	CLR	W0
	MOV	W0, _y
L_Muestrear32:
	MOV	_y, W0
	CP	W0, #9
	BRA LTU	L__Muestrear197
	GOTO	L_Muestrear33
L__Muestrear197:
;Acelerografo.c,214 :: 		datosFIFO[y+(x*9)] = datosLeidos[y];                           //LLena la trama datosFIFO
	MOV	_x, W1
	MOV	#9, W0
	MUL.UU	W1, W0, W2
	MOV	#lo_addr(_y), W0
	ADD	W2, [W0], W1
	MOV	#lo_addr(_datosFIFO), W0
	ADD	W0, W1, W2
	MOV	#lo_addr(_datosLeidos), W1
	MOV	#lo_addr(_y), W0
	ADD	W1, [W0], W0
	MOV.B	[W0], [W2]
;Acelerografo.c,213 :: 		for (y=0;y<9;y++){
	MOV	#1, W1
	MOV	#lo_addr(_y), W0
	ADD	W1, [W0], [W0]
;Acelerografo.c,215 :: 		}
	GOTO	L_Muestrear32
L_Muestrear33:
;Acelerografo.c,211 :: 		for (x=0;x<numSetsFIFO;x++){
	MOV	#1, W1
	MOV	#lo_addr(_x), W0
	ADD	W1, [W0], [W0]
;Acelerografo.c,216 :: 		}
	GOTO	L_Muestrear29
L_Muestrear30:
;Acelerografo.c,219 :: 		for (x=0;x<(numSetsFIFO*9);x++){
	CLR	W0
	MOV	W0, _x
L_Muestrear35:
	MOV	#lo_addr(_numSetsFIFO), W0
	ZE	[W0], W1
	MOV	#9, W0
	MUL.SS	W1, W0, W2
	MOV	#lo_addr(_x), W0
	CP	W2, [W0]
	BRA GTU	L__Muestrear198
	GOTO	L_Muestrear36
L__Muestrear198:
;Acelerografo.c,220 :: 		if ((x==0)||(x%9==0)){
	MOV	_x, W0
	CP	W0, #0
	BRA NZ	L__Muestrear199
	GOTO	L__Muestrear130
L__Muestrear199:
	MOV	_x, W0
	MOV	#9, W2
	REPEAT	#17
	DIV.U	W0, W2
	MOV	W1, W0
	CP	W0, #0
	BRA NZ	L__Muestrear200
	GOTO	L__Muestrear129
L__Muestrear200:
	GOTO	L_Muestrear40
L__Muestrear130:
L__Muestrear129:
;Acelerografo.c,221 :: 		tramaCompleta[contFIFO+contMuestras+x] = contMuestras;          //Funciona bien
	MOV	#lo_addr(_contMuestras), W0
	ZE	[W0], W1
	MOV	#lo_addr(_contFIFO), W0
	ADD	W1, [W0], W1
	MOV	#lo_addr(_x), W0
	ADD	W1, [W0], W1
	MOV	#lo_addr(_tramaCompleta), W0
	ADD	W0, W1, W1
	MOV	#lo_addr(_contMuestras), W0
	MOV.B	[W0], [W1]
;Acelerografo.c,222 :: 		tramaCompleta[contFIFO+contMuestras+x+1] = datosFIFO[x];
	MOV	#lo_addr(_contMuestras), W0
	ZE	[W0], W1
	MOV	#lo_addr(_contFIFO), W0
	ADD	W1, [W0], W1
	MOV	#lo_addr(_x), W0
	ADD	W1, [W0], W0
	ADD	W0, #1, W1
	MOV	#lo_addr(_tramaCompleta), W0
	ADD	W0, W1, W2
	MOV	#lo_addr(_datosFIFO), W1
	MOV	#lo_addr(_x), W0
	ADD	W1, [W0], W0
	MOV.B	[W0], [W2]
;Acelerografo.c,223 :: 		contMuestras++;
	MOV.B	#1, W1
	MOV	#lo_addr(_contMuestras), W0
	ADD.B	W1, [W0], [W0]
;Acelerografo.c,224 :: 		} else {
	GOTO	L_Muestrear41
L_Muestrear40:
;Acelerografo.c,225 :: 		tramaCompleta[contFIFO+contMuestras+x] = datosFIFO[x];
	MOV	#lo_addr(_contMuestras), W0
	ZE	[W0], W1
	MOV	#lo_addr(_contFIFO), W0
	ADD	W1, [W0], W1
	MOV	#lo_addr(_x), W0
	ADD	W1, [W0], W1
	MOV	#lo_addr(_tramaCompleta), W0
	ADD	W0, W1, W2
	MOV	#lo_addr(_datosFIFO), W1
	MOV	#lo_addr(_x), W0
	ADD	W1, [W0], W0
	MOV.B	[W0], [W2]
;Acelerografo.c,226 :: 		}
L_Muestrear41:
;Acelerografo.c,219 :: 		for (x=0;x<(numSetsFIFO*9);x++){
	MOV	#1, W1
	MOV	#lo_addr(_x), W0
	ADD	W1, [W0], [W0]
;Acelerografo.c,227 :: 		}
	GOTO	L_Muestrear35
L_Muestrear36:
;Acelerografo.c,230 :: 		AjustarTiempoSistema(horaSistema, fechaSistema, tiempo);
	MOV	_fechaSistema, W12
	MOV	_fechaSistema+2, W13
	MOV	_horaSistema, W10
	MOV	_horaSistema+2, W11
	MOV	#lo_addr(_tiempo), W0
	PUSH	W0
	CALL	_AjustarTiempoSistema
	SUB	#2, W15
;Acelerografo.c,231 :: 		for (x=0;x<6;x++){
	CLR	W0
	MOV	W0, _x
L_Muestrear42:
	MOV	_x, W0
	CP	W0, #6
	BRA LTU	L__Muestrear201
	GOTO	L_Muestrear43
L__Muestrear201:
;Acelerografo.c,232 :: 		tramaCompleta[2500+x] = tiempo[x];
	MOV	#2500, W1
	MOV	#lo_addr(_x), W0
	ADD	W1, [W0], W1
	MOV	#lo_addr(_tramaCompleta), W0
	ADD	W0, W1, W2
	MOV	#lo_addr(_tiempo), W1
	MOV	#lo_addr(_x), W0
	ADD	W1, [W0], W0
	MOV.B	[W0], [W2]
;Acelerografo.c,231 :: 		for (x=0;x<6;x++){
	MOV	#1, W1
	MOV	#lo_addr(_x), W0
	ADD	W1, [W0], [W0]
;Acelerografo.c,233 :: 		}
	GOTO	L_Muestrear42
L_Muestrear43:
;Acelerografo.c,235 :: 		contMuestras = 0;                                                      //Limpia el contador de muestras
	MOV	#lo_addr(_contMuestras), W1
	CLR	W0
	MOV.B	W0, [W1]
;Acelerografo.c,236 :: 		contFIFO = 0;                                                          //Limpia el contador de FIFOs
	CLR	W0
	MOV	W0, _contFIFO
;Acelerografo.c,237 :: 		T1CON.TON = 1;                                                         //Enciende el Timer1
	BSET	T1CON, #15
;Acelerografo.c,239 :: 		banLec = 1;                                                            //Activa la bandera de lectura para enviar la trama
	MOV	#lo_addr(_banLec), W1
	MOV.B	#1, W0
	MOV.B	W0, [W1]
;Acelerografo.c,240 :: 		RP1 = 1;                                                               //Genera el pulso P1 para producir la interrupcion en la RPi
	BSET	LATA4_bit, BitPos(LATA4_bit+0)
;Acelerografo.c,241 :: 		Delay_us(20);
	MOV	#160, W7
L_Muestrear45:
	DEC	W7
	BRA NZ	L_Muestrear45
	NOP
	NOP
;Acelerografo.c,242 :: 		RP1 = 0;
	BCLR	LATA4_bit, BitPos(LATA4_bit+0)
;Acelerografo.c,244 :: 		}
L_Muestrear28:
L_Muestrear27:
;Acelerografo.c,246 :: 		contCiclos++;                                                              //Incrementa el contador de ciclos
	MOV.B	#1, W1
	MOV	#lo_addr(_contCiclos), W0
	ADD.B	W1, [W0], [W0]
;Acelerografo.c,248 :: 		}
L_end_Muestrear:
	POP	W13
	POP	W12
	POP	W11
	POP	W10
	RETURN
; end of _Muestrear

_InterrupcionP2:

;Acelerografo.c,253 :: 		void InterrupcionP2(){
;Acelerografo.c,255 :: 		if (INT1IE_bit==0){
	BTSC	INT1IE_bit, BitPos(INT1IE_bit+0)
	GOTO	L_InterrupcionP247
;Acelerografo.c,256 :: 		INT1IE_bit = 1;
	BSET	INT1IE_bit, BitPos(INT1IE_bit+0)
;Acelerografo.c,257 :: 		}
L_InterrupcionP247:
;Acelerografo.c,259 :: 		if (U1RXIE_bit==1){
	BTSS	U1RXIE_bit, BitPos(U1RXIE_bit+0)
	GOTO	L_InterrupcionP248
;Acelerografo.c,260 :: 		U1RXIE_bit = 0;
	BCLR	U1RXIE_bit, BitPos(U1RXIE_bit+0)
;Acelerografo.c,261 :: 		}
L_InterrupcionP248:
;Acelerografo.c,263 :: 		RP2 = 1;
	BSET	LATB4_bit, BitPos(LATB4_bit+0)
;Acelerografo.c,264 :: 		Delay_us(20);
	MOV	#160, W7
L_InterrupcionP249:
	DEC	W7
	BRA NZ	L_InterrupcionP249
	NOP
	NOP
;Acelerografo.c,265 :: 		RP2 = 0;
	BCLR	LATB4_bit, BitPos(LATB4_bit+0)
;Acelerografo.c,266 :: 		}
L_end_InterrupcionP2:
	RETURN
; end of _InterrupcionP2

_spi_1:
	PUSH	DSWPAG
	PUSH	50
	PUSH	RCOUNT
	PUSH	W0
	MOV	#2, W0
	REPEAT	#12
	PUSH	[W0++]

;Acelerografo.c,276 :: 		void spi_1() org  IVT_ADDR_SPI1INTERRUPT {
;Acelerografo.c,278 :: 		SPI1IF_bit = 0;                                                            //Limpia la bandera de interrupcion por SPI
	PUSH	W10
	PUSH	W11
	PUSH	W12
	PUSH	W13
	BCLR	SPI1IF_bit, BitPos(SPI1IF_bit+0)
;Acelerografo.c,279 :: 		buffer = SPI1BUF;                                                          //Guarda el contenido del bufeer (lectura)
	MOV	#lo_addr(_buffer), W1
	MOV.B	SPI1BUF, WREG
	MOV.B	W0, [W1]
;Acelerografo.c,282 :: 		if (banMuestrear==0){
	MOV	#lo_addr(_banMuestrear), W0
	MOV.B	[W0], W0
	CP.B	W0, #0
	BRA Z	L__spi_1204
	GOTO	L_spi_151
L__spi_1204:
;Acelerografo.c,283 :: 		if (buffer==0xA0){
	MOV	#lo_addr(_buffer), W0
	MOV.B	[W0], W1
	MOV.B	#160, W0
	CP.B	W1, W0
	BRA Z	L__spi_1205
	GOTO	L_spi_152
L__spi_1205:
;Acelerografo.c,284 :: 		banMuestrear = 1;                                                    //Cambia el estado de la bandera para que no inicie el muestreo mas de una vez de manera consecutiva
	MOV	#lo_addr(_banMuestrear), W1
	MOV.B	#1, W0
	MOV.B	W0, [W1]
;Acelerografo.c,286 :: 		banCiclo = 0;
	MOV	#lo_addr(_banCiclo), W1
	CLR	W0
	MOV.B	W0, [W1]
;Acelerografo.c,287 :: 		contMuestras = 0;
	MOV	#lo_addr(_contMuestras), W1
	CLR	W0
	MOV.B	W0, [W1]
;Acelerografo.c,288 :: 		contCiclos = 0;
	MOV	#lo_addr(_contCiclos), W1
	CLR	W0
	MOV.B	W0, [W1]
;Acelerografo.c,289 :: 		contFIFO = 0;
	CLR	W0
	MOV	W0, _contFIFO
;Acelerografo.c,290 :: 		numFIFO = 0;
	MOV	#lo_addr(_numFIFO), W1
	CLR	W0
	MOV.B	W0, [W1]
;Acelerografo.c,291 :: 		numSetsFIFO = 0;
	MOV	#lo_addr(_numSetsFIFO), W1
	CLR	W0
	MOV.B	W0, [W1]
;Acelerografo.c,292 :: 		contTimer1 = 0;
	MOV	#lo_addr(_contTimer1), W1
	CLR	W0
	MOV.B	W0, [W1]
;Acelerografo.c,293 :: 		banInicio = 1;                                                       //Bandera que permite el inicio del muestreo dentro de la interrupcion INT1
	MOV	#lo_addr(_banInicio), W1
	MOV.B	#1, W0
	MOV.B	W0, [W1]
;Acelerografo.c,294 :: 		if (INT1IE_bit==0){
	BTSC	INT1IE_bit, BitPos(INT1IE_bit+0)
	GOTO	L_spi_153
;Acelerografo.c,295 :: 		INT1IE_bit = 1;
	BSET	INT1IE_bit, BitPos(INT1IE_bit+0)
;Acelerografo.c,296 :: 		}
L_spi_153:
;Acelerografo.c,297 :: 		}
L_spi_152:
;Acelerografo.c,298 :: 		}
L_spi_151:
;Acelerografo.c,301 :: 		if (banMuestrear==1){
	MOV	#lo_addr(_banMuestrear), W0
	MOV.B	[W0], W0
	CP.B	W0, #1
	BRA Z	L__spi_1206
	GOTO	L_spi_154
L__spi_1206:
;Acelerografo.c,302 :: 		if (buffer==0xAF){
	MOV	#lo_addr(_buffer), W0
	MOV.B	[W0], W1
	MOV.B	#175, W0
	CP.B	W1, W0
	BRA Z	L__spi_1207
	GOTO	L_spi_155
L__spi_1207:
;Acelerografo.c,303 :: 		banInicio = 0;                                                       //Bandera que permite el inicio del muestreo dentro de la interrupcion INT1
	MOV	#lo_addr(_banInicio), W1
	CLR	W0
	MOV.B	W0, [W1]
;Acelerografo.c,304 :: 		banMuestrear = 0;                                                    //Cambia el estado de la bandera para permitir que inicie el muestreo de nuevo en el futuro
	MOV	#lo_addr(_banMuestrear), W1
	CLR	W0
	MOV.B	W0, [W1]
;Acelerografo.c,305 :: 		ADXL355_write_byte(POWER_CTL, DRDY_OFF|STANDBY);                     //Coloco el ADXL en modo STANDBY para pausar las conversiones y limpiar el FIFO
	MOV.B	#5, W11
	MOV.B	#45, W10
	CALL	_ADXL355_write_byte
;Acelerografo.c,307 :: 		if (INT1IE_bit==1){
	BTSS	INT1IE_bit, BitPos(INT1IE_bit+0)
	GOTO	L_spi_156
;Acelerografo.c,308 :: 		INT1IE_bit = 0;
	BCLR	INT1IE_bit, BitPos(INT1IE_bit+0)
;Acelerografo.c,309 :: 		}
L_spi_156:
;Acelerografo.c,311 :: 		if (T1CON.TON==1){
	BTSS	T1CON, #15
	GOTO	L_spi_157
;Acelerografo.c,312 :: 		T1CON.TON = 0;
	BCLR	T1CON, #15
;Acelerografo.c,313 :: 		}
L_spi_157:
;Acelerografo.c,314 :: 		}
L_spi_155:
;Acelerografo.c,315 :: 		}
L_spi_154:
;Acelerografo.c,318 :: 		if ((banSetReloj==0)){
	MOV	#lo_addr(_banSetReloj), W0
	MOV.B	[W0], W0
	CP.B	W0, #0
	BRA Z	L__spi_1208
	GOTO	L_spi_158
L__spi_1208:
;Acelerografo.c,319 :: 		if (buffer==0xC0){
	MOV	#lo_addr(_buffer), W0
	MOV.B	[W0], W1
	MOV.B	#192, W0
	CP.B	W1, W0
	BRA Z	L__spi_1209
	GOTO	L_spi_159
L__spi_1209:
;Acelerografo.c,320 :: 		banTIGPS = 0;                                                        //Limpia la bandera de inicio de trama  del GPS
	MOV	#lo_addr(_banTIGPS), W1
	CLR	W0
	MOV.B	W0, [W1]
;Acelerografo.c,321 :: 		banTCGPS = 0;                                                        //Limpia la bandera de trama completa
	MOV	#lo_addr(_banTCGPS), W1
	CLR	W0
	MOV.B	W0, [W1]
;Acelerografo.c,322 :: 		i_gps = 0;                                                           //Limpia el subindice de la trama GPS
	CLR	W0
	MOV	W0, _i_gps
;Acelerografo.c,324 :: 		if (U1RXIE_bit==0){
	BTSC	U1RXIE_bit, BitPos(U1RXIE_bit+0)
	GOTO	L_spi_160
;Acelerografo.c,325 :: 		U1RXIE_bit = 1;
	BSET	U1RXIE_bit, BitPos(U1RXIE_bit+0)
;Acelerografo.c,326 :: 		}
L_spi_160:
;Acelerografo.c,327 :: 		}
L_spi_159:
;Acelerografo.c,328 :: 		}
L_spi_158:
;Acelerografo.c,332 :: 		if ((banSetReloj==0)&&(buffer==0xC3)){
	MOV	#lo_addr(_banSetReloj), W0
	MOV.B	[W0], W0
	CP.B	W0, #0
	BRA Z	L__spi_1210
	GOTO	L__spi_1140
L__spi_1210:
	MOV	#lo_addr(_buffer), W0
	MOV.B	[W0], W1
	MOV.B	#195, W0
	CP.B	W1, W0
	BRA Z	L__spi_1211
	GOTO	L__spi_1139
L__spi_1211:
L__spi_1138:
;Acelerografo.c,333 :: 		banEsc = 1;
	MOV	#lo_addr(_banEsc), W1
	MOV.B	#1, W0
	MOV.B	W0, [W1]
;Acelerografo.c,334 :: 		j = 0;
	CLR	W0
	MOV	W0, _j
;Acelerografo.c,332 :: 		if ((banSetReloj==0)&&(buffer==0xC3)){
L__spi_1140:
L__spi_1139:
;Acelerografo.c,336 :: 		if ((banEsc==1)&&(buffer!=0xC3)&&(buffer!=0xC4)){
	MOV	#lo_addr(_banEsc), W0
	MOV.B	[W0], W0
	CP.B	W0, #1
	BRA Z	L__spi_1212
	GOTO	L__spi_1143
L__spi_1212:
	MOV	#lo_addr(_buffer), W0
	MOV.B	[W0], W1
	MOV.B	#195, W0
	CP.B	W1, W0
	BRA NZ	L__spi_1213
	GOTO	L__spi_1142
L__spi_1213:
	MOV	#lo_addr(_buffer), W0
	MOV.B	[W0], W1
	MOV.B	#196, W0
	CP.B	W1, W0
	BRA NZ	L__spi_1214
	GOTO	L__spi_1141
L__spi_1214:
L__spi_1137:
;Acelerografo.c,337 :: 		tiempoRPI[j] = buffer;
	MOV	#lo_addr(_tiempoRPI), W1
	MOV	#lo_addr(_j), W0
	ADD	W1, [W0], W1
	MOV	#lo_addr(_buffer), W0
	MOV.B	[W0], [W1]
;Acelerografo.c,338 :: 		j++;
	MOV	#1, W1
	MOV	#lo_addr(_j), W0
	ADD	W1, [W0], [W0]
;Acelerografo.c,336 :: 		if ((banEsc==1)&&(buffer!=0xC3)&&(buffer!=0xC4)){
L__spi_1143:
L__spi_1142:
L__spi_1141:
;Acelerografo.c,340 :: 		if ((banEsc==1)&&(buffer==0xC4)){
	MOV	#lo_addr(_banEsc), W0
	MOV.B	[W0], W0
	CP.B	W0, #1
	BRA Z	L__spi_1215
	GOTO	L__spi_1145
L__spi_1215:
	MOV	#lo_addr(_buffer), W0
	MOV.B	[W0], W1
	MOV.B	#196, W0
	CP.B	W1, W0
	BRA Z	L__spi_1216
	GOTO	L__spi_1144
L__spi_1216:
L__spi_1136:
;Acelerografo.c,341 :: 		horaSistema = RecuperarHoraRPI(tiempoRPI);                              //Recupera la hora de la RPi
	MOV	#lo_addr(_tiempoRPI), W10
	CALL	_RecuperarHoraRPI
	MOV	W0, _horaSistema
	MOV	W1, _horaSistema+2
;Acelerografo.c,342 :: 		fechaSistema = RecuperarFechaRPI(tiempoRPI);                            //Recupera la fecha de la RPi
	MOV	#lo_addr(_tiempoRPI), W10
	CALL	_RecuperarFechaRPI
	MOV	W0, _fechaSistema
	MOV	W1, _fechaSistema+2
;Acelerografo.c,343 :: 		AjustarTiempoSistema(horaSistema, fechaSistema, tiempo);                //Actualiza los datos de la trama tiempo con la hora y fecha recuperadas
	MOV.D	W0, W12
	MOV	_horaSistema, W10
	MOV	_horaSistema+2, W11
	MOV	#lo_addr(_tiempo), W0
	PUSH	W0
	CALL	_AjustarTiempoSistema
	SUB	#2, W15
;Acelerografo.c,344 :: 		banEsc = 0;
	MOV	#lo_addr(_banEsc), W1
	CLR	W0
	MOV.B	W0, [W1]
;Acelerografo.c,345 :: 		banSetReloj = 1;
	MOV	#lo_addr(_banSetReloj), W1
	MOV.B	#1, W0
	MOV.B	W0, [W1]
;Acelerografo.c,346 :: 		InterrupcionP2();
	CALL	_InterrupcionP2
;Acelerografo.c,340 :: 		if ((banEsc==1)&&(buffer==0xC4)){
L__spi_1145:
L__spi_1144:
;Acelerografo.c,350 :: 		if (banSetReloj==1){
	MOV	#lo_addr(_banSetReloj), W0
	MOV.B	[W0], W0
	CP.B	W0, #1
	BRA Z	L__spi_1217
	GOTO	L_spi_170
L__spi_1217:
;Acelerografo.c,351 :: 		banSetReloj = 2;
	MOV	#lo_addr(_banSetReloj), W1
	MOV.B	#2, W0
	MOV.B	W0, [W1]
;Acelerografo.c,352 :: 		j = 0;
	CLR	W0
	MOV	W0, _j
;Acelerografo.c,353 :: 		SPI1BUF = tiempo[j];
	MOV	#lo_addr(_tiempo), W1
	MOV	#lo_addr(_j), W0
	ADD	W1, [W0], W0
	MOV.B	[W0], W0
	ZE	W0, W0
	MOV	WREG, SPI1BUF
;Acelerografo.c,354 :: 		}
L_spi_170:
;Acelerografo.c,355 :: 		if ((banSetReloj==2)&&(buffer!=0xC1)){
	MOV	#lo_addr(_banSetReloj), W0
	MOV.B	[W0], W0
	CP.B	W0, #2
	BRA Z	L__spi_1218
	GOTO	L__spi_1147
L__spi_1218:
	MOV	#lo_addr(_buffer), W0
	MOV.B	[W0], W1
	MOV.B	#193, W0
	CP.B	W1, W0
	BRA NZ	L__spi_1219
	GOTO	L__spi_1146
L__spi_1219:
L__spi_1135:
;Acelerografo.c,356 :: 		SPI1BUF = tiempo[j];
	MOV	#lo_addr(_tiempo), W1
	MOV	#lo_addr(_j), W0
	ADD	W1, [W0], W0
	MOV.B	[W0], W0
	ZE	W0, W0
	MOV	WREG, SPI1BUF
;Acelerografo.c,357 :: 		j++;
	MOV	#1, W1
	MOV	#lo_addr(_j), W0
	ADD	W1, [W0], [W0]
;Acelerografo.c,355 :: 		if ((banSetReloj==2)&&(buffer!=0xC1)){
L__spi_1147:
L__spi_1146:
;Acelerografo.c,359 :: 		if ((banSetReloj==2)&&(buffer==0xC1)){                                     //Si detecta el delimitador de final de trama:
	MOV	#lo_addr(_banSetReloj), W0
	MOV.B	[W0], W0
	CP.B	W0, #2
	BRA Z	L__spi_1220
	GOTO	L__spi_1149
L__spi_1220:
	MOV	#lo_addr(_buffer), W0
	MOV.B	[W0], W1
	MOV.B	#193, W0
	CP.B	W1, W0
	BRA Z	L__spi_1221
	GOTO	L__spi_1148
L__spi_1221:
L__spi_1134:
;Acelerografo.c,360 :: 		banSetReloj = 0;                                                        //Limpia la bandera de lectura
	MOV	#lo_addr(_banSetReloj), W1
	CLR	W0
	MOV.B	W0, [W1]
;Acelerografo.c,361 :: 		SPI1BUF = 0xFF;
	MOV	#255, W0
	MOV	WREG, SPI1BUF
;Acelerografo.c,359 :: 		if ((banSetReloj==2)&&(buffer==0xC1)){                                     //Si detecta el delimitador de final de trama:
L__spi_1149:
L__spi_1148:
;Acelerografo.c,365 :: 		if ((banLec==1)&&(buffer==0xB0)){                                          //Verifica si la bandera de inicio de trama esta activa
	MOV	#lo_addr(_banLec), W0
	MOV.B	[W0], W0
	CP.B	W0, #1
	BRA Z	L__spi_1222
	GOTO	L__spi_1151
L__spi_1222:
	MOV	#lo_addr(_buffer), W0
	MOV.B	[W0], W1
	MOV.B	#176, W0
	CP.B	W1, W0
	BRA Z	L__spi_1223
	GOTO	L__spi_1150
L__spi_1223:
L__spi_1133:
;Acelerografo.c,366 :: 		banLec = 2;                                                             //Activa la bandera de lectura
	MOV	#lo_addr(_banLec), W1
	MOV.B	#2, W0
	MOV.B	W0, [W1]
;Acelerografo.c,367 :: 		i = 0;
	CLR	W0
	MOV	W0, _i
;Acelerografo.c,368 :: 		SPI1BUF = tramaCompleta[i];
	MOV	#lo_addr(_tramaCompleta), W1
	MOV	#lo_addr(_i), W0
	ADD	W1, [W0], W0
	MOV.B	[W0], W0
	ZE	W0, W0
	MOV	WREG, SPI1BUF
;Acelerografo.c,365 :: 		if ((banLec==1)&&(buffer==0xB0)){                                          //Verifica si la bandera de inicio de trama esta activa
L__spi_1151:
L__spi_1150:
;Acelerografo.c,370 :: 		if ((banLec==2)&&(buffer!=0xB1)){
	MOV	#lo_addr(_banLec), W0
	MOV.B	[W0], W0
	CP.B	W0, #2
	BRA Z	L__spi_1224
	GOTO	L__spi_1153
L__spi_1224:
	MOV	#lo_addr(_buffer), W0
	MOV.B	[W0], W1
	MOV.B	#177, W0
	CP.B	W1, W0
	BRA NZ	L__spi_1225
	GOTO	L__spi_1152
L__spi_1225:
L__spi_1132:
;Acelerografo.c,371 :: 		SPI1BUF = tramaCompleta[i];
	MOV	#lo_addr(_tramaCompleta), W1
	MOV	#lo_addr(_i), W0
	ADD	W1, [W0], W0
	MOV.B	[W0], W0
	ZE	W0, W0
	MOV	WREG, SPI1BUF
;Acelerografo.c,372 :: 		i++;
	MOV	#1, W1
	MOV	#lo_addr(_i), W0
	ADD	W1, [W0], [W0]
;Acelerografo.c,370 :: 		if ((banLec==2)&&(buffer!=0xB1)){
L__spi_1153:
L__spi_1152:
;Acelerografo.c,374 :: 		if ((banLec==2)&&(buffer==0xB1)){                                          //Si detecta el delimitador de final de trama:
	MOV	#lo_addr(_banLec), W0
	MOV.B	[W0], W0
	CP.B	W0, #2
	BRA Z	L__spi_1226
	GOTO	L__spi_1155
L__spi_1226:
	MOV	#lo_addr(_buffer), W0
	MOV.B	[W0], W1
	MOV.B	#177, W0
	CP.B	W1, W0
	BRA Z	L__spi_1227
	GOTO	L__spi_1154
L__spi_1227:
L__spi_1131:
;Acelerografo.c,375 :: 		banLec = 0;                                                             //Limpia la bandera de lectura
	MOV	#lo_addr(_banLec), W1
	CLR	W0
	MOV.B	W0, [W1]
;Acelerografo.c,376 :: 		SPI1BUF = 0xFF;
	MOV	#255, W0
	MOV	WREG, SPI1BUF
;Acelerografo.c,374 :: 		if ((banLec==2)&&(buffer==0xB1)){                                          //Si detecta el delimitador de final de trama:
L__spi_1155:
L__spi_1154:
;Acelerografo.c,379 :: 		}
L_end_spi_1:
	POP	W13
	POP	W12
	POP	W11
	POP	W10
	MOV	#26, W0
	REPEAT	#12
	POP	[W0--]
	POP	W0
	POP	RCOUNT
	POP	50
	POP	DSWPAG
	RETFIE
; end of _spi_1

_int_1:
	PUSH	DSWPAG
	PUSH	50
	PUSH	RCOUNT
	PUSH	W0
	MOV	#2, W0
	REPEAT	#12
	PUSH	[W0++]

;Acelerografo.c,384 :: 		void int_1() org IVT_ADDR_INT1INTERRUPT {
;Acelerografo.c,386 :: 		INT1IF_bit = 0;                                                            //Limpia la bandera de interrupcion externa INT1
	BCLR	INT1IF_bit, BitPos(INT1IF_bit+0)
;Acelerografo.c,388 :: 		TEST = ~TEST;
	BTG	LATB12_bit, BitPos(LATB12_bit+0)
;Acelerografo.c,389 :: 		horaSistema++;                                                             //Incrementa el reloj del sistema
	MOV	#1, W1
	MOV	#0, W2
	MOV	#lo_addr(_horaSistema), W0
	ADD	W1, [W0], [W0++]
	ADDC	W2, [W0], [W0--]
;Acelerografo.c,391 :: 		if (horaSistema==86400){                                                   //(24*3600)+(0*60)+(0) = 86400
	MOV	_horaSistema, W2
	MOV	_horaSistema+2, W3
	MOV	#20864, W0
	MOV	#1, W1
	CP	W2, W0
	CPB	W3, W1
	BRA Z	L__int_1229
	GOTO	L_int_186
L__int_1229:
;Acelerografo.c,392 :: 		horaSistema = 0;                                                        //Reinicia el reloj al llegar a las 24:00:00 horas
	CLR	W0
	CLR	W1
	MOV	W0, _horaSistema
	MOV	W1, _horaSistema+2
;Acelerografo.c,393 :: 		}
L_int_186:
;Acelerografo.c,395 :: 		if (banInicio==1){
	MOV	#lo_addr(_banInicio), W0
	MOV.B	[W0], W0
	CP.B	W0, #1
	BRA Z	L__int_1230
	GOTO	L_int_187
L__int_1230:
;Acelerografo.c,396 :: 		Muestrear();
	CALL	_Muestrear
;Acelerografo.c,397 :: 		}
L_int_187:
;Acelerografo.c,399 :: 		}
L_end_int_1:
	MOV	#26, W0
	REPEAT	#12
	POP	[W0--]
	POP	W0
	POP	RCOUNT
	POP	50
	POP	DSWPAG
	RETFIE
; end of _int_1

_Timer1Int:
	PUSH	DSWPAG
	PUSH	50
	PUSH	RCOUNT
	PUSH	W0
	MOV	#2, W0
	REPEAT	#12
	PUSH	[W0++]

;Acelerografo.c,403 :: 		void Timer1Int() org IVT_ADDR_T1INTERRUPT{
;Acelerografo.c,405 :: 		T1IF_bit = 0;                                                              //Limpia la bandera de interrupcion por desbordamiento del Timer1
	PUSH	W10
	BCLR	T1IF_bit, BitPos(T1IF_bit+0)
;Acelerografo.c,407 :: 		numFIFO = ADXL355_read_byte(FIFO_ENTRIES); //75                            //Lee el numero de muestras disponibles en el FIFO
	MOV.B	#5, W10
	CALL	_ADXL355_read_byte
	MOV	#lo_addr(_numFIFO), W1
	MOV.B	W0, [W1]
;Acelerografo.c,408 :: 		numSetsFIFO = (numFIFO)/3;                 //25                            //Lee el numero de sets disponibles en el FIFO
	ZE	W0, W0
	MOV	#3, W2
	REPEAT	#17
	DIV.S	W0, W2
	MOV	W0, W1
	MOV	#lo_addr(_numSetsFIFO), W0
	MOV.B	W1, [W0]
;Acelerografo.c,412 :: 		for (x=0;x<numSetsFIFO;x++){
	CLR	W0
	MOV	W0, _x
L_Timer1Int88:
	MOV	#lo_addr(_numSetsFIFO), W0
	ZE	[W0], W1
	MOV	#lo_addr(_x), W0
	CP	W1, [W0]
	BRA GTU	L__Timer1Int232
	GOTO	L_Timer1Int89
L__Timer1Int232:
;Acelerografo.c,413 :: 		ADXL355_read_FIFO(datosLeidos);                                        //Lee una sola posicion del FIFO
	MOV	#lo_addr(_datosLeidos), W10
	CALL	_ADXL355_read_FIFO
;Acelerografo.c,414 :: 		for (y=0;y<9;y++){
	CLR	W0
	MOV	W0, _y
L_Timer1Int91:
	MOV	_y, W0
	CP	W0, #9
	BRA LTU	L__Timer1Int233
	GOTO	L_Timer1Int92
L__Timer1Int233:
;Acelerografo.c,415 :: 		datosFIFO[y+(x*9)] = datosLeidos[y];                               //LLena la trama datosFIFO
	MOV	_x, W1
	MOV	#9, W0
	MUL.UU	W1, W0, W2
	MOV	#lo_addr(_y), W0
	ADD	W2, [W0], W1
	MOV	#lo_addr(_datosFIFO), W0
	ADD	W0, W1, W2
	MOV	#lo_addr(_datosLeidos), W1
	MOV	#lo_addr(_y), W0
	ADD	W1, [W0], W0
	MOV.B	[W0], [W2]
;Acelerografo.c,414 :: 		for (y=0;y<9;y++){
	MOV	#1, W1
	MOV	#lo_addr(_y), W0
	ADD	W1, [W0], [W0]
;Acelerografo.c,416 :: 		}
	GOTO	L_Timer1Int91
L_Timer1Int92:
;Acelerografo.c,412 :: 		for (x=0;x<numSetsFIFO;x++){
	MOV	#1, W1
	MOV	#lo_addr(_x), W0
	ADD	W1, [W0], [W0]
;Acelerografo.c,417 :: 		}
	GOTO	L_Timer1Int88
L_Timer1Int89:
;Acelerografo.c,420 :: 		for (x=0;x<(numSetsFIFO*9);x++){      //0-224
	CLR	W0
	MOV	W0, _x
L_Timer1Int94:
	MOV	#lo_addr(_numSetsFIFO), W0
	ZE	[W0], W1
	MOV	#9, W0
	MUL.SS	W1, W0, W2
	MOV	#lo_addr(_x), W0
	CP	W2, [W0]
	BRA GTU	L__Timer1Int234
	GOTO	L_Timer1Int95
L__Timer1Int234:
;Acelerografo.c,421 :: 		if ((x==0)||(x%9==0)){
	MOV	_x, W0
	CP	W0, #0
	BRA NZ	L__Timer1Int235
	GOTO	L__Timer1Int158
L__Timer1Int235:
	MOV	_x, W0
	MOV	#9, W2
	REPEAT	#17
	DIV.U	W0, W2
	MOV	W1, W0
	CP	W0, #0
	BRA NZ	L__Timer1Int236
	GOTO	L__Timer1Int157
L__Timer1Int236:
	GOTO	L_Timer1Int99
L__Timer1Int158:
L__Timer1Int157:
;Acelerografo.c,422 :: 		tramaCompleta[contFIFO+contMuestras+x] = contMuestras;
	MOV	#lo_addr(_contMuestras), W0
	ZE	[W0], W1
	MOV	#lo_addr(_contFIFO), W0
	ADD	W1, [W0], W1
	MOV	#lo_addr(_x), W0
	ADD	W1, [W0], W1
	MOV	#lo_addr(_tramaCompleta), W0
	ADD	W0, W1, W1
	MOV	#lo_addr(_contMuestras), W0
	MOV.B	[W0], [W1]
;Acelerografo.c,423 :: 		tramaCompleta[contFIFO+contMuestras+x+1] = datosFIFO[x];
	MOV	#lo_addr(_contMuestras), W0
	ZE	[W0], W1
	MOV	#lo_addr(_contFIFO), W0
	ADD	W1, [W0], W1
	MOV	#lo_addr(_x), W0
	ADD	W1, [W0], W0
	ADD	W0, #1, W1
	MOV	#lo_addr(_tramaCompleta), W0
	ADD	W0, W1, W2
	MOV	#lo_addr(_datosFIFO), W1
	MOV	#lo_addr(_x), W0
	ADD	W1, [W0], W0
	MOV.B	[W0], [W2]
;Acelerografo.c,424 :: 		contMuestras++;
	MOV.B	#1, W1
	MOV	#lo_addr(_contMuestras), W0
	ADD.B	W1, [W0], [W0]
;Acelerografo.c,425 :: 		} else {
	GOTO	L_Timer1Int100
L_Timer1Int99:
;Acelerografo.c,426 :: 		tramaCompleta[contFIFO+contMuestras+x] = datosFIFO[x];
	MOV	#lo_addr(_contMuestras), W0
	ZE	[W0], W1
	MOV	#lo_addr(_contFIFO), W0
	ADD	W1, [W0], W1
	MOV	#lo_addr(_x), W0
	ADD	W1, [W0], W1
	MOV	#lo_addr(_tramaCompleta), W0
	ADD	W0, W1, W2
	MOV	#lo_addr(_datosFIFO), W1
	MOV	#lo_addr(_x), W0
	ADD	W1, [W0], W0
	MOV.B	[W0], [W2]
;Acelerografo.c,427 :: 		}
L_Timer1Int100:
;Acelerografo.c,420 :: 		for (x=0;x<(numSetsFIFO*9);x++){      //0-224
	MOV	#1, W1
	MOV	#lo_addr(_x), W0
	ADD	W1, [W0], [W0]
;Acelerografo.c,428 :: 		}
	GOTO	L_Timer1Int94
L_Timer1Int95:
;Acelerografo.c,430 :: 		contFIFO = (contMuestras*9);                                               //Incrementa el contador de FIFOs
	MOV	#lo_addr(_contMuestras), W0
	ZE	[W0], W1
	MOV	#9, W0
	MUL.SS	W1, W0, W0
	MOV	W0, _contFIFO
;Acelerografo.c,432 :: 		contTimer1++;                                                              //Incrementa una unidad cada vez que entra a la interrupcion por Timer1
	MOV.B	#1, W1
	MOV	#lo_addr(_contTimer1), W0
	ADD.B	W1, [W0], [W0]
;Acelerografo.c,434 :: 		if (contTimer1==numTMR1){                                                  //Verifica si se cumplio el numero de interrupciones por TMR1 para la tasa de muestreo seleccionada
	MOV	#lo_addr(_contTimer1), W0
	ZE	[W0], W1
	MOV	#lo_addr(_numTMR1), W0
	SE	[W0], W0
	CP	W1, W0
	BRA Z	L__Timer1Int237
	GOTO	L_Timer1Int101
L__Timer1Int237:
;Acelerografo.c,435 :: 		T1CON.TON = 0;                                                          //Apaga el Timer1
	BCLR	T1CON, #15
;Acelerografo.c,436 :: 		banCiclo = 1;                                                           //Activa la bandera que indica que se completo un ciclo de medicion
	MOV	#lo_addr(_banCiclo), W1
	MOV.B	#1, W0
	MOV.B	W0, [W1]
;Acelerografo.c,437 :: 		contTimer1 = 0;                                                         //Limpia el contador de interrupciones por Timer1
	MOV	#lo_addr(_contTimer1), W1
	CLR	W0
	MOV.B	W0, [W1]
;Acelerografo.c,438 :: 		}
L_Timer1Int101:
;Acelerografo.c,440 :: 		}
L_end_Timer1Int:
	POP	W10
	MOV	#26, W0
	REPEAT	#12
	POP	[W0--]
	POP	W0
	POP	RCOUNT
	POP	50
	POP	DSWPAG
	RETFIE
; end of _Timer1Int

_urx_1:
	PUSH	DSWPAG
	PUSH	50
	PUSH	RCOUNT
	PUSH	W0
	MOV	#2, W0
	REPEAT	#12
	PUSH	[W0++]

;Acelerografo.c,445 :: 		void urx_1() org  IVT_ADDR_U1RXINTERRUPT {
;Acelerografo.c,447 :: 		U1RXIF_bit = 0;                                                            //Limpia la bandera de interrupcion por UART
	PUSH	W10
	PUSH	W11
	PUSH	W12
	PUSH	W13
	BCLR	U1RXIF_bit, BitPos(U1RXIF_bit+0)
;Acelerografo.c,449 :: 		byteGPS = U1RXREG;                                                         //Lee el byte de la trama enviada por el GPS
	MOV	#lo_addr(_byteGPS), W1
	MOV.B	U1RXREG, WREG
	MOV.B	W0, [W1]
;Acelerografo.c,450 :: 		OERR_bit = 0;                                                              //Limpia este bit para limpiar el FIFO UART
	BCLR	OERR_bit, BitPos(OERR_bit+0)
;Acelerografo.c,452 :: 		if (banTIGPS==0){
	MOV	#lo_addr(_banTIGPS), W0
	MOV.B	[W0], W0
	CP.B	W0, #0
	BRA Z	L__urx_1239
	GOTO	L_urx_1102
L__urx_1239:
;Acelerografo.c,453 :: 		if ((byteGPS==0x24)&&(i_gps==0)){                                       //Verifica si el primer byte recibido es el simbolo "$" que indica el inicio de una trama GPS
	MOV	#lo_addr(_byteGPS), W0
	MOV.B	[W0], W1
	MOV.B	#36, W0
	CP.B	W1, W0
	BRA Z	L__urx_1240
	GOTO	L__urx_1163
L__urx_1240:
	MOV	_i_gps, W0
	CP	W0, #0
	BRA Z	L__urx_1241
	GOTO	L__urx_1162
L__urx_1241:
L__urx_1161:
;Acelerografo.c,454 :: 		banTIGPS = 1;                                                        //Activa la bandera de inicio de trama
	MOV	#lo_addr(_banTIGPS), W1
	MOV.B	#1, W0
	MOV.B	W0, [W1]
;Acelerografo.c,453 :: 		if ((byteGPS==0x24)&&(i_gps==0)){                                       //Verifica si el primer byte recibido es el simbolo "$" que indica el inicio de una trama GPS
L__urx_1163:
L__urx_1162:
;Acelerografo.c,456 :: 		}
L_urx_1102:
;Acelerografo.c,458 :: 		if (banTIGPS==1){
	MOV	#lo_addr(_banTIGPS), W0
	MOV.B	[W0], W0
	CP.B	W0, #1
	BRA Z	L__urx_1242
	GOTO	L_urx_1106
L__urx_1242:
;Acelerografo.c,459 :: 		if (byteGPS!=0x2A){                                                     //0x2A = "*"
	MOV	#lo_addr(_byteGPS), W0
	MOV.B	[W0], W1
	MOV.B	#42, W0
	CP.B	W1, W0
	BRA NZ	L__urx_1243
	GOTO	L_urx_1107
L__urx_1243:
;Acelerografo.c,460 :: 		tramaGPS[i_gps] = byteGPS;                                           //LLena la tramaGPS hasta recibir el ultimo simbolo ("*") de la trama GPS
	MOV	#lo_addr(_tramaGPS), W1
	MOV	#lo_addr(_i_gps), W0
	ADD	W1, [W0], W1
	MOV	#lo_addr(_byteGPS), W0
	MOV.B	[W0], [W1]
;Acelerografo.c,461 :: 		banTFGPS = 0;                                                        //Limpia la bandera de final de trama
	MOV	#lo_addr(_banTFGPS), W1
	CLR	W0
	MOV.B	W0, [W1]
;Acelerografo.c,462 :: 		if (i_gps<70){
	MOV	#70, W1
	MOV	#lo_addr(_i_gps), W0
	CP	W1, [W0]
	BRA GTU	L__urx_1244
	GOTO	L_urx_1108
L__urx_1244:
;Acelerografo.c,463 :: 		i_gps++;                                                          //Incrementa el valor del subindice mientras sea menor a 70
	MOV	#1, W1
	MOV	#lo_addr(_i_gps), W0
	ADD	W1, [W0], [W0]
;Acelerografo.c,464 :: 		}
L_urx_1108:
;Acelerografo.c,465 :: 		if ((i_gps>1)&&(tramaGPS[1]!=0x47)){                                 //Verifica si el segundo elemento guardado es diferente de G
	MOV	_i_gps, W0
	CP	W0, #1
	BRA GTU	L__urx_1245
	GOTO	L__urx_1165
L__urx_1245:
	MOV	#lo_addr(_tramaGPS+1), W0
	MOV.B	[W0], W1
	MOV.B	#71, W0
	CP.B	W1, W0
	BRA NZ	L__urx_1246
	GOTO	L__urx_1164
L__urx_1246:
L__urx_1160:
;Acelerografo.c,466 :: 		i_gps = 0;                                                        //Limpia el subindice para almacenar la trama desde el principio
	CLR	W0
	MOV	W0, _i_gps
;Acelerografo.c,467 :: 		banTIGPS = 0;                                                     //Limpia la bandera de inicio de trama
	MOV	#lo_addr(_banTIGPS), W1
	CLR	W0
	MOV.B	W0, [W1]
;Acelerografo.c,468 :: 		banTCGPS = 0;                                                     //Limpia la bandera de trama completa
	MOV	#lo_addr(_banTCGPS), W1
	CLR	W0
	MOV.B	W0, [W1]
;Acelerografo.c,465 :: 		if ((i_gps>1)&&(tramaGPS[1]!=0x47)){                                 //Verifica si el segundo elemento guardado es diferente de G
L__urx_1165:
L__urx_1164:
;Acelerografo.c,470 :: 		} else {
	GOTO	L_urx_1112
L_urx_1107:
;Acelerografo.c,471 :: 		tramaGPS[i_gps] = byteGPS;
	MOV	#lo_addr(_tramaGPS), W1
	MOV	#lo_addr(_i_gps), W0
	ADD	W1, [W0], W1
	MOV	#lo_addr(_byteGPS), W0
	MOV.B	[W0], [W1]
;Acelerografo.c,472 :: 		banTIGPS = 2;                                                        //Cambia el estado de la bandera de inicio de trama para no permitir que se almacene mas datos en la trama
	MOV	#lo_addr(_banTIGPS), W1
	MOV.B	#2, W0
	MOV.B	W0, [W1]
;Acelerografo.c,473 :: 		banTCGPS = 1;                                                        //Activa la bandera de trama completa
	MOV	#lo_addr(_banTCGPS), W1
	MOV.B	#1, W0
	MOV.B	W0, [W1]
;Acelerografo.c,474 :: 		}
L_urx_1112:
;Acelerografo.c,475 :: 		}
L_urx_1106:
;Acelerografo.c,477 :: 		if (banTCGPS==1){
	MOV	#lo_addr(_banTCGPS), W0
	MOV.B	[W0], W0
	CP.B	W0, #1
	BRA Z	L__urx_1247
	GOTO	L_urx_1113
L__urx_1247:
;Acelerografo.c,478 :: 		if ( tramaGPS[1]==0x47 && tramaGPS[2]==0x50 && tramaGPS[3]==0x52 && tramaGPS[4]==0x4D && tramaGPS[5]==0x43 && tramaGPS[18]==0x41 ){      //"GPRMC" y "A"
	MOV	#lo_addr(_tramaGPS+1), W0
	MOV.B	[W0], W1
	MOV.B	#71, W0
	CP.B	W1, W0
	BRA Z	L__urx_1248
	GOTO	L__urx_1171
L__urx_1248:
	MOV	#lo_addr(_tramaGPS+2), W0
	MOV.B	[W0], W1
	MOV.B	#80, W0
	CP.B	W1, W0
	BRA Z	L__urx_1249
	GOTO	L__urx_1170
L__urx_1249:
	MOV	#lo_addr(_tramaGPS+3), W0
	MOV.B	[W0], W1
	MOV.B	#82, W0
	CP.B	W1, W0
	BRA Z	L__urx_1250
	GOTO	L__urx_1169
L__urx_1250:
	MOV	#lo_addr(_tramaGPS+4), W0
	MOV.B	[W0], W1
	MOV.B	#77, W0
	CP.B	W1, W0
	BRA Z	L__urx_1251
	GOTO	L__urx_1168
L__urx_1251:
	MOV	#lo_addr(_tramaGPS+5), W0
	MOV.B	[W0], W1
	MOV.B	#67, W0
	CP.B	W1, W0
	BRA Z	L__urx_1252
	GOTO	L__urx_1167
L__urx_1252:
	MOV	#lo_addr(_tramaGPS+18), W0
	MOV.B	[W0], W1
	MOV.B	#65, W0
	CP.B	W1, W0
	BRA Z	L__urx_1253
	GOTO	L__urx_1166
L__urx_1253:
L__urx_1159:
;Acelerografo.c,479 :: 		for (x=0;x<6;x++){
	CLR	W0
	MOV	W0, _x
L_urx_1117:
	MOV	_x, W0
	CP	W0, #6
	BRA LTU	L__urx_1254
	GOTO	L_urx_1118
L__urx_1254:
;Acelerografo.c,480 :: 		datosGPS[x] = tramaGPS[7+x];                                     //Guarda los datos de hhmmss
	MOV	#lo_addr(_datosGPS), W1
	MOV	#lo_addr(_x), W0
	ADD	W1, [W0], W2
	MOV	_x, W0
	ADD	W0, #7, W1
	MOV	#lo_addr(_tramaGPS), W0
	ADD	W0, W1, W0
	MOV.B	[W0], [W2]
;Acelerografo.c,479 :: 		for (x=0;x<6;x++){
	MOV	#1, W1
	MOV	#lo_addr(_x), W0
	ADD	W1, [W0], [W0]
;Acelerografo.c,481 :: 		}
	GOTO	L_urx_1117
L_urx_1118:
;Acelerografo.c,482 :: 		for (x=50;x<60;x++){
	MOV	#50, W0
	MOV	W0, _x
L_urx_1120:
	MOV	#60, W1
	MOV	#lo_addr(_x), W0
	CP	W1, [W0]
	BRA GTU	L__urx_1255
	GOTO	L_urx_1121
L__urx_1255:
;Acelerografo.c,483 :: 		if (tramaGPS[x]==0x2C){                                          //Busca el simbolo "," a partir de la posicion 50
	MOV	#lo_addr(_tramaGPS), W1
	MOV	#lo_addr(_x), W0
	ADD	W1, [W0], W0
	MOV.B	[W0], W1
	MOV.B	#44, W0
	CP.B	W1, W0
	BRA Z	L__urx_1256
	GOTO	L_urx_1123
L__urx_1256:
;Acelerografo.c,484 :: 		for (y=0;y<6;y++){
	CLR	W0
	MOV	W0, _y
L_urx_1124:
	MOV	_y, W0
	CP	W0, #6
	BRA LTU	L__urx_1257
	GOTO	L_urx_1125
L__urx_1257:
;Acelerografo.c,485 :: 		datosGPS[6+y] = tramaGPS[x+y+1];                         //Guarda los datos de DDMMAA en la trama datosGPS
	MOV	_y, W0
	ADD	W0, #6, W1
	MOV	#lo_addr(_datosGPS), W0
	ADD	W0, W1, W2
	MOV	_x, W1
	MOV	#lo_addr(_y), W0
	ADD	W1, [W0], W0
	ADD	W0, #1, W1
	MOV	#lo_addr(_tramaGPS), W0
	ADD	W0, W1, W0
	MOV.B	[W0], [W2]
;Acelerografo.c,484 :: 		for (y=0;y<6;y++){
	MOV	#1, W1
	MOV	#lo_addr(_y), W0
	ADD	W1, [W0], [W0]
;Acelerografo.c,486 :: 		}
	GOTO	L_urx_1124
L_urx_1125:
;Acelerografo.c,487 :: 		}
L_urx_1123:
;Acelerografo.c,482 :: 		for (x=50;x<60;x++){
	MOV	#1, W1
	MOV	#lo_addr(_x), W0
	ADD	W1, [W0], [W0]
;Acelerografo.c,488 :: 		}
	GOTO	L_urx_1120
L_urx_1121:
;Acelerografo.c,489 :: 		horaSistema = RecuperarHoraGPS(datosGPS);                            //Recupera la hora del GPS
	MOV	#lo_addr(_datosGPS), W10
	CALL	_RecuperarHoraGPS
	MOV	W0, _horaSistema
	MOV	W1, _horaSistema+2
;Acelerografo.c,490 :: 		fechaSistema = RecuperarFechaGPS(datosGPS);                          //Recupera la fecha del GPS
	MOV	#lo_addr(_datosGPS), W10
	CALL	_RecuperarFechaGPS
	MOV	W0, _fechaSistema
	MOV	W1, _fechaSistema+2
;Acelerografo.c,491 :: 		AjustarTiempoSistema(horaSistema, fechaSistema, tiempo);             //Actualiza los datos de la trama tiempo con la hora y fecha recuperadas del gps
	MOV.D	W0, W12
	MOV	_horaSistema, W10
	MOV	_horaSistema+2, W11
	MOV	#lo_addr(_tiempo), W0
	PUSH	W0
	CALL	_AjustarTiempoSistema
	SUB	#2, W15
;Acelerografo.c,492 :: 		InterrupcionP2();                                                    //Genera el pulso P2 para producir la interrupcion en la RPi
	CALL	_InterrupcionP2
;Acelerografo.c,493 :: 		banSetReloj = 1;                                                     //Activa la bandera para hacer uso de la hora GPS
	MOV	#lo_addr(_banSetReloj), W1
	MOV.B	#1, W0
	MOV.B	W0, [W1]
;Acelerografo.c,494 :: 		} else {
	GOTO	L_urx_1127
;Acelerografo.c,478 :: 		if ( tramaGPS[1]==0x47 && tramaGPS[2]==0x50 && tramaGPS[3]==0x52 && tramaGPS[4]==0x4D && tramaGPS[5]==0x43 && tramaGPS[18]==0x41 ){      //"GPRMC" y "A"
L__urx_1171:
L__urx_1170:
L__urx_1169:
L__urx_1168:
L__urx_1167:
L__urx_1166:
;Acelerografo.c,495 :: 		InterrupcionP2();                                                    //Genera el pulso P2 para producir la interrupcion en la RPi
	CALL	_InterrupcionP2
;Acelerografo.c,496 :: 		banSetReloj = 0;                                                     //Limpia la bandera para permitir otra peticion de toma de datos del GPS
	MOV	#lo_addr(_banSetReloj), W1
	CLR	W0
	MOV.B	W0, [W1]
;Acelerografo.c,497 :: 		}
L_urx_1127:
;Acelerografo.c,498 :: 		}
L_urx_1113:
;Acelerografo.c,500 :: 		}
L_end_urx_1:
	POP	W13
	POP	W12
	POP	W11
	POP	W10
	MOV	#26, W0
	REPEAT	#12
	POP	[W0--]
	POP	W0
	POP	RCOUNT
	POP	50
	POP	DSWPAG
	RETFIE
; end of _urx_1
