
_ADXL355_init:

;adxl355_spi.c,106 :: 		void ADXL355_init(short tMuestreo){
;adxl355_spi.c,107 :: 		ADXL355_write_byte(Reset,0x52);                                             //Resetea el dispositivo
	PUSH	W10
	PUSH	W11
	PUSH	W10
	MOV.B	#82, W11
	MOV.B	#47, W10
	CALL	_ADXL355_write_byte
;adxl355_spi.c,108 :: 		Delay_ms(10);
	MOV	#2, W8
	MOV	#14464, W7
L_ADXL355_init0:
	DEC	W7
	BRA NZ	L_ADXL355_init0
	DEC	W8
	BRA NZ	L_ADXL355_init0
	NOP
	NOP
;adxl355_spi.c,109 :: 		ADXL355_write_byte(POWER_CTL, DRDY_OFF|STANDBY);
	MOV.B	#5, W11
	MOV.B	#45, W10
	CALL	_ADXL355_write_byte
;adxl355_spi.c,110 :: 		ADXL355_write_byte(Range, _2G);
	MOV.B	#1, W11
	MOV.B	#44, W10
	CALL	_ADXL355_write_byte
	POP	W10
;adxl355_spi.c,111 :: 		switch (tMuestreo){
	GOTO	L_ADXL355_init2
;adxl355_spi.c,112 :: 		case 1:
L_ADXL355_init4:
;adxl355_spi.c,113 :: 		ADXL355_write_byte(Filter, NO_HIGH_PASS_FILTER|_62_5_Hz);       //ODR=250Hz 1
	MOV.B	#4, W11
	MOV.B	#40, W10
	CALL	_ADXL355_write_byte
;adxl355_spi.c,114 :: 		break;
	GOTO	L_ADXL355_init3
;adxl355_spi.c,115 :: 		case 2:
L_ADXL355_init5:
;adxl355_spi.c,116 :: 		ADXL355_write_byte(Filter, NO_HIGH_PASS_FILTER|_31_25_Hz);      //ODR=125Hz 2
	MOV.B	#5, W11
	MOV.B	#40, W10
	CALL	_ADXL355_write_byte
;adxl355_spi.c,117 :: 		break;
	GOTO	L_ADXL355_init3
;adxl355_spi.c,118 :: 		case 4:
L_ADXL355_init6:
;adxl355_spi.c,119 :: 		ADXL355_write_byte(Filter, NO_HIGH_PASS_FILTER|_15_625_Hz);     //ODR=62.5Hz 4
	MOV.B	#6, W11
	MOV.B	#40, W10
	CALL	_ADXL355_write_byte
;adxl355_spi.c,120 :: 		break;
	GOTO	L_ADXL355_init3
;adxl355_spi.c,121 :: 		case 8:
L_ADXL355_init7:
;adxl355_spi.c,122 :: 		ADXL355_write_byte(Filter, NO_HIGH_PASS_FILTER|_7_813_Hz );     //ODR=31.25Hz 8
	MOV.B	#7, W11
	MOV.B	#40, W10
	CALL	_ADXL355_write_byte
;adxl355_spi.c,123 :: 		break;
	GOTO	L_ADXL355_init3
;adxl355_spi.c,124 :: 		}
L_ADXL355_init2:
	CP.B	W10, #1
	BRA NZ	L__ADXL355_init214
	GOTO	L_ADXL355_init4
L__ADXL355_init214:
	CP.B	W10, #2
	BRA NZ	L__ADXL355_init215
	GOTO	L_ADXL355_init5
L__ADXL355_init215:
	CP.B	W10, #4
	BRA NZ	L__ADXL355_init216
	GOTO	L_ADXL355_init6
L__ADXL355_init216:
	CP.B	W10, #8
	BRA NZ	L__ADXL355_init217
	GOTO	L_ADXL355_init7
L__ADXL355_init217:
L_ADXL355_init3:
;adxl355_spi.c,125 :: 		}
L_end_ADXL355_init:
	POP	W11
	POP	W10
	RETURN
; end of _ADXL355_init

_ADXL355_write_byte:

;adxl355_spi.c,128 :: 		void ADXL355_write_byte(unsigned char address, unsigned char value){
;adxl355_spi.c,129 :: 		address = (address<<1)&0xFE;
	PUSH	W10
	ZE	W10, W0
	SL	W0, #1, W1
	MOV	#254, W0
	AND	W1, W0, W0
	MOV.B	W0, W10
;adxl355_spi.c,130 :: 		CS_ADXL355=0;
	BCLR	LATA3_bit, BitPos(LATA3_bit+0)
;adxl355_spi.c,131 :: 		SPI2_Write(address);
	ZE	W0, W10
	CALL	_SPI2_Write
;adxl355_spi.c,132 :: 		SPI2_Write(value);
	ZE	W11, W10
	CALL	_SPI2_Write
;adxl355_spi.c,133 :: 		CS_ADXL355=1;
	BSET	LATA3_bit, BitPos(LATA3_bit+0)
;adxl355_spi.c,134 :: 		}
L_end_ADXL355_write_byte:
	POP	W10
	RETURN
; end of _ADXL355_write_byte

_ADXL355_read_byte:

;adxl355_spi.c,137 :: 		unsigned char ADXL355_read_byte(unsigned char address){
;adxl355_spi.c,138 :: 		unsigned char value = 0x00;
	PUSH	W10
;adxl355_spi.c,139 :: 		address=(address<<1)|0x01;
	ZE	W10, W0
	SL	W0, #1, W0
	IOR	W0, #1, W0
	MOV.B	W0, W10
;adxl355_spi.c,140 :: 		CS_ADXL355=0;
	BCLR	LATA3_bit, BitPos(LATA3_bit+0)
;adxl355_spi.c,141 :: 		SPI2_Write(address);
	ZE	W0, W10
	CALL	_SPI2_Write
;adxl355_spi.c,142 :: 		value=SPI2_Read(0);
	CLR	W10
	CALL	_SPI2_Read
;adxl355_spi.c,143 :: 		CS_ADXL355=1;
	BSET	LATA3_bit, BitPos(LATA3_bit+0)
;adxl355_spi.c,144 :: 		return value;
;adxl355_spi.c,145 :: 		}
;adxl355_spi.c,144 :: 		return value;
;adxl355_spi.c,145 :: 		}
L_end_ADXL355_read_byte:
	POP	W10
	RETURN
; end of _ADXL355_read_byte

_ADXL355_read_data:

;adxl355_spi.c,148 :: 		unsigned int ADXL355_read_data(unsigned char *vectorMuestra){
;adxl355_spi.c,151 :: 		if((ADXL355_read_byte(Status)&0x01)==1){                                 //Verifica que el bit DATA_RDY del registro Status este en alto
	PUSH	W10
	MOV.B	#4, W10
	CALL	_ADXL355_read_byte
	POP	W10
	ZE	W0, W0
	AND	W0, #1, W0
	CP	W0, #1
	BRA Z	L__ADXL355_read_data221
	GOTO	L_ADXL355_read_data8
L__ADXL355_read_data221:
;adxl355_spi.c,152 :: 		CS_ADXL355=0;
	BCLR	LATA3_bit, BitPos(LATA3_bit+0)
;adxl355_spi.c,153 :: 		for (j=0;j<9;j++){
; j start address is: 4 (W2)
	CLR	W2
; j end address is: 4 (W2)
L_ADXL355_read_data9:
; j start address is: 4 (W2)
	CP.B	W2, #9
	BRA LTU	L__ADXL355_read_data222
	GOTO	L_ADXL355_read_data10
L__ADXL355_read_data222:
;adxl355_spi.c,154 :: 		muestra = ADXL355_read_byte(axisAddresses[j]);
	ZE	W2, W1
	MOV	#lo_addr(_axisAddresses), W0
	ADD	W0, W1, W0
	PUSH	W10
	MOV.B	[W0], W10
	CALL	_ADXL355_read_byte
	POP	W10
;adxl355_spi.c,155 :: 		vectorMuestra[j] = muestra;
	ZE	W2, W1
	ADD	W10, W1, W1
	MOV.B	W0, [W1]
;adxl355_spi.c,153 :: 		for (j=0;j<9;j++){
	INC.B	W2
;adxl355_spi.c,156 :: 		}
; j end address is: 4 (W2)
	GOTO	L_ADXL355_read_data9
L_ADXL355_read_data10:
;adxl355_spi.c,157 :: 		CS_ADXL355=1;
	BSET	LATA3_bit, BitPos(LATA3_bit+0)
;adxl355_spi.c,158 :: 		} else {
	GOTO	L_ADXL355_read_data12
L_ADXL355_read_data8:
;adxl355_spi.c,159 :: 		for (j=0;j<9;j++){
; j start address is: 4 (W2)
	CLR	W2
; j end address is: 4 (W2)
L_ADXL355_read_data13:
; j start address is: 4 (W2)
	CP.B	W2, #9
	BRA LTU	L__ADXL355_read_data223
	GOTO	L_ADXL355_read_data14
L__ADXL355_read_data223:
;adxl355_spi.c,160 :: 		vectorMuestra[j] = 0;
	ZE	W2, W0
	ADD	W10, W0, W1
	CLR	W0
	MOV.B	W0, [W1]
;adxl355_spi.c,159 :: 		for (j=0;j<9;j++){
	INC.B	W2
;adxl355_spi.c,161 :: 		}
; j end address is: 4 (W2)
	GOTO	L_ADXL355_read_data13
L_ADXL355_read_data14:
;adxl355_spi.c,162 :: 		}
L_ADXL355_read_data12:
;adxl355_spi.c,163 :: 		return;
;adxl355_spi.c,164 :: 		}
L_end_ADXL355_read_data:
	RETURN
; end of _ADXL355_read_data

_ADXL355_read_FIFO:
	LNK	#2

;adxl355_spi.c,167 :: 		unsigned int ADXL355_read_FIFO(unsigned char *vectorFIFO){
;adxl355_spi.c,170 :: 		CS_ADXL355 = 0;
	PUSH	W10
	BCLR	LATA3_bit, BitPos(LATA3_bit+0)
;adxl355_spi.c,171 :: 		SPI2_Write(add);
	PUSH	W10
	MOV	#35, W10
	CALL	_SPI2_Write
	POP	W10
;adxl355_spi.c,173 :: 		vectorFIFO[0] = SPI2_Read(0);
	MOV	W10, W0
	MOV	W0, [W14+0]
	PUSH	W10
	CLR	W10
	CALL	_SPI2_Read
	POP	W10
	MOV	[W14+0], W1
	MOV.B	W0, [W1]
;adxl355_spi.c,174 :: 		vectorFIFO[1] = SPI2_Read(1);
	ADD	W10, #1, W0
	MOV	W0, [W14+0]
	PUSH	W10
	MOV	#1, W10
	CALL	_SPI2_Read
	POP	W10
	MOV	[W14+0], W1
	MOV.B	W0, [W1]
;adxl355_spi.c,175 :: 		vectorFIFO[2] = SPI2_Read(2);
	ADD	W10, #2, W0
	MOV	W0, [W14+0]
	PUSH	W10
	MOV	#2, W10
	CALL	_SPI2_Read
	POP	W10
	MOV	[W14+0], W1
	MOV.B	W0, [W1]
;adxl355_spi.c,177 :: 		vectorFIFO[3] = SPI2_Read(0);
	ADD	W10, #3, W0
	MOV	W0, [W14+0]
	PUSH	W10
	CLR	W10
	CALL	_SPI2_Read
	POP	W10
	MOV	[W14+0], W1
	MOV.B	W0, [W1]
;adxl355_spi.c,178 :: 		vectorFIFO[4] = SPI2_Read(1);
	ADD	W10, #4, W0
	MOV	W0, [W14+0]
	PUSH	W10
	MOV	#1, W10
	CALL	_SPI2_Read
	POP	W10
	MOV	[W14+0], W1
	MOV.B	W0, [W1]
;adxl355_spi.c,179 :: 		vectorFIFO[5] = SPI2_Read(2);
	ADD	W10, #5, W0
	MOV	W0, [W14+0]
	PUSH	W10
	MOV	#2, W10
	CALL	_SPI2_Read
	POP	W10
	MOV	[W14+0], W1
	MOV.B	W0, [W1]
;adxl355_spi.c,181 :: 		vectorFIFO[6] = SPI2_Read(0);
	ADD	W10, #6, W0
	MOV	W0, [W14+0]
	PUSH	W10
	CLR	W10
	CALL	_SPI2_Read
	POP	W10
	MOV	[W14+0], W1
	MOV.B	W0, [W1]
;adxl355_spi.c,182 :: 		vectorFIFO[7] = SPI2_Read(1);
	ADD	W10, #7, W0
	MOV	W0, [W14+0]
	PUSH	W10
	MOV	#1, W10
	CALL	_SPI2_Read
	POP	W10
	MOV	[W14+0], W1
	MOV.B	W0, [W1]
;adxl355_spi.c,183 :: 		vectorFIFO[8] = SPI2_Read(2);
	ADD	W10, #8, W0
	MOV	W0, [W14+0]
	MOV	#2, W10
	CALL	_SPI2_Read
	MOV	[W14+0], W1
	MOV.B	W0, [W1]
;adxl355_spi.c,184 :: 		CS_ADXL355 = 1;
	BSET	LATA3_bit, BitPos(LATA3_bit+0)
;adxl355_spi.c,185 :: 		Delay_us(5);
	MOV	#40, W7
L_ADXL355_read_FIFO16:
	DEC	W7
	BRA NZ	L_ADXL355_read_FIFO16
	NOP
	NOP
;adxl355_spi.c,187 :: 		}
;adxl355_spi.c,186 :: 		return;
;adxl355_spi.c,187 :: 		}
L_end_ADXL355_read_FIFO:
	POP	W10
	ULNK
	RETURN
; end of _ADXL355_read_FIFO

_GPS_init:

;tiempo_gps.c,13 :: 		void GPS_init(short conf,short NMA){
;tiempo_gps.c,45 :: 		UART1_Write_Text("$PMTK605*31\r\n");
	PUSH	W10
	PUSH	W11
	MOV	#lo_addr(?lstr1_Acelerografo), W10
	CALL	_UART1_Write_Text
;tiempo_gps.c,46 :: 		UART1_Write_Text("$PMTK220,1000*1F\r\n");
	MOV	#lo_addr(?lstr2_Acelerografo), W10
	CALL	_UART1_Write_Text
;tiempo_gps.c,47 :: 		UART1_Write_Text("$PMTK251,115200*1F\r\n");
	MOV	#lo_addr(?lstr3_Acelerografo), W10
	CALL	_UART1_Write_Text
;tiempo_gps.c,48 :: 		Delay_ms(1000);                                                            //Tiempo necesario para que se de efecto el cambio de configuracion
	MOV	#123, W8
	MOV	#4681, W7
L_GPS_init18:
	DEC	W7
	BRA NZ	L_GPS_init18
	DEC	W8
	BRA NZ	L_GPS_init18
;tiempo_gps.c,49 :: 		UART1_Init(115200);
	MOV	#49664, W10
	MOV	#1, W11
	CALL	_UART1_Init
;tiempo_gps.c,50 :: 		UART1_Write_Text("$PMTK313,1*2E\r\n");
	MOV	#lo_addr(?lstr4_Acelerografo), W10
	CALL	_UART1_Write_Text
;tiempo_gps.c,51 :: 		UART1_Write_Text("$PMTK314,0,1,0,0,0,0,0,0,0,0,0,0,0,0,0,0,0*29\r\n");
	MOV	#lo_addr(?lstr5_Acelerografo), W10
	CALL	_UART1_Write_Text
;tiempo_gps.c,52 :: 		UART1_Write_Text("$PMTK319,1*24\r\n");
	MOV	#lo_addr(?lstr6_Acelerografo), W10
	CALL	_UART1_Write_Text
;tiempo_gps.c,53 :: 		UART1_Write_Text("$PMTK413*34\r\n");
	MOV	#lo_addr(?lstr7_Acelerografo), W10
	CALL	_UART1_Write_Text
;tiempo_gps.c,54 :: 		UART1_Write_Text("$PMTK513,1*28\r\n");
	MOV	#lo_addr(?lstr8_Acelerografo), W10
	CALL	_UART1_Write_Text
;tiempo_gps.c,55 :: 		Delay_ms(1000);
	MOV	#123, W8
	MOV	#4681, W7
L_GPS_init20:
	DEC	W7
	BRA NZ	L_GPS_init20
	DEC	W8
	BRA NZ	L_GPS_init20
;tiempo_gps.c,56 :: 		U1MODE.UARTEN = 0;                                                         //Desactiva el UART1
	BCLR	U1MODE, #15
;tiempo_gps.c,57 :: 		}
L_end_GPS_init:
	POP	W11
	POP	W10
	RETURN
; end of _GPS_init

_RecuperarFechaGPS:
	LNK	#28

;tiempo_gps.c,62 :: 		unsigned long RecuperarFechaGPS(unsigned char *tramaDatosGPS){
;tiempo_gps.c,67 :: 		char *ptrDatoStringF = &datoStringF;
	PUSH	W10
	ADD	W14, #16, W4
	MOV	W4, [W14+26]
; ptrDatoStringF start address is: 12 (W6)
	MOV	W4, W6
;tiempo_gps.c,68 :: 		datoStringF[2] = '\0';
	ADD	W4, #2, W1
	CLR	W0
	MOV.B	W0, [W1]
;tiempo_gps.c,69 :: 		tramaFecha[3] = '\0';
	ADD	W14, #0, W3
	MOV	W3, [W14+24]
	ADD	W3, #12, W2
	CLR	W0
	CLR	W1
	MOV.D	W0, [W2]
;tiempo_gps.c,72 :: 		datoStringF[0] = tramaDatosGPS[10];
	ADD	W10, #10, W0
	MOV.B	[W0], [W4]
;tiempo_gps.c,73 :: 		datoStringF[1] = tramaDatosGPS[11];
	ADD	W4, #1, W1
	ADD	W10, #11, W0
	MOV.B	[W0], [W1]
;tiempo_gps.c,74 :: 		tramaFecha[0] = atoi(ptrDatoStringF);
	MOV	W3, W0
	MOV	W0, [W14+20]
	PUSH	W10
	MOV	W6, W10
	CALL	_atoi
	POP	W10
	MOV	W0, W1
	ASR	W1, #15, W2
	MOV	[W14+20], W0
	MOV	W1, [W0++]
	MOV	W2, [W0--]
;tiempo_gps.c,77 :: 		datoStringF[0] = tramaDatosGPS[8];
	ADD	W10, #8, W1
	MOV	[W14+26], W0
	MOV.B	[W1], [W0]
;tiempo_gps.c,78 :: 		datoStringF[1] = tramaDatosGPS[9];
	ADD	W0, #1, W1
	ADD	W10, #9, W0
	MOV.B	[W0], [W1]
;tiempo_gps.c,79 :: 		tramaFecha[1] = atoi(ptrDatoStringF);
	MOV	[W14+24], W0
	ADD	W0, #4, W0
	MOV	W0, [W14+20]
	PUSH	W10
	MOV	W6, W10
	CALL	_atoi
	POP	W10
	MOV	W0, W1
	ASR	W1, #15, W2
	MOV	[W14+20], W0
	MOV	W1, [W0++]
	MOV	W2, [W0--]
;tiempo_gps.c,82 :: 		datoStringF[0] = tramaDatosGPS[6];
	ADD	W10, #6, W1
	MOV	[W14+26], W0
	MOV.B	[W1], [W0]
;tiempo_gps.c,83 :: 		datoStringF[1] = tramaDatosGPS[7];
	ADD	W0, #1, W1
	ADD	W10, #7, W0
	MOV.B	[W0], [W1]
;tiempo_gps.c,84 :: 		tramaFecha[2] =  atoi(ptrDatoStringF);
	MOV	[W14+24], W0
	ADD	W0, #8, W0
	MOV	W0, [W14+20]
	MOV	W6, W10
; ptrDatoStringF end address is: 12 (W6)
	CALL	_atoi
	MOV	W0, W1
	ASR	W1, #15, W2
	MOV	[W14+20], W0
	MOV	W1, [W0++]
	MOV	W2, [W0--]
;tiempo_gps.c,86 :: 		fechaGPS = (tramaFecha[0]*10000)+(tramaFecha[1]*100)+(tramaFecha[2]);      //10000*aa + 100*mm + dd
	MOV	[W14+24], W2
	MOV.D	[W2], W0
	MOV	#10000, W2
	MOV	#0, W3
	CALL	__Multiply_32x32
	MOV	[W14+24], W2
	MOV	W0, [W14+20]
	MOV	W1, [W14+22]
	ADD	W2, #4, W2
	MOV.D	[W2], W0
	MOV	#100, W2
	MOV	#0, W3
	CALL	__Multiply_32x32
	MOV	[W14+20], W2
	MOV	[W14+22], W3
	ADD	W2, W0, W4
	ADDC	W3, W1, W5
	MOV	[W14+24], W0
	ADD	W0, #8, W2
	ADD	W4, [W2++], W0
	ADDC	W5, [W2--], W1
;tiempo_gps.c,88 :: 		return fechaGPS;
;tiempo_gps.c,90 :: 		}
;tiempo_gps.c,88 :: 		return fechaGPS;
;tiempo_gps.c,90 :: 		}
L_end_RecuperarFechaGPS:
	POP	W10
	ULNK
	RETURN
; end of _RecuperarFechaGPS

_RecuperarHoraGPS:
	LNK	#28

;tiempo_gps.c,93 :: 		unsigned long RecuperarHoraGPS(unsigned char *tramaDatosGPS){
;tiempo_gps.c,98 :: 		char *ptrDatoString = &datoString;
	PUSH	W10
	ADD	W14, #16, W4
	MOV	W4, [W14+26]
; ptrDatoString start address is: 12 (W6)
	MOV	W4, W6
;tiempo_gps.c,99 :: 		datoString[2] = '\0';
	ADD	W4, #2, W1
	CLR	W0
	MOV.B	W0, [W1]
;tiempo_gps.c,100 :: 		tramaTiempo[3] = '\0';
	ADD	W14, #0, W3
	MOV	W3, [W14+24]
	ADD	W3, #12, W2
	CLR	W0
	CLR	W1
	MOV.D	W0, [W2]
;tiempo_gps.c,103 :: 		datoString[0] = tramaDatosGPS[0];
	MOV.B	[W10], [W4]
;tiempo_gps.c,104 :: 		datoString[1] = tramaDatosGPS[1];
	ADD	W4, #1, W1
	ADD	W10, #1, W0
	MOV.B	[W0], [W1]
;tiempo_gps.c,105 :: 		tramaTiempo[0] = atoi(ptrDatoString);
	MOV	W3, W0
	MOV	W0, [W14+20]
	PUSH	W10
	MOV	W6, W10
	CALL	_atoi
	POP	W10
	MOV	W0, W1
	ASR	W1, #15, W2
	MOV	[W14+20], W0
	MOV	W1, [W0++]
	MOV	W2, [W0--]
;tiempo_gps.c,108 :: 		datoString[0] = tramaDatosGPS[2];
	ADD	W10, #2, W1
	MOV	[W14+26], W0
	MOV.B	[W1], [W0]
;tiempo_gps.c,109 :: 		datoString[1] = tramaDatosGPS[3];
	ADD	W0, #1, W1
	ADD	W10, #3, W0
	MOV.B	[W0], [W1]
;tiempo_gps.c,110 :: 		tramaTiempo[1] = atoi(ptrDatoString);
	MOV	[W14+24], W0
	ADD	W0, #4, W0
	MOV	W0, [W14+20]
	PUSH	W10
	MOV	W6, W10
	CALL	_atoi
	POP	W10
	MOV	W0, W1
	ASR	W1, #15, W2
	MOV	[W14+20], W0
	MOV	W1, [W0++]
	MOV	W2, [W0--]
;tiempo_gps.c,113 :: 		datoString[0] = tramaDatosGPS[4];
	ADD	W10, #4, W1
	MOV	[W14+26], W0
	MOV.B	[W1], [W0]
;tiempo_gps.c,114 :: 		datoString[1] = tramaDatosGPS[5];
	ADD	W0, #1, W1
	ADD	W10, #5, W0
	MOV.B	[W0], [W1]
;tiempo_gps.c,115 :: 		tramaTiempo[2] = atoi(ptrDatoString);
	MOV	[W14+24], W0
	ADD	W0, #8, W0
	MOV	W0, [W14+20]
	MOV	W6, W10
; ptrDatoString end address is: 12 (W6)
	CALL	_atoi
	MOV	W0, W1
	ASR	W1, #15, W2
	MOV	[W14+20], W0
	MOV	W1, [W0++]
	MOV	W2, [W0--]
;tiempo_gps.c,117 :: 		horaGPS = (tramaTiempo[0]*3600)+(tramaTiempo[1]*60)+(tramaTiempo[2]);      //Calcula el segundo actual = hh*3600 + mm*60 + ss
	MOV	[W14+24], W2
	MOV.D	[W2], W0
	MOV	#3600, W2
	MOV	#0, W3
	CALL	__Multiply_32x32
	MOV	[W14+24], W2
	MOV	W0, [W14+20]
	MOV	W1, [W14+22]
	ADD	W2, #4, W2
	MOV.D	[W2], W0
	MOV	#60, W2
	MOV	#0, W3
	CALL	__Multiply_32x32
	MOV	[W14+20], W2
	MOV	[W14+22], W3
	ADD	W2, W0, W4
	ADDC	W3, W1, W5
	MOV	[W14+24], W0
	ADD	W0, #8, W2
	ADD	W4, [W2++], W0
	ADDC	W5, [W2--], W1
;tiempo_gps.c,118 :: 		return horaGPS;
;tiempo_gps.c,120 :: 		}
;tiempo_gps.c,118 :: 		return horaGPS;
;tiempo_gps.c,120 :: 		}
L_end_RecuperarHoraGPS:
	POP	W10
	ULNK
	RETURN
; end of _RecuperarHoraGPS

_DS3234_init:

;tiempo_rtc.c,55 :: 		void DS3234_init(){
;tiempo_rtc.c,57 :: 		SPI2_Init_Advanced(_SPI_MASTER, _SPI_8_BIT, _SPI_PRESCALE_SEC_1, _SPI_PRESCALE_PRI_64, _SPI_SS_DISABLE, _SPI_DATA_SAMPLE_MIDDLE, _SPI_CLK_IDLE_LOW, _SPI_ACTIVE_2_IDLE);
	PUSH	W10
	PUSH	W11
	PUSH	W12
	PUSH	W13
	CLR	W13
	MOV	#28, W12
	CLR	W11
	MOV	#32, W10
	CLR	W0
	PUSH	W0
	CLR	W0
	PUSH	W0
	CLR	W0
	PUSH	W0
	CLR	W0
	PUSH	W0
	CALL	_SPI2_Init_Advanced
	SUB	#8, W15
;tiempo_rtc.c,58 :: 		DS3234_write_byte(Control,0x20);
	MOV.B	#32, W11
	MOV.B	#142, W10
	CALL	_DS3234_write_byte
;tiempo_rtc.c,59 :: 		DS3234_write_byte(ControlStatus,0x08);
	MOV.B	#8, W11
	MOV.B	#143, W10
	CALL	_DS3234_write_byte
;tiempo_rtc.c,60 :: 		SPI2_Init();
	CALL	_SPI2_Init
;tiempo_rtc.c,62 :: 		}
L_end_DS3234_init:
	POP	W13
	POP	W12
	POP	W11
	POP	W10
	RETURN
; end of _DS3234_init

_DS3234_write_byte:

;tiempo_rtc.c,65 :: 		void DS3234_write_byte(unsigned char address, unsigned char value){
;tiempo_rtc.c,67 :: 		CS_DS3234 = 0;
	PUSH	W10
	BCLR	LATA2_bit, BitPos(LATA2_bit+0)
;tiempo_rtc.c,68 :: 		SPI2_Write(address);
	ZE	W10, W10
	CALL	_SPI2_Write
;tiempo_rtc.c,69 :: 		SPI2_Write(value);
	ZE	W11, W10
	CALL	_SPI2_Write
;tiempo_rtc.c,70 :: 		CS_DS3234 = 1;
	BSET	LATA2_bit, BitPos(LATA2_bit+0)
;tiempo_rtc.c,72 :: 		}
L_end_DS3234_write_byte:
	POP	W10
	RETURN
; end of _DS3234_write_byte

_DS3234_read_byte:

;tiempo_rtc.c,75 :: 		unsigned char DS3234_read_byte(unsigned char address){
;tiempo_rtc.c,77 :: 		unsigned char value = 0x00;
	PUSH	W10
;tiempo_rtc.c,78 :: 		CS_DS3234 = 0;
	BCLR	LATA2_bit, BitPos(LATA2_bit+0)
;tiempo_rtc.c,79 :: 		SPI2_Write(address);
	ZE	W10, W10
	CALL	_SPI2_Write
;tiempo_rtc.c,80 :: 		value = SPI2_Read(0);
	CLR	W10
	CALL	_SPI2_Read
;tiempo_rtc.c,81 :: 		CS_DS3234 = 1;
	BSET	LATA2_bit, BitPos(LATA2_bit+0)
;tiempo_rtc.c,82 :: 		return value;
;tiempo_rtc.c,84 :: 		}
;tiempo_rtc.c,82 :: 		return value;
;tiempo_rtc.c,84 :: 		}
L_end_DS3234_read_byte:
	POP	W10
	RETURN
; end of _DS3234_read_byte

_DS3234_setDate:
	LNK	#14

;tiempo_rtc.c,87 :: 		void DS3234_setDate(unsigned long longHora, unsigned long longFecha){
;tiempo_rtc.c,97 :: 		SPI2_Init_Advanced(_SPI_MASTER, _SPI_8_BIT, _SPI_PRESCALE_SEC_1, _SPI_PRESCALE_PRI_64, _SPI_SS_DISABLE, _SPI_DATA_SAMPLE_MIDDLE, _SPI_CLK_IDLE_LOW, _SPI_ACTIVE_2_IDLE);
	PUSH	W10
	PUSH	W11
	PUSH.D	W12
	PUSH.D	W10
	CLR	W13
	MOV	#28, W12
	CLR	W11
	MOV	#32, W10
	CLR	W0
	PUSH	W0
	CLR	W0
	PUSH	W0
	CLR	W0
	PUSH	W0
	CLR	W0
	PUSH	W0
	CALL	_SPI2_Init_Advanced
	SUB	#8, W15
	POP.D	W10
;tiempo_rtc.c,99 :: 		hora = (short)(longHora / 3600);
	PUSH.D	W10
	MOV	#3600, W2
	MOV	#0, W3
	MOV.D	W10, W0
	CLR	W4
	CALL	__Divide_32x32
	POP.D	W10
	MOV.B	W0, [W14+0]
;tiempo_rtc.c,100 :: 		minuto = (short)((longHora%3600) / 60);
	MOV	#3600, W2
	MOV	#0, W3
	MOV.D	W10, W0
	CLR	W4
	CALL	__Modulus_32x32
	MOV	W0, [W14+10]
	MOV	W1, [W14+12]
	MOV	#60, W2
	MOV	#0, W3
	CLR	W4
	CALL	__Divide_32x32
	MOV.B	W0, [W14+1]
;tiempo_rtc.c,101 :: 		segundo = (short)((longHora%3600) % 60);
	MOV	[W14+10], W0
	MOV	[W14+12], W1
	MOV	#60, W2
	MOV	#0, W3
	CLR	W4
	CALL	__Modulus_32x32
	POP.D	W12
	MOV.B	W0, [W14+2]
;tiempo_rtc.c,103 :: 		dia = (short)(longFecha / 10000);
	PUSH.D	W12
	MOV	#10000, W2
	MOV	#0, W3
	MOV.D	W12, W0
	CLR	W4
	CALL	__Divide_32x32
	POP.D	W12
	MOV.B	W0, [W14+3]
;tiempo_rtc.c,104 :: 		mes = (short)((longFecha%10000) / 100);
	MOV	#10000, W2
	MOV	#0, W3
	MOV.D	W12, W0
	CLR	W4
	CALL	__Modulus_32x32
	MOV	W0, [W14+10]
	MOV	W1, [W14+12]
	MOV	#100, W2
	MOV	#0, W3
	CLR	W4
	CALL	__Divide_32x32
	MOV.B	W0, [W14+4]
;tiempo_rtc.c,105 :: 		anio = (short)((longFecha%10000) % 100);
	MOV	[W14+10], W0
	MOV	[W14+12], W1
	MOV	#100, W2
	MOV	#0, W3
	CLR	W4
	CALL	__Modulus_32x32
; anio start address is: 8 (W4)
	MOV.B	W0, W4
;tiempo_rtc.c,107 :: 		segundo = Dec2Bcd(segundo);
	MOV.B	[W14+2], W10
	CALL	_Dec2Bcd
	MOV.B	W0, [W14+2]
;tiempo_rtc.c,108 :: 		minuto = Dec2Bcd(minuto);
	MOV.B	[W14+1], W10
	CALL	_Dec2Bcd
	MOV.B	W0, [W14+1]
;tiempo_rtc.c,109 :: 		hora = Dec2Bcd(hora);
	MOV.B	[W14+0], W10
	CALL	_Dec2Bcd
	MOV.B	W0, [W14+0]
;tiempo_rtc.c,110 :: 		dia = Dec2Bcd(dia);
	MOV.B	[W14+3], W10
	CALL	_Dec2Bcd
	MOV.B	W0, [W14+3]
;tiempo_rtc.c,111 :: 		mes = Dec2Bcd(mes);
	MOV.B	[W14+4], W10
	CALL	_Dec2Bcd
	MOV.B	W0, [W14+4]
;tiempo_rtc.c,112 :: 		anio = Dec2Bcd(anio);
	MOV.B	W4, W10
; anio end address is: 8 (W4)
	CALL	_Dec2Bcd
; anio start address is: 2 (W1)
	MOV.B	W0, W1
;tiempo_rtc.c,114 :: 		DS3234_write_byte(Segundos_Esc, segundo);
	MOV.B	[W14+2], W11
	MOV.B	#128, W10
	CALL	_DS3234_write_byte
;tiempo_rtc.c,115 :: 		DS3234_write_byte(Minutos_Esc, minuto);
	MOV.B	[W14+1], W11
	MOV.B	#129, W10
	CALL	_DS3234_write_byte
;tiempo_rtc.c,116 :: 		DS3234_write_byte(Horas_Esc, hora);
	MOV.B	[W14+0], W11
	MOV.B	#130, W10
	CALL	_DS3234_write_byte
;tiempo_rtc.c,117 :: 		DS3234_write_byte(DiaMes_Esc, dia);
	MOV.B	[W14+3], W11
	MOV.B	#132, W10
	CALL	_DS3234_write_byte
;tiempo_rtc.c,118 :: 		DS3234_write_byte(Mes_Esc, mes);
	MOV.B	[W14+4], W11
	MOV.B	#133, W10
	CALL	_DS3234_write_byte
;tiempo_rtc.c,119 :: 		DS3234_write_byte(Anio_Esc, anio);
	MOV.B	W1, W11
; anio end address is: 2 (W1)
	MOV.B	#134, W10
	CALL	_DS3234_write_byte
;tiempo_rtc.c,121 :: 		SPI2_Init();
	CALL	_SPI2_Init
;tiempo_rtc.c,125 :: 		}
;tiempo_rtc.c,123 :: 		return;
;tiempo_rtc.c,125 :: 		}
L_end_DS3234_setDate:
	POP	W11
	POP	W10
	ULNK
	RETURN
; end of _DS3234_setDate

_RecuperarHoraRTC:
	LNK	#4

;tiempo_rtc.c,128 :: 		unsigned long RecuperarHoraRTC(){
;tiempo_rtc.c,136 :: 		SPI2_Init_Advanced(_SPI_MASTER, _SPI_8_BIT, _SPI_PRESCALE_SEC_1, _SPI_PRESCALE_PRI_64, _SPI_SS_DISABLE, _SPI_DATA_SAMPLE_MIDDLE, _SPI_CLK_IDLE_LOW, _SPI_ACTIVE_2_IDLE);
	PUSH	W10
	PUSH	W11
	PUSH	W12
	PUSH	W13
	CLR	W13
	MOV	#28, W12
	CLR	W11
	MOV	#32, W10
	CLR	W0
	PUSH	W0
	CLR	W0
	PUSH	W0
	CLR	W0
	PUSH	W0
	CLR	W0
	PUSH	W0
	CALL	_SPI2_Init_Advanced
	SUB	#8, W15
;tiempo_rtc.c,138 :: 		valueRead = DS3234_read_byte(Segundos_Lec);
	CLR	W10
	CALL	_DS3234_read_byte
;tiempo_rtc.c,139 :: 		valueRead = Bcd2Dec(valueRead);
	MOV.B	W0, W10
	CALL	_Bcd2Dec
;tiempo_rtc.c,140 :: 		segundo = (long)valueRead;
; segundo start address is: 12 (W6)
	ZE	W0, W6
	CLR	W7
;tiempo_rtc.c,141 :: 		valueRead = DS3234_read_byte(Minutos_Lec);
	MOV.B	#1, W10
	CALL	_DS3234_read_byte
;tiempo_rtc.c,142 :: 		valueRead = Bcd2Dec(valueRead);
	MOV.B	W0, W10
	CALL	_Bcd2Dec
;tiempo_rtc.c,143 :: 		minuto = (long)valueRead;
; minuto start address is: 16 (W8)
	ZE	W0, W8
	CLR	W9
;tiempo_rtc.c,144 :: 		valueRead = DS3234_read_byte(Horas_Lec);
	MOV.B	#2, W10
	CALL	_DS3234_read_byte
;tiempo_rtc.c,145 :: 		valueRead = Bcd2Dec(valueRead);
	MOV.B	W0, W10
	CALL	_Bcd2Dec
;tiempo_rtc.c,146 :: 		hora = (long)valueRead;
	ZE	W0, W0
	CLR	W1
;tiempo_rtc.c,148 :: 		horaRTC = (hora*3600)+(minuto*60)+(segundo);                               //Calcula el segundo actual = hh*3600 + mm*60 + ss
	MOV	#3600, W2
	MOV	#0, W3
	CALL	__Multiply_32x32
	MOV	W0, [W14+0]
	MOV	W1, [W14+2]
	MOV.D	W8, W0
	MOV	#60, W2
	MOV	#0, W3
	CALL	__Multiply_32x32
; minuto end address is: 16 (W8)
	MOV	[W14+0], W2
	MOV	[W14+2], W3
	ADD	W2, W0, W0
	ADDC	W3, W1, W1
; horaRTC start address is: 4 (W2)
	ADD	W0, W6, W2
	ADDC	W1, W7, W3
; segundo end address is: 12 (W6)
;tiempo_rtc.c,150 :: 		SPI2_Init();
	CALL	_SPI2_Init
;tiempo_rtc.c,152 :: 		return horaRTC;
	MOV.D	W2, W0
; horaRTC end address is: 4 (W2)
;tiempo_rtc.c,154 :: 		}
;tiempo_rtc.c,152 :: 		return horaRTC;
;tiempo_rtc.c,154 :: 		}
L_end_RecuperarHoraRTC:
	POP	W13
	POP	W12
	POP	W11
	POP	W10
	ULNK
	RETURN
; end of _RecuperarHoraRTC

_RecuperarFechaRTC:
	LNK	#4

;tiempo_rtc.c,157 :: 		unsigned long RecuperarFechaRTC(){
;tiempo_rtc.c,165 :: 		SPI2_Init_Advanced(_SPI_MASTER, _SPI_8_BIT, _SPI_PRESCALE_SEC_1, _SPI_PRESCALE_PRI_64, _SPI_SS_DISABLE, _SPI_DATA_SAMPLE_MIDDLE, _SPI_CLK_IDLE_LOW, _SPI_ACTIVE_2_IDLE);
	PUSH	W10
	PUSH	W11
	PUSH	W12
	PUSH	W13
	CLR	W13
	MOV	#28, W12
	CLR	W11
	MOV	#32, W10
	CLR	W0
	PUSH	W0
	CLR	W0
	PUSH	W0
	CLR	W0
	PUSH	W0
	CLR	W0
	PUSH	W0
	CALL	_SPI2_Init_Advanced
	SUB	#8, W15
;tiempo_rtc.c,167 :: 		valueRead = DS3234_read_byte(DiaMes_Lec);
	MOV.B	#4, W10
	CALL	_DS3234_read_byte
;tiempo_rtc.c,168 :: 		valueRead = Bcd2Dec(valueRead);
	MOV.B	W0, W10
	CALL	_Bcd2Dec
;tiempo_rtc.c,169 :: 		dia = (long)valueRead;
; dia start address is: 12 (W6)
	ZE	W0, W6
	CLR	W7
;tiempo_rtc.c,170 :: 		valueRead = 0x1F & DS3234_read_byte(Mes_Lec);
	MOV.B	#5, W10
	CALL	_DS3234_read_byte
	ZE	W0, W0
	AND	W0, #31, W0
;tiempo_rtc.c,171 :: 		valueRead = Bcd2Dec(valueRead);
	MOV.B	W0, W10
	CALL	_Bcd2Dec
;tiempo_rtc.c,172 :: 		mes = (long)valueRead;
; mes start address is: 16 (W8)
	ZE	W0, W8
	CLR	W9
;tiempo_rtc.c,173 :: 		valueRead = DS3234_read_byte(Anio_Lec);
	MOV.B	#6, W10
	CALL	_DS3234_read_byte
;tiempo_rtc.c,174 :: 		valueRead = Bcd2Dec(valueRead);
	MOV.B	W0, W10
	CALL	_Bcd2Dec
;tiempo_rtc.c,175 :: 		anio = (long)valueRead;
	ZE	W0, W0
	CLR	W1
;tiempo_rtc.c,177 :: 		fechaRTC = (anio*10000)+(mes*100)+(dia);                                   //10000*aa + 100*mm + dd
	MOV	#10000, W2
	MOV	#0, W3
	CALL	__Multiply_32x32
	MOV	W0, [W14+0]
	MOV	W1, [W14+2]
	MOV.D	W8, W0
	MOV	#100, W2
	MOV	#0, W3
	CALL	__Multiply_32x32
; mes end address is: 16 (W8)
	MOV	[W14+0], W2
	MOV	[W14+2], W3
	ADD	W2, W0, W0
	ADDC	W3, W1, W1
; fechaRTC start address is: 4 (W2)
	ADD	W0, W6, W2
	ADDC	W1, W7, W3
; dia end address is: 12 (W6)
;tiempo_rtc.c,179 :: 		SPI2_Init();
	CALL	_SPI2_Init
;tiempo_rtc.c,181 :: 		return fechaRTC;
	MOV.D	W2, W0
; fechaRTC end address is: 4 (W2)
;tiempo_rtc.c,183 :: 		}
;tiempo_rtc.c,181 :: 		return fechaRTC;
;tiempo_rtc.c,183 :: 		}
L_end_RecuperarFechaRTC:
	POP	W13
	POP	W12
	POP	W11
	POP	W10
	ULNK
	RETURN
; end of _RecuperarFechaRTC

_IncrementarFecha:
	LNK	#4

;tiempo_rtc.c,186 :: 		unsigned long IncrementarFecha(unsigned long longFecha){
;tiempo_rtc.c,193 :: 		anio = longFecha / 10000;
	PUSH.D	W10
	MOV	#10000, W2
	MOV	#0, W3
	MOV.D	W10, W0
	CLR	W4
	CALL	__Divide_32x32
	POP.D	W10
; anio start address is: 4 (W2)
	MOV.D	W0, W2
;tiempo_rtc.c,194 :: 		mes = (longFecha%10000) / 100;
	PUSH.D	W2
	MOV	#10000, W2
	MOV	#0, W3
	MOV.D	W10, W0
	CLR	W4
	CALL	__Modulus_32x32
	MOV	W0, [W14+0]
	MOV	W1, [W14+2]
	MOV	#100, W2
	MOV	#0, W3
	CLR	W4
	CALL	__Divide_32x32
	POP.D	W2
; mes start address is: 8 (W4)
	MOV.D	W0, W4
;tiempo_rtc.c,195 :: 		dia = (longFecha%10000) % 100;
	MOV	[W14+0], W0
	MOV	[W14+2], W1
	PUSH.D	W4
	PUSH.D	W2
	MOV	#100, W2
	MOV	#0, W3
	CLR	W4
	CALL	__Modulus_32x32
	POP.D	W2
	POP.D	W4
; dia start address is: 12 (W6)
	MOV.D	W0, W6
;tiempo_rtc.c,197 :: 		if (dia<28){
	CP	W0, #28
	CPB	W1, #0
	BRA LTU	L__IncrementarFecha235
	GOTO	L_IncrementarFecha22
L__IncrementarFecha235:
;tiempo_rtc.c,198 :: 		dia++;
; dia start address is: 16 (W8)
	ADD	W6, #1, W8
	ADDC	W7, #0, W9
; dia end address is: 12 (W6)
;tiempo_rtc.c,199 :: 		} else {
; dia end address is: 16 (W8)
	MOV.D	W4, W6
	GOTO	L_IncrementarFecha23
L_IncrementarFecha22:
;tiempo_rtc.c,200 :: 		if (mes==2){
; dia start address is: 12 (W6)
	CP	W4, #2
	CPB	W5, #0
	BRA Z	L__IncrementarFecha236
	GOTO	L_IncrementarFecha24
L__IncrementarFecha236:
;tiempo_rtc.c,202 :: 		if (((anio-16)%4)==0){
	SUB	W2, #16, W0
	SUBB	W3, #0, W1
	AND	W0, #3, W0
	AND	W1, #0, W1
	CP	W0, #0
	CPB	W1, #0
	BRA Z	L__IncrementarFecha237
	GOTO	L_IncrementarFecha25
L__IncrementarFecha237:
;tiempo_rtc.c,203 :: 		if (dia==29){
	CP	W6, #29
	CPB	W7, #0
	BRA Z	L__IncrementarFecha238
	GOTO	L_IncrementarFecha26
L__IncrementarFecha238:
; dia end address is: 12 (W6)
;tiempo_rtc.c,204 :: 		dia = 1;
; dia start address is: 0 (W0)
	MOV	#1, W0
	MOV	#0, W1
;tiempo_rtc.c,205 :: 		mes++;
	ADD	W4, #1, W4
	ADDC	W5, #0, W5
;tiempo_rtc.c,206 :: 		} else {
; dia end address is: 0 (W0)
	GOTO	L_IncrementarFecha27
L_IncrementarFecha26:
;tiempo_rtc.c,207 :: 		dia++;
; dia start address is: 0 (W0)
; dia start address is: 12 (W6)
	ADD	W6, #1, W0
	ADDC	W7, #0, W1
; dia end address is: 12 (W6)
; mes end address is: 8 (W4)
; dia end address is: 0 (W0)
;tiempo_rtc.c,208 :: 		}
L_IncrementarFecha27:
;tiempo_rtc.c,209 :: 		} else {
; dia start address is: 0 (W0)
; mes start address is: 8 (W4)
	MOV.D	W0, W8
; dia end address is: 0 (W0)
	MOV.D	W4, W6
	GOTO	L_IncrementarFecha28
L_IncrementarFecha25:
;tiempo_rtc.c,210 :: 		dia = 1;
; dia start address is: 0 (W0)
	MOV	#1, W0
	MOV	#0, W1
;tiempo_rtc.c,211 :: 		mes++;
	ADD	W4, #1, W4
	ADDC	W5, #0, W5
	MOV.D	W0, W8
; mes end address is: 8 (W4)
; dia end address is: 0 (W0)
	MOV.D	W4, W6
;tiempo_rtc.c,212 :: 		}
L_IncrementarFecha28:
;tiempo_rtc.c,213 :: 		} else {
; mes start address is: 12 (W6)
; dia start address is: 16 (W8)
; mes end address is: 12 (W6)
; dia end address is: 16 (W8)
	GOTO	L_IncrementarFecha29
L_IncrementarFecha24:
;tiempo_rtc.c,214 :: 		if (dia<30){
; mes start address is: 8 (W4)
; dia start address is: 12 (W6)
	CP	W6, #30
	CPB	W7, #0
	BRA LTU	L__IncrementarFecha239
	GOTO	L_IncrementarFecha30
L__IncrementarFecha239:
;tiempo_rtc.c,215 :: 		dia++;
; dia start address is: 0 (W0)
	ADD	W6, #1, W0
	ADDC	W7, #0, W1
; dia end address is: 12 (W6)
;tiempo_rtc.c,216 :: 		} else {
	PUSH.D	W4
; dia end address is: 0 (W0)
	MOV.D	W2, W4
	MOV.D	W0, W2
	POP.D	W0
	GOTO	L_IncrementarFecha31
L_IncrementarFecha30:
;tiempo_rtc.c,217 :: 		if (mes==4||mes==6||mes==9||mes==11){
; dia start address is: 12 (W6)
	CP	W4, #4
	CPB	W5, #0
	BRA NZ	L__IncrementarFecha240
	GOTO	L__IncrementarFecha147
L__IncrementarFecha240:
	CP	W4, #6
	CPB	W5, #0
	BRA NZ	L__IncrementarFecha241
	GOTO	L__IncrementarFecha146
L__IncrementarFecha241:
	CP	W4, #9
	CPB	W5, #0
	BRA NZ	L__IncrementarFecha242
	GOTO	L__IncrementarFecha145
L__IncrementarFecha242:
	CP	W4, #11
	CPB	W5, #0
	BRA NZ	L__IncrementarFecha243
	GOTO	L__IncrementarFecha144
L__IncrementarFecha243:
	MOV.D	W4, W0
	MOV.D	W6, W4
	GOTO	L_IncrementarFecha34
L__IncrementarFecha147:
L__IncrementarFecha146:
L__IncrementarFecha145:
L__IncrementarFecha144:
;tiempo_rtc.c,218 :: 		if (dia==30){
	CP	W6, #30
	CPB	W7, #0
	BRA Z	L__IncrementarFecha244
	GOTO	L_IncrementarFecha35
L__IncrementarFecha244:
; dia end address is: 12 (W6)
;tiempo_rtc.c,219 :: 		dia = 1;
; dia start address is: 0 (W0)
	MOV	#1, W0
	MOV	#0, W1
;tiempo_rtc.c,220 :: 		mes++;
	ADD	W4, #1, W4
	ADDC	W5, #0, W5
;tiempo_rtc.c,221 :: 		} else {
	PUSH.D	W0
; dia end address is: 0 (W0)
	MOV.D	W4, W0
	POP.D	W4
	GOTO	L_IncrementarFecha36
L_IncrementarFecha35:
;tiempo_rtc.c,222 :: 		dia++;
; dia start address is: 0 (W0)
; dia start address is: 12 (W6)
	ADD	W6, #1, W0
	ADDC	W7, #0, W1
; dia end address is: 12 (W6)
	PUSH.D	W0
; mes end address is: 8 (W4)
; dia end address is: 0 (W0)
	MOV.D	W4, W0
	POP.D	W4
;tiempo_rtc.c,223 :: 		}
L_IncrementarFecha36:
;tiempo_rtc.c,224 :: 		}
; dia start address is: 8 (W4)
; mes start address is: 0 (W0)
; dia end address is: 8 (W4)
; mes end address is: 0 (W0)
L_IncrementarFecha34:
;tiempo_rtc.c,225 :: 		if ((dia!=1)&&(mes==1||mes==3||mes==5||mes==7||mes==8||mes==10)){
; mes start address is: 0 (W0)
; dia start address is: 8 (W4)
	CP	W4, #1
	CPB	W5, #0
	BRA NZ	L__IncrementarFecha245
	GOTO	L__IncrementarFecha157
L__IncrementarFecha245:
	CP	W0, #1
	CPB	W1, #0
	BRA NZ	L__IncrementarFecha246
	GOTO	L__IncrementarFecha153
L__IncrementarFecha246:
	CP	W0, #3
	CPB	W1, #0
	BRA NZ	L__IncrementarFecha247
	GOTO	L__IncrementarFecha152
L__IncrementarFecha247:
	CP	W0, #5
	CPB	W1, #0
	BRA NZ	L__IncrementarFecha248
	GOTO	L__IncrementarFecha151
L__IncrementarFecha248:
	CP	W0, #7
	CPB	W1, #0
	BRA NZ	L__IncrementarFecha249
	GOTO	L__IncrementarFecha150
L__IncrementarFecha249:
	CP	W0, #8
	CPB	W1, #0
	BRA NZ	L__IncrementarFecha250
	GOTO	L__IncrementarFecha149
L__IncrementarFecha250:
	CP	W0, #10
	CPB	W1, #0
	BRA NZ	L__IncrementarFecha251
	GOTO	L__IncrementarFecha148
L__IncrementarFecha251:
	GOTO	L_IncrementarFecha41
L__IncrementarFecha153:
L__IncrementarFecha152:
L__IncrementarFecha151:
L__IncrementarFecha150:
L__IncrementarFecha149:
L__IncrementarFecha148:
L__IncrementarFecha141:
;tiempo_rtc.c,226 :: 		if (dia==31){
	CP	W4, #31
	CPB	W5, #0
	BRA Z	L__IncrementarFecha252
	GOTO	L_IncrementarFecha42
L__IncrementarFecha252:
;tiempo_rtc.c,227 :: 		dia = 1;
	MOV	#1, W4
	MOV	#0, W5
;tiempo_rtc.c,228 :: 		mes++;
	ADD	W0, #1, W0
	ADDC	W1, #0, W1
;tiempo_rtc.c,229 :: 		} else {
	GOTO	L_IncrementarFecha43
L_IncrementarFecha42:
;tiempo_rtc.c,230 :: 		dia++;
	ADD	W4, #1, W4
	ADDC	W5, #0, W5
; dia end address is: 8 (W4)
; mes end address is: 0 (W0)
;tiempo_rtc.c,231 :: 		}
L_IncrementarFecha43:
;tiempo_rtc.c,232 :: 		}
; dia start address is: 8 (W4)
; mes start address is: 0 (W0)
; dia end address is: 8 (W4)
; mes end address is: 0 (W0)
L_IncrementarFecha41:
;tiempo_rtc.c,225 :: 		if ((dia!=1)&&(mes==1||mes==3||mes==5||mes==7||mes==8||mes==10)){
; mes start address is: 0 (W0)
; dia start address is: 8 (W4)
; dia end address is: 8 (W4)
; mes end address is: 0 (W0)
	GOTO	L__IncrementarFecha154
L__IncrementarFecha157:
L__IncrementarFecha154:
;tiempo_rtc.c,233 :: 		if ((dia!=1)&&(mes==12)){
; dia start address is: 8 (W4)
; mes start address is: 0 (W0)
	CP	W4, #1
	CPB	W5, #0
	BRA NZ	L__IncrementarFecha253
	GOTO	L__IncrementarFecha158
L__IncrementarFecha253:
	CP	W0, #12
	CPB	W1, #0
	BRA Z	L__IncrementarFecha254
	GOTO	L__IncrementarFecha159
L__IncrementarFecha254:
L__IncrementarFecha140:
;tiempo_rtc.c,234 :: 		if (dia==31){
	CP	W4, #31
	CPB	W5, #0
	BRA Z	L__IncrementarFecha255
	GOTO	L_IncrementarFecha47
L__IncrementarFecha255:
; mes end address is: 0 (W0)
;tiempo_rtc.c,235 :: 		dia = 1;
	MOV	#1, W4
	MOV	#0, W5
;tiempo_rtc.c,236 :: 		mes = 1;
; mes start address is: 0 (W0)
	MOV	#1, W0
	MOV	#0, W1
;tiempo_rtc.c,237 :: 		anio++;
	ADD	W2, #1, W2
	ADDC	W3, #0, W3
;tiempo_rtc.c,238 :: 		} else {
	GOTO	L_IncrementarFecha48
L_IncrementarFecha47:
;tiempo_rtc.c,239 :: 		dia++;
	ADD	W4, #1, W4
	ADDC	W5, #0, W5
; dia end address is: 8 (W4)
; mes end address is: 0 (W0)
; anio end address is: 4 (W2)
;tiempo_rtc.c,240 :: 		}
L_IncrementarFecha48:
;tiempo_rtc.c,233 :: 		if ((dia!=1)&&(mes==12)){
; dia start address is: 8 (W4)
; anio start address is: 4 (W2)
; mes start address is: 0 (W0)
; dia end address is: 8 (W4)
; mes end address is: 0 (W0)
; anio end address is: 4 (W2)
	GOTO	L__IncrementarFecha156
L__IncrementarFecha158:
L__IncrementarFecha156:
; mes start address is: 0 (W0)
; anio start address is: 4 (W2)
; dia start address is: 8 (W4)
; dia end address is: 8 (W4)
; mes end address is: 0 (W0)
; anio end address is: 4 (W2)
	GOTO	L__IncrementarFecha155
L__IncrementarFecha159:
L__IncrementarFecha155:
;tiempo_rtc.c,242 :: 		}
; dia start address is: 8 (W4)
; anio start address is: 4 (W2)
; mes start address is: 0 (W0)
	PUSH.D	W2
; dia end address is: 8 (W4)
; mes end address is: 0 (W0)
; anio end address is: 4 (W2)
	MOV.D	W4, W2
	POP.D	W4
L_IncrementarFecha31:
;tiempo_rtc.c,243 :: 		}
; mes start address is: 0 (W0)
; anio start address is: 8 (W4)
; dia start address is: 4 (W2)
	MOV.D	W0, W6
; mes end address is: 0 (W0)
; anio end address is: 8 (W4)
; dia end address is: 4 (W2)
	MOV.D	W2, W8
	MOV.D	W4, W2
L_IncrementarFecha29:
;tiempo_rtc.c,245 :: 		}
; dia start address is: 16 (W8)
; anio start address is: 4 (W2)
; mes start address is: 12 (W6)
; mes end address is: 12 (W6)
; anio end address is: 4 (W2)
; dia end address is: 16 (W8)
L_IncrementarFecha23:
;tiempo_rtc.c,247 :: 		fechaInc = (anio*10000)+(mes*100)+(dia);                                   //10000*aa + 100*mm + dd
; mes start address is: 12 (W6)
; anio start address is: 4 (W2)
; dia start address is: 16 (W8)
	MOV	#10000, W0
	MOV	#0, W1
	CALL	__Multiply_32x32
; anio end address is: 4 (W2)
	MOV	W0, [W14+0]
	MOV	W1, [W14+2]
	MOV.D	W6, W0
	MOV	#100, W2
	MOV	#0, W3
	CALL	__Multiply_32x32
; mes end address is: 12 (W6)
	MOV	[W14+0], W2
	MOV	[W14+2], W3
	ADD	W2, W0, W0
	ADDC	W3, W1, W1
	ADD	W0, W8, W0
	ADDC	W1, W9, W1
; dia end address is: 16 (W8)
;tiempo_rtc.c,248 :: 		return fechaInc;
;tiempo_rtc.c,250 :: 		}
L_end_IncrementarFecha:
	ULNK
	RETURN
; end of _IncrementarFecha

_AjustarTiempoSistema:
	LNK	#14

;tiempo_rtc.c,253 :: 		void AjustarTiempoSistema(unsigned long longHora, unsigned long longFecha, unsigned short *tramaTiempoSistema){
	MOV	[W14-8], W0
	MOV	W0, [W14-8]
;tiempo_rtc.c,262 :: 		hora = (short)(longHora / 3600);
	PUSH.D	W12
	PUSH.D	W10
	MOV	#3600, W2
	MOV	#0, W3
	MOV.D	W10, W0
	CLR	W4
	CALL	__Divide_32x32
	POP.D	W10
	MOV.B	W0, [W14+0]
;tiempo_rtc.c,263 :: 		minuto = (short)((longHora%3600) / 60);
	MOV	#3600, W2
	MOV	#0, W3
	MOV.D	W10, W0
	CLR	W4
	CALL	__Modulus_32x32
	MOV	W0, [W14+10]
	MOV	W1, [W14+12]
	MOV	#60, W2
	MOV	#0, W3
	CLR	W4
	CALL	__Divide_32x32
	MOV.B	W0, [W14+1]
;tiempo_rtc.c,264 :: 		segundo = (short)((longHora%3600) % 60);
	MOV	[W14+10], W0
	MOV	[W14+12], W1
	MOV	#60, W2
	MOV	#0, W3
	CLR	W4
	CALL	__Modulus_32x32
	POP.D	W12
	MOV.B	W0, [W14+2]
;tiempo_rtc.c,266 :: 		anio = (short)(longFecha / 10000);
	PUSH.D	W12
	MOV	#10000, W2
	MOV	#0, W3
	MOV.D	W12, W0
	CLR	W4
	CALL	__Divide_32x32
	POP.D	W12
	MOV.B	W0, [W14+4]
;tiempo_rtc.c,267 :: 		mes = (short)((longFecha%10000) / 100);
	MOV	#10000, W2
	MOV	#0, W3
	MOV.D	W12, W0
	CLR	W4
	CALL	__Modulus_32x32
	MOV	W0, [W14+10]
	MOV	W1, [W14+12]
	MOV	#100, W2
	MOV	#0, W3
	CLR	W4
	CALL	__Divide_32x32
	MOV.B	W0, [W14+3]
;tiempo_rtc.c,268 :: 		dia = (short)((longFecha%10000) % 100);
	MOV	[W14+10], W0
	MOV	[W14+12], W1
	MOV	#100, W2
	MOV	#0, W3
	CLR	W4
	CALL	__Modulus_32x32
; dia start address is: 4 (W2)
	MOV.B	W0, W2
;tiempo_rtc.c,270 :: 		tramaTiempoSistema[0] = anio;
	MOV	[W14-8], W1
	MOV.B	[W14+4], W0
	MOV.B	W0, [W1]
;tiempo_rtc.c,271 :: 		tramaTiempoSistema[1] = mes;
	MOV	[W14-8], W0
	ADD	W0, #1, W1
	MOV.B	[W14+3], W0
	MOV.B	W0, [W1]
;tiempo_rtc.c,272 :: 		tramaTiempoSistema[2] = dia;
	MOV	[W14-8], W0
	INC2	W0
	MOV.B	W2, [W0]
; dia end address is: 4 (W2)
;tiempo_rtc.c,273 :: 		tramaTiempoSistema[3] = hora;
	MOV	[W14-8], W0
	ADD	W0, #3, W1
	MOV.B	[W14+0], W0
	MOV.B	W0, [W1]
;tiempo_rtc.c,274 :: 		tramaTiempoSistema[4] = minuto;
	MOV	[W14-8], W0
	ADD	W0, #4, W1
	MOV.B	[W14+1], W0
	MOV.B	W0, [W1]
;tiempo_rtc.c,275 :: 		tramaTiempoSistema[5] = segundo;
	MOV	[W14-8], W0
	ADD	W0, #5, W1
	MOV.B	[W14+2], W0
	MOV.B	W0, [W1]
;tiempo_rtc.c,277 :: 		}
L_end_AjustarTiempoSistema:
	ULNK
	RETURN
; end of _AjustarTiempoSistema

_RecuperarFechaRPI:
	LNK	#4

;tiempo_rpi.c,10 :: 		unsigned long RecuperarFechaRPI(unsigned short *tramaTiempoRpi){
;tiempo_rpi.c,14 :: 		fechaRPi = ((long)tramaTiempoRpi[0]*10000)+((long)tramaTiempoRpi[1]*100)+((long)tramaTiempoRpi[2]);      //10000*dd + 100*mm + aa
	ZE	[W10], W0
	CLR	W1
	MOV	#10000, W2
	MOV	#0, W3
	CALL	__Multiply_32x32
	MOV	W0, [W14+0]
	MOV	W1, [W14+2]
	ADD	W10, #1, W0
	ZE	[W0], W0
	CLR	W1
	MOV	#100, W2
	MOV	#0, W3
	CALL	__Multiply_32x32
	MOV	[W14+0], W2
	MOV	[W14+2], W3
	ADD	W2, W0, W2
	ADDC	W3, W1, W3
	ADD	W10, #2, W0
	ZE	[W0], W0
	CLR	W1
	ADD	W2, W0, W0
	ADDC	W3, W1, W1
;tiempo_rpi.c,16 :: 		return fechaRPi;
;tiempo_rpi.c,18 :: 		}
L_end_RecuperarFechaRPI:
	ULNK
	RETURN
; end of _RecuperarFechaRPI

_RecuperarHoraRPI:
	LNK	#4

;tiempo_rpi.c,21 :: 		unsigned long RecuperarHoraRPI(unsigned short *tramaTiempoRpi){
;tiempo_rpi.c,25 :: 		horaRPi = ((long)tramaTiempoRpi[3]*3600)+((long)tramaTiempoRpi[4]*60)+((long)tramaTiempoRpi[5]);      //Calcula el segundo actual = hh*3600 + mm*60 + ss
	ADD	W10, #3, W0
	ZE	[W0], W0
	CLR	W1
	MOV	#3600, W2
	MOV	#0, W3
	CALL	__Multiply_32x32
	MOV	W0, [W14+0]
	MOV	W1, [W14+2]
	ADD	W10, #4, W0
	ZE	[W0], W0
	CLR	W1
	MOV	#60, W2
	MOV	#0, W3
	CALL	__Multiply_32x32
	MOV	[W14+0], W2
	MOV	[W14+2], W3
	ADD	W2, W0, W2
	ADDC	W3, W1, W3
	ADD	W10, #5, W0
	ZE	[W0], W0
	CLR	W1
	ADD	W2, W0, W0
	ADDC	W3, W1, W1
;tiempo_rpi.c,27 :: 		return horaRPi;
;tiempo_rpi.c,29 :: 		}
L_end_RecuperarHoraRPI:
	ULNK
	RETURN
; end of _RecuperarHoraRPI

_main:
	MOV	#2048, W15
	MOV	#6142, W0
	MOV	WREG, 32
	MOV	#1, W0
	MOV	WREG, 50
	MOV	#4, W0
	IOR	68

;Acelerografo.c,87 :: 		void main() {
;Acelerografo.c,90 :: 		ConfiguracionPrincipal();
	PUSH	W10
	PUSH	W11
	CALL	_ConfiguracionPrincipal
;Acelerografo.c,91 :: 		GPS_init(1,1);                                                           //Inicializa el GPS en modo configuracion y tipo de trama GPRMC
	MOV.B	#1, W11
	MOV.B	#1, W10
	CALL	_GPS_init
;Acelerografo.c,92 :: 		DS3234_init();                                                             //inicializa el RTC
	CALL	_DS3234_init
;Acelerografo.c,93 :: 		tasaMuestreo = 1;                                                          //1=250Hz, 2=125Hz, 4=62.5Hz, 8=31.25Hz
	MOV	#lo_addr(_tasaMuestreo), W1
	MOV.B	#1, W0
	MOV.B	W0, [W1]
;Acelerografo.c,94 :: 		ADXL355_init(tasaMuestreo);                                                //Inicializa el modulo ADXL con la tasa de muestreo requerida:
	MOV.B	#1, W10
	CALL	_ADXL355_init
;Acelerografo.c,95 :: 		numTMR1 = (tasaMuestreo*10)-1;                                             //Calcula el numero de veces que tienen que desbordarse el TMR1 para cada tasa de muestreo
	MOV	#lo_addr(_tasaMuestreo), W0
	ZE	[W0], W1
	MOV	#10, W0
	MUL.UU	W1, W0, W2
	MOV	#lo_addr(_numTMR1), W0
	SUB.B	W2, #1, [W0]
;Acelerografo.c,98 :: 		banOperacion = 0;
	MOV	#lo_addr(_banOperacion), W1
	CLR	W0
	MOV.B	W0, [W1]
;Acelerografo.c,99 :: 		tipoOperacion = 0;
	MOV	#lo_addr(_tipoOperacion), W1
	CLR	W0
	MOV.B	W0, [W1]
;Acelerografo.c,102 :: 		banSPI0 = 0;
	MOV	#lo_addr(_banSPI0), W1
	CLR	W0
	MOV.B	W0, [W1]
;Acelerografo.c,103 :: 		banSPI1 = 0;
	MOV	#lo_addr(_banSPI1), W1
	CLR	W0
	MOV.B	W0, [W1]
;Acelerografo.c,104 :: 		banSPI2 = 0;
	MOV	#lo_addr(_banSPI2), W1
	CLR	W0
	MOV.B	W0, [W1]
;Acelerografo.c,105 :: 		banSPI3 = 0;
	MOV	#lo_addr(_banSPI3), W1
	CLR	W0
	MOV.B	W0, [W1]
;Acelerografo.c,106 :: 		banSPI4 = 0;
	MOV	#lo_addr(_banSPI4), W1
	CLR	W0
	MOV.B	W0, [W1]
;Acelerografo.c,107 :: 		banSPI5 = 0;
	MOV	#lo_addr(_banSPI5), W1
	CLR	W0
	MOV.B	W0, [W1]
;Acelerografo.c,108 :: 		banSPI6 = 0;
	MOV	#lo_addr(_banSPI6), W1
	CLR	W0
	MOV.B	W0, [W1]
;Acelerografo.c,109 :: 		banSPI7 = 0;
	MOV	#lo_addr(_banSPI7), W1
	CLR	W0
	MOV.B	W0, [W1]
;Acelerografo.c,110 :: 		banSPI8 = 0;
	MOV	#lo_addr(_banSPI8), W1
	CLR	W0
	MOV.B	W0, [W1]
;Acelerografo.c,111 :: 		banSPI9 = 0;
	MOV	#lo_addr(_banSPI9), W1
	CLR	W0
	MOV.B	W0, [W1]
;Acelerografo.c,112 :: 		banSPIA = 0;
	MOV	#lo_addr(_banSPIA), W1
	CLR	W0
	MOV.B	W0, [W1]
;Acelerografo.c,114 :: 		banLec = 0;
	MOV	#lo_addr(_banLec), W1
	CLR	W0
	MOV.B	W0, [W1]
;Acelerografo.c,115 :: 		banEsc = 0;
	MOV	#lo_addr(_banEsc), W1
	CLR	W0
	MOV.B	W0, [W1]
;Acelerografo.c,116 :: 		banCiclo = 0;
	MOV	#lo_addr(_banCiclo), W1
	CLR	W0
	MOV.B	W0, [W1]
;Acelerografo.c,117 :: 		banSetReloj = 0;
	MOV	#lo_addr(_banSetReloj), W1
	CLR	W0
	MOV.B	W0, [W1]
;Acelerografo.c,118 :: 		banSyncReloj = 0;
	MOV	#lo_addr(_banSyncReloj), W1
	CLR	W0
	MOV.B	W0, [W1]
;Acelerografo.c,120 :: 		banGPSI = 0;
	MOV	#lo_addr(_banGPSI), W1
	CLR	W0
	MOV.B	W0, [W1]
;Acelerografo.c,121 :: 		banGPSC = 0;
	MOV	#lo_addr(_banGPSC), W1
	CLR	W0
	MOV.B	W0, [W1]
;Acelerografo.c,122 :: 		fuenteReloj = 0;
	MOV	#lo_addr(_fuenteReloj), W1
	CLR	W0
	MOV.B	W0, [W1]
;Acelerografo.c,123 :: 		contTimeout1 = 0;
	MOV	#lo_addr(_contTimeout1), W1
	CLR	W0
	MOV.B	W0, [W1]
;Acelerografo.c,125 :: 		banMuestrear = 0;                                                          //Inicia el programa con esta bandera en bajo para permitir que la RPi envie la peticion de inicio de muestreo
	MOV	#lo_addr(_banMuestrear), W1
	CLR	W0
	MOV.B	W0, [W1]
;Acelerografo.c,126 :: 		banInicioMuestreo = 0;                                                             //Bandera de inicio de muestreo
	MOV	#lo_addr(_banInicioMuestreo), W1
	CLR	W0
	MOV.B	W0, [W1]
;Acelerografo.c,128 :: 		i = 0;
	CLR	W0
	MOV	W0, _i
;Acelerografo.c,129 :: 		x = 0;
	CLR	W0
	MOV	W0, _x
;Acelerografo.c,130 :: 		y = 0;
	CLR	W0
	MOV	W0, _y
;Acelerografo.c,131 :: 		i_gps = 0;
	CLR	W0
	MOV	W0, _i_gps
;Acelerografo.c,132 :: 		horaSistema = 0;
	CLR	W0
	CLR	W1
	MOV	W0, _horaSistema
	MOV	W1, _horaSistema+2
;Acelerografo.c,134 :: 		contMuestras = 0;
	MOV	#lo_addr(_contMuestras), W1
	CLR	W0
	MOV.B	W0, [W1]
;Acelerografo.c,135 :: 		contCiclos = 0;
	MOV	#lo_addr(_contCiclos), W1
	CLR	W0
	MOV.B	W0, [W1]
;Acelerografo.c,136 :: 		contFIFO = 0;
	CLR	W0
	MOV	W0, _contFIFO
;Acelerografo.c,137 :: 		numFIFO = 0;
	MOV	#lo_addr(_numFIFO), W1
	CLR	W0
	MOV.B	W0, [W1]
;Acelerografo.c,138 :: 		numSetsFIFO = 0;
	MOV	#lo_addr(_numSetsFIFO), W1
	CLR	W0
	MOV.B	W0, [W1]
;Acelerografo.c,139 :: 		contTimer1 = 0;
	MOV	#lo_addr(_contTimer1), W1
	CLR	W0
	MOV.B	W0, [W1]
;Acelerografo.c,141 :: 		byteGPS = 0;
	MOV	#lo_addr(_byteGPS), W1
	CLR	W0
	MOV.B	W0, [W1]
;Acelerografo.c,143 :: 		RP1 = 0;
	BCLR	LATA4_bit, BitPos(LATA4_bit+0)
;Acelerografo.c,144 :: 		RP2 = 0;
	BCLR	LATB4_bit, BitPos(LATB4_bit+0)
;Acelerografo.c,145 :: 		LedTest = 1;
	BSET	LATB12_bit, BitPos(LATB12_bit+0)
;Acelerografo.c,147 :: 		SPI1BUF = 0x00;
	CLR	SPI1BUF
;Acelerografo.c,150 :: 		while(1){
L_main49:
;Acelerografo.c,152 :: 		}
	GOTO	L_main49
;Acelerografo.c,154 :: 		}
L_end_main:
	POP	W11
	POP	W10
L__main_end_loop:
	BRA	L__main_end_loop
; end of _main

_ConfiguracionPrincipal:

;Acelerografo.c,163 :: 		void ConfiguracionPrincipal(){
;Acelerografo.c,166 :: 		CLKDIVbits.FRCDIV = 0;                                                     //FIN=FRC/1
	PUSH	W10
	PUSH	W11
	PUSH	W12
	PUSH	W13
	MOV	CLKDIVbits, W1
	MOV	#63743, W0
	AND	W1, W0, W0
	MOV	WREG, CLKDIVbits
;Acelerografo.c,167 :: 		CLKDIVbits.PLLPOST = 0;                                                    //N2=2
	MOV	#lo_addr(CLKDIVbits), W0
	MOV.B	[W0], W1
	MOV.B	#63, W0
	AND.B	W1, W0, W1
	MOV	#lo_addr(CLKDIVbits), W0
	MOV.B	W1, [W0]
;Acelerografo.c,168 :: 		CLKDIVbits.PLLPRE = 5;                                                     //N1=7
	MOV.B	#5, W0
	MOV.B	W0, W1
	MOV	#lo_addr(CLKDIVbits), W0
	XOR.B	W1, [W0], W1
	AND.B	W1, #31, W1
	MOV	#lo_addr(CLKDIVbits), W0
	XOR.B	W1, [W0], W1
	MOV	#lo_addr(CLKDIVbits), W0
	MOV.B	W1, [W0]
;Acelerografo.c,169 :: 		PLLFBDbits.PLLDIV = 150;                                                   //M=152
	MOV	#150, W0
	MOV	W0, W1
	MOV	#lo_addr(PLLFBDbits), W0
	XOR	W1, [W0], W1
	MOV	#511, W0
	AND	W1, W0, W1
	MOV	#lo_addr(PLLFBDbits), W0
	XOR	W1, [W0], W1
	MOV	W1, PLLFBDbits
;Acelerografo.c,172 :: 		ANSELA = 0;                                                                //Configura PORTA como digital     *
	CLR	ANSELA
;Acelerografo.c,173 :: 		ANSELB = 0;                                                                //Configura PORTB como digital     *
	CLR	ANSELB
;Acelerografo.c,174 :: 		TRISA2_bit = 0;                                                            //Configura el pin A2 como salida  *
	BCLR	TRISA2_bit, BitPos(TRISA2_bit+0)
;Acelerografo.c,175 :: 		TRISA3_bit = 0;                                                            //Configura el pin A3 como salida  *
	BCLR	TRISA3_bit, BitPos(TRISA3_bit+0)
;Acelerografo.c,176 :: 		TRISA4_bit = 0;                                                            //Configura el pin A4 como salida  *
	BCLR	TRISA4_bit, BitPos(TRISA4_bit+0)
;Acelerografo.c,177 :: 		TRISB4_bit = 0;                                                            //Configura el pin B4 como salida  *
	BCLR	TRISB4_bit, BitPos(TRISB4_bit+0)
;Acelerografo.c,178 :: 		TRISB12_bit = 0;                                                           //Configura el pin B12 como salida *
	BCLR	TRISB12_bit, BitPos(TRISB12_bit+0)
;Acelerografo.c,180 :: 		TRISB10_bit = 1;                                                           //Configura el pin B10 como entrada *
	BSET	TRISB10_bit, BitPos(TRISB10_bit+0)
;Acelerografo.c,181 :: 		TRISB11_bit = 1;                                                           //Configura el pin B11 como entrada *
	BSET	TRISB11_bit, BitPos(TRISB11_bit+0)
;Acelerografo.c,182 :: 		TRISB13_bit = 1;                                                           //Configura el pin B13 como entrada *
	BSET	TRISB13_bit, BitPos(TRISB13_bit+0)
;Acelerografo.c,183 :: 		TRISB14_bit = 1;
	BSET	TRISB14_bit, BitPos(TRISB14_bit+0)
;Acelerografo.c,184 :: 		TRISB15_bit = 1;                                                           //Configura el pin B15 como entrada *
	BSET	TRISB15_bit, BitPos(TRISB15_bit+0)
;Acelerografo.c,186 :: 		INTCON2.GIE = 1;                                                           //Habilita las interrupciones globales *
	BSET	INTCON2, #15
;Acelerografo.c,189 :: 		RPINR18bits.U1RXR = 0x22;                                                  //Configura el pin RB2/RPI34 como Rx1 *
	MOV.B	#34, W0
	MOV.B	W0, W1
	MOV	#lo_addr(RPINR18bits), W0
	XOR.B	W1, [W0], W1
	MOV.B	#127, W0
	AND.B	W1, W0, W1
	MOV	#lo_addr(RPINR18bits), W0
	XOR.B	W1, [W0], W1
	MOV	#lo_addr(RPINR18bits), W0
	MOV.B	W1, [W0]
;Acelerografo.c,190 :: 		RPOR0bits.RP35R = 0x01;                                                    //Configura el Tx1 en el pin RB3/RP35 *
	MOV	#256, W0
	MOV	W0, W1
	MOV	#lo_addr(RPOR0bits), W0
	XOR	W1, [W0], W1
	MOV	#16128, W0
	AND	W1, W0, W1
	MOV	#lo_addr(RPOR0bits), W0
	XOR	W1, [W0], W1
	MOV	W1, RPOR0bits
;Acelerografo.c,191 :: 		U1RXIE_bit = 1;                                                            //Habilita la interrupcion por UART1 RX *
	BSET	U1RXIE_bit, BitPos(U1RXIE_bit+0)
;Acelerografo.c,192 :: 		U1RXIF_bit = 1;                                                            //Limpia la bandera de interrupcion por UART1 RX *
	BSET	U1RXIF_bit, BitPos(U1RXIF_bit+0)
;Acelerografo.c,193 :: 		IPC2bits.U1RXIP = 0x04;                                                    //Prioridad de la interrupcion UART1 RX
	MOV	#16384, W0
	MOV	W0, W1
	MOV	#lo_addr(IPC2bits), W0
	XOR	W1, [W0], W1
	MOV	#28672, W0
	AND	W1, W0, W1
	MOV	#lo_addr(IPC2bits), W0
	XOR	W1, [W0], W1
	MOV	W1, IPC2bits
;Acelerografo.c,194 :: 		U1STAbits.URXISEL = 0x00;
	MOV	#lo_addr(U1STAbits), W0
	MOV.B	[W0], W1
	MOV.B	#63, W0
	AND.B	W1, W0, W1
	MOV	#lo_addr(U1STAbits), W0
	MOV.B	W1, [W0]
;Acelerografo.c,195 :: 		UART1_Init(9600);                                                          //Inicializa el UART1 con una velocidad de 115200 baudios
	MOV	#9600, W10
	MOV	#0, W11
	CALL	_UART1_Init
;Acelerografo.c,198 :: 		SPI1STAT.SPIEN = 1;                                                        //Habilita el SPI1 *
	BSET	SPI1STAT, #15
;Acelerografo.c,199 :: 		SPI1_Init_Advanced(_SPI_SLAVE, _SPI_8_BIT, _SPI_PRESCALE_SEC_1, _SPI_PRESCALE_PRI_1, _SPI_SS_ENABLE, _SPI_DATA_SAMPLE_END, _SPI_CLK_IDLE_HIGH, _SPI_ACTIVE_2_IDLE);        //*
	MOV	#3, W13
	MOV	#28, W12
	CLR	W11
	CLR	W10
	CLR	W0
	PUSH	W0
	MOV	#64, W0
	PUSH	W0
	MOV	#512, W0
	PUSH	W0
	MOV	#128, W0
	PUSH	W0
	CALL	_SPI1_Init_Advanced
	SUB	#8, W15
;Acelerografo.c,200 :: 		SPI1IE_bit = 1;                                                            //Habilita la interrupcion por SPI1  *
	BSET	SPI1IE_bit, BitPos(SPI1IE_bit+0)
;Acelerografo.c,201 :: 		SPI1IF_bit = 0;                                                            //Limpia la bandera de interrupcion por SPI *
	BCLR	SPI1IF_bit, BitPos(SPI1IF_bit+0)
;Acelerografo.c,202 :: 		IPC2bits.SPI1IP = 0x03;                                                    //Prioridad de la interrupcion SPI1
	MOV	#768, W0
	MOV	W0, W1
	MOV	#lo_addr(IPC2bits), W0
	XOR	W1, [W0], W1
	MOV	#1792, W0
	AND	W1, W0, W1
	MOV	#lo_addr(IPC2bits), W0
	XOR	W1, [W0], W1
	MOV	W1, IPC2bits
;Acelerografo.c,205 :: 		RPINR22bits.SDI2R = 0x21;                                                  //Configura el pin RB1/RPI33 como SDI2 *
	MOV.B	#33, W0
	MOV.B	W0, W1
	MOV	#lo_addr(RPINR22bits), W0
	XOR.B	W1, [W0], W1
	MOV.B	#127, W0
	AND.B	W1, W0, W1
	MOV	#lo_addr(RPINR22bits), W0
	XOR.B	W1, [W0], W1
	MOV	#lo_addr(RPINR22bits), W0
	MOV.B	W1, [W0]
;Acelerografo.c,206 :: 		RPOR2bits.RP38R = 0x08;                                                    //Configura el SDO2 en el pin RB6/RP38 *
	MOV.B	#8, W0
	MOV.B	W0, W1
	MOV	#lo_addr(RPOR2bits), W0
	XOR.B	W1, [W0], W1
	MOV.B	#63, W0
	AND.B	W1, W0, W1
	MOV	#lo_addr(RPOR2bits), W0
	XOR.B	W1, [W0], W1
	MOV	#lo_addr(RPOR2bits), W0
	MOV.B	W1, [W0]
;Acelerografo.c,207 :: 		RPOR1bits.RP37R = 0x09;                                                    //Configura el SCK2 en el pin RB5/RP37 *
	MOV	#2304, W0
	MOV	W0, W1
	MOV	#lo_addr(RPOR1bits), W0
	XOR	W1, [W0], W1
	MOV	#16128, W0
	AND	W1, W0, W1
	MOV	#lo_addr(RPOR1bits), W0
	XOR	W1, [W0], W1
	MOV	W1, RPOR1bits
;Acelerografo.c,208 :: 		SPI2STAT.SPIEN = 1;                                                        //Habilita el SPI2 *
	BSET	SPI2STAT, #15
;Acelerografo.c,209 :: 		SPI2_Init();                                                               //Inicializa el modulo SPI2
	CALL	_SPI2_Init
;Acelerografo.c,210 :: 		CS_DS3234 = 1;                                                             //Pone en alto el CS del RTC
	BSET	LATA2_bit, BitPos(LATA2_bit+0)
;Acelerografo.c,211 :: 		CS_ADXL355 = 1;                                                            //Pone en alto el CS del acelerometro
	BSET	LATA3_bit, BitPos(LATA3_bit+0)
;Acelerografo.c,214 :: 		RPINR0 = 0x2F00;                                                           //Asigna INT1 al RB15/RPI47 (SQW)
	MOV	#12032, W0
	MOV	WREG, RPINR0
;Acelerografo.c,216 :: 		INT1IE_bit = 0;                                                            //Habilita la interrupcion externa INT1
	BCLR	INT1IE_bit, BitPos(INT1IE_bit+0)
;Acelerografo.c,217 :: 		INT1IF_bit = 0;                                                            //Limpia la bandera de interrupcion externa INT1
	BCLR	INT1IF_bit, BitPos(INT1IF_bit+0)
;Acelerografo.c,219 :: 		IPC5bits.INT1IP = 0x02;                                                    //Prioridad en la interrupcion externa 1
	MOV.B	#2, W0
	MOV.B	W0, W1
	MOV	#lo_addr(IPC5bits), W0
	XOR.B	W1, [W0], W1
	AND.B	W1, #7, W1
	MOV	#lo_addr(IPC5bits), W0
	XOR.B	W1, [W0], W1
	MOV	#lo_addr(IPC5bits), W0
	MOV.B	W1, [W0]
;Acelerografo.c,223 :: 		T1CON = 0x0020;
	MOV	#32, W0
	MOV	WREG, T1CON
;Acelerografo.c,224 :: 		T1CON.TON = 0;                                                             //Apaga el Timer1
	BCLR	T1CON, #15
;Acelerografo.c,225 :: 		T1IE_bit = 1;                                                              //Habilita la interrupcin de desbordamiento TMR1
	BSET	T1IE_bit, BitPos(T1IE_bit+0)
;Acelerografo.c,226 :: 		T1IF_bit = 0;                                                              //Limpia la bandera de interrupcion del TMR1
	BCLR	T1IF_bit, BitPos(T1IF_bit+0)
;Acelerografo.c,227 :: 		PR1 = 62500;                                                               //Car ga el preload para un tiempo de 100ms
	MOV	#62500, W0
	MOV	WREG, PR1
;Acelerografo.c,228 :: 		IPC0bits.T1IP = 0x02;                                                      //Prioridad de la interrupcion por desbordamiento del TMR1
	MOV	#8192, W0
	MOV	W0, W1
	MOV	#lo_addr(IPC0bits), W0
	XOR	W1, [W0], W1
	MOV	#28672, W0
	AND	W1, W0, W1
	MOV	#lo_addr(IPC0bits), W0
	XOR	W1, [W0], W1
	MOV	W1, IPC0bits
;Acelerografo.c,231 :: 		T2CON = 0x30;                                                              //Prescalador
	MOV	#48, W0
	MOV	WREG, T2CON
;Acelerografo.c,232 :: 		T2CON.TON = 0;                                                             //Apaga el Timer2
	BCLR	T2CON, #15
;Acelerografo.c,233 :: 		T2IE_bit = 1;                                                              //Habilita la interrupcin de desbordamiento TMR2
	BSET	T2IE_bit, BitPos(T2IE_bit+0)
;Acelerografo.c,234 :: 		T2IF_bit = 0;                                                              //Limpia la bandera de interrupcion del TMR2
	BCLR	T2IF_bit, BitPos(T2IF_bit+0)
;Acelerografo.c,235 :: 		PR2 = 46875;                                                               //Carga el preload para un tiempo de 300ms
	MOV	#46875, W0
	MOV	WREG, PR2
;Acelerografo.c,236 :: 		IPC1bits.T2IP = 0x02;                                                      //Prioridad de la interrupcion por desbordamiento del TMR2
	MOV	#8192, W0
	MOV	W0, W1
	MOV	#lo_addr(IPC1bits), W0
	XOR	W1, [W0], W1
	MOV	#28672, W0
	AND	W1, W0, W1
	MOV	#lo_addr(IPC1bits), W0
	XOR	W1, [W0], W1
	MOV	W1, IPC1bits
;Acelerografo.c,247 :: 		ADXL355_write_byte(POWER_CTL, DRDY_OFF|STANDBY);                           //Coloco el ADXL en modo STANDBY para pausar las conversiones y limpiar el FIFO
	MOV.B	#5, W11
	MOV.B	#45, W10
	CALL	_ADXL355_write_byte
;Acelerografo.c,249 :: 		Delay_ms(200);                                                             //Espera hasta que se estabilicen los cambios
	MOV	#25, W8
	MOV	#27150, W7
L_ConfiguracionPrincipal51:
	DEC	W7
	BRA NZ	L_ConfiguracionPrincipal51
	DEC	W8
	BRA NZ	L_ConfiguracionPrincipal51
	NOP
;Acelerografo.c,251 :: 		}
L_end_ConfiguracionPrincipal:
	POP	W13
	POP	W12
	POP	W11
	POP	W10
	RETURN
; end of _ConfiguracionPrincipal

_InterrupcionP1:

;Acelerografo.c,256 :: 		void InterrupcionP1(unsigned short operacion){
;Acelerografo.c,260 :: 		if (INT1IE_bit==0){
	BTSC	INT1IE_bit, BitPos(INT1IE_bit+0)
	GOTO	L_InterrupcionP153
;Acelerografo.c,261 :: 		INT1IE_bit = 1;
	BSET	INT1IE_bit, BitPos(INT1IE_bit+0)
;Acelerografo.c,262 :: 		}
L_InterrupcionP153:
;Acelerografo.c,270 :: 		banOperacion = 0;                                                          //Encera la bandera para permitir una nueva peticion de operacion
	MOV	#lo_addr(_banOperacion), W1
	CLR	W0
	MOV.B	W0, [W1]
;Acelerografo.c,271 :: 		tipoOperacion = operacion;                                                 //Carga en la variable el tipo de operacion requerido
	MOV	#lo_addr(_tipoOperacion), W0
	MOV.B	W10, [W0]
;Acelerografo.c,273 :: 		RP1 = 1;
	BSET	LATA4_bit, BitPos(LATA4_bit+0)
;Acelerografo.c,274 :: 		Delay_us(20);
	MOV	#160, W7
L_InterrupcionP154:
	DEC	W7
	BRA NZ	L_InterrupcionP154
	NOP
	NOP
;Acelerografo.c,275 :: 		RP1 = 0;
	BCLR	LATA4_bit, BitPos(LATA4_bit+0)
;Acelerografo.c,276 :: 		}
L_end_InterrupcionP1:
	RETURN
; end of _InterrupcionP1

_Muestrear:

;Acelerografo.c,281 :: 		void Muestrear(){
;Acelerografo.c,283 :: 		if (banCiclo==0){
	PUSH	W10
	PUSH	W11
	PUSH	W12
	PUSH	W13
	MOV	#lo_addr(_banCiclo), W0
	MOV.B	[W0], W0
	CP.B	W0, #0
	BRA Z	L__Muestrear264
	GOTO	L_Muestrear56
L__Muestrear264:
;Acelerografo.c,285 :: 		ADXL355_write_byte(POWER_CTL, DRDY_OFF|MEASURING);                     //Coloca el ADXL en modo medicion
	MOV.B	#4, W11
	MOV.B	#45, W10
	CALL	_ADXL355_write_byte
;Acelerografo.c,286 :: 		T1CON.TON = 1;                                                         //Enciende el Timer1
	BSET	T1CON, #15
;Acelerografo.c,288 :: 		} else if (banCiclo==1) {
	GOTO	L_Muestrear57
L_Muestrear56:
	MOV	#lo_addr(_banCiclo), W0
	MOV.B	[W0], W0
	CP.B	W0, #1
	BRA Z	L__Muestrear265
	GOTO	L_Muestrear58
L__Muestrear265:
;Acelerografo.c,290 :: 		banCiclo = 2;                                                          //Limpia la bandera de ciclo completo
	MOV	#lo_addr(_banCiclo), W1
	MOV.B	#2, W0
	MOV.B	W0, [W1]
;Acelerografo.c,292 :: 		tramaCompleta[0] = fuenteReloj;                                        //LLena el primer elemento de la tramaCompleta con el contador de ciclos
	MOV	#lo_addr(_tramaCompleta), W1
	MOV	#lo_addr(_fuenteReloj), W0
	MOV.B	[W0], [W1]
;Acelerografo.c,293 :: 		numFIFO = ADXL355_read_byte(FIFO_ENTRIES);
	MOV.B	#5, W10
	CALL	_ADXL355_read_byte
	MOV	#lo_addr(_numFIFO), W1
	MOV.B	W0, [W1]
;Acelerografo.c,294 :: 		numSetsFIFO = (numFIFO)/3;                                             //Lee el numero de sets disponibles en el FIFO
	ZE	W0, W0
	MOV	#3, W2
	REPEAT	#17
	DIV.S	W0, W2
	MOV	W0, W1
	MOV	#lo_addr(_numSetsFIFO), W0
	MOV.B	W1, [W0]
;Acelerografo.c,297 :: 		for (x=0;x<numSetsFIFO;x++){
	CLR	W0
	MOV	W0, _x
L_Muestrear59:
	MOV	#lo_addr(_numSetsFIFO), W0
	ZE	[W0], W1
	MOV	#lo_addr(_x), W0
	CP	W1, [W0]
	BRA GTU	L__Muestrear266
	GOTO	L_Muestrear60
L__Muestrear266:
;Acelerografo.c,298 :: 		ADXL355_read_FIFO(datosLeidos);                                    //Lee una sola posicion del FIFO
	MOV	#lo_addr(_datosLeidos), W10
	CALL	_ADXL355_read_FIFO
;Acelerografo.c,299 :: 		for (y=0;y<9;y++){
	CLR	W0
	MOV	W0, _y
L_Muestrear62:
	MOV	_y, W0
	CP	W0, #9
	BRA LTU	L__Muestrear267
	GOTO	L_Muestrear63
L__Muestrear267:
;Acelerografo.c,300 :: 		datosFIFO[y+(x*9)] = datosLeidos[y];                           //LLena la trama datosFIFO
	MOV	_x, W1
	MOV	#9, W0
	MUL.UU	W1, W0, W2
	MOV	#lo_addr(_y), W0
	ADD	W2, [W0], W1
	MOV	#lo_addr(_datosFIFO), W0
	ADD	W0, W1, W2
	MOV	#lo_addr(_datosLeidos), W1
	MOV	#lo_addr(_y), W0
	ADD	W1, [W0], W0
	MOV.B	[W0], [W2]
;Acelerografo.c,299 :: 		for (y=0;y<9;y++){
	MOV	#1, W1
	MOV	#lo_addr(_y), W0
	ADD	W1, [W0], [W0]
;Acelerografo.c,301 :: 		}
	GOTO	L_Muestrear62
L_Muestrear63:
;Acelerografo.c,297 :: 		for (x=0;x<numSetsFIFO;x++){
	MOV	#1, W1
	MOV	#lo_addr(_x), W0
	ADD	W1, [W0], [W0]
;Acelerografo.c,302 :: 		}
	GOTO	L_Muestrear59
L_Muestrear60:
;Acelerografo.c,305 :: 		for (x=0;x<(numSetsFIFO*9);x++){
	CLR	W0
	MOV	W0, _x
L_Muestrear65:
	MOV	#lo_addr(_numSetsFIFO), W0
	ZE	[W0], W1
	MOV	#9, W0
	MUL.SS	W1, W0, W2
	MOV	#lo_addr(_x), W0
	CP	W2, [W0]
	BRA GTU	L__Muestrear268
	GOTO	L_Muestrear66
L__Muestrear268:
;Acelerografo.c,306 :: 		if ((x==0)||(x%9==0)){
	MOV	_x, W0
	CP	W0, #0
	BRA NZ	L__Muestrear269
	GOTO	L__Muestrear162
L__Muestrear269:
	MOV	_x, W0
	MOV	#9, W2
	REPEAT	#17
	DIV.U	W0, W2
	MOV	W1, W0
	CP	W0, #0
	BRA NZ	L__Muestrear270
	GOTO	L__Muestrear161
L__Muestrear270:
	GOTO	L_Muestrear70
L__Muestrear162:
L__Muestrear161:
;Acelerografo.c,307 :: 		tramaCompleta[contFIFO+contMuestras+x] = contMuestras;          //Funciona bien
	MOV	#lo_addr(_contMuestras), W0
	ZE	[W0], W1
	MOV	#lo_addr(_contFIFO), W0
	ADD	W1, [W0], W1
	MOV	#lo_addr(_x), W0
	ADD	W1, [W0], W1
	MOV	#lo_addr(_tramaCompleta), W0
	ADD	W0, W1, W1
	MOV	#lo_addr(_contMuestras), W0
	MOV.B	[W0], [W1]
;Acelerografo.c,308 :: 		tramaCompleta[contFIFO+contMuestras+x+1] = datosFIFO[x];
	MOV	#lo_addr(_contMuestras), W0
	ZE	[W0], W1
	MOV	#lo_addr(_contFIFO), W0
	ADD	W1, [W0], W1
	MOV	#lo_addr(_x), W0
	ADD	W1, [W0], W0
	ADD	W0, #1, W1
	MOV	#lo_addr(_tramaCompleta), W0
	ADD	W0, W1, W2
	MOV	#lo_addr(_datosFIFO), W1
	MOV	#lo_addr(_x), W0
	ADD	W1, [W0], W0
	MOV.B	[W0], [W2]
;Acelerografo.c,309 :: 		contMuestras++;
	MOV.B	#1, W1
	MOV	#lo_addr(_contMuestras), W0
	ADD.B	W1, [W0], [W0]
;Acelerografo.c,310 :: 		} else {
	GOTO	L_Muestrear71
L_Muestrear70:
;Acelerografo.c,311 :: 		tramaCompleta[contFIFO+contMuestras+x] = datosFIFO[x];
	MOV	#lo_addr(_contMuestras), W0
	ZE	[W0], W1
	MOV	#lo_addr(_contFIFO), W0
	ADD	W1, [W0], W1
	MOV	#lo_addr(_x), W0
	ADD	W1, [W0], W1
	MOV	#lo_addr(_tramaCompleta), W0
	ADD	W0, W1, W2
	MOV	#lo_addr(_datosFIFO), W1
	MOV	#lo_addr(_x), W0
	ADD	W1, [W0], W0
	MOV.B	[W0], [W2]
;Acelerografo.c,312 :: 		}
L_Muestrear71:
;Acelerografo.c,305 :: 		for (x=0;x<(numSetsFIFO*9);x++){
	MOV	#1, W1
	MOV	#lo_addr(_x), W0
	ADD	W1, [W0], [W0]
;Acelerografo.c,313 :: 		}
	GOTO	L_Muestrear65
L_Muestrear66:
;Acelerografo.c,316 :: 		AjustarTiempoSistema(horaSistema, fechaSistema, tiempo);
	MOV	_fechaSistema, W12
	MOV	_fechaSistema+2, W13
	MOV	_horaSistema, W10
	MOV	_horaSistema+2, W11
	MOV	#lo_addr(_tiempo), W0
	PUSH	W0
	CALL	_AjustarTiempoSistema
	SUB	#2, W15
;Acelerografo.c,317 :: 		for (x=0;x<6;x++){
	CLR	W0
	MOV	W0, _x
L_Muestrear72:
	MOV	_x, W0
	CP	W0, #6
	BRA LTU	L__Muestrear271
	GOTO	L_Muestrear73
L__Muestrear271:
;Acelerografo.c,318 :: 		tramaCompleta[2500+x] = tiempo[x];
	MOV	#2500, W1
	MOV	#lo_addr(_x), W0
	ADD	W1, [W0], W1
	MOV	#lo_addr(_tramaCompleta), W0
	ADD	W0, W1, W2
	MOV	#lo_addr(_tiempo), W1
	MOV	#lo_addr(_x), W0
	ADD	W1, [W0], W0
	MOV.B	[W0], [W2]
;Acelerografo.c,317 :: 		for (x=0;x<6;x++){
	MOV	#1, W1
	MOV	#lo_addr(_x), W0
	ADD	W1, [W0], [W0]
;Acelerografo.c,319 :: 		}
	GOTO	L_Muestrear72
L_Muestrear73:
;Acelerografo.c,321 :: 		contMuestras = 0;                                                      //Limpia el contador de muestras
	MOV	#lo_addr(_contMuestras), W1
	CLR	W0
	MOV.B	W0, [W1]
;Acelerografo.c,322 :: 		contFIFO = 0;                                                          //Limpia el contador de FIFOs
	CLR	W0
	MOV	W0, _contFIFO
;Acelerografo.c,323 :: 		T1CON.TON = 1;                                                         //Enciende el Timer1
	BSET	T1CON, #15
;Acelerografo.c,325 :: 		banLec = 1;                                                            //Activa la bandera de lectura para enviar la trama
	MOV	#lo_addr(_banLec), W1
	MOV.B	#1, W0
	MOV.B	W0, [W1]
;Acelerografo.c,326 :: 		InterrupcionP1(0XB1);
	MOV.B	#177, W10
	CALL	_InterrupcionP1
;Acelerografo.c,328 :: 		LedTest = 0;
	BCLR	LATB12_bit, BitPos(LATB12_bit+0)
;Acelerografo.c,330 :: 		}
L_Muestrear58:
L_Muestrear57:
;Acelerografo.c,332 :: 		contCiclos++;                                                              //Incrementa el contador de ciclos
	MOV.B	#1, W1
	MOV	#lo_addr(_contCiclos), W0
	ADD.B	W1, [W0], [W0]
;Acelerografo.c,334 :: 		}
L_end_Muestrear:
	POP	W13
	POP	W12
	POP	W11
	POP	W10
	RETURN
; end of _Muestrear

_spi_1:
	PUSH	DSWPAG
	PUSH	50
	PUSH	RCOUNT
	PUSH	W0
	MOV	#2, W0
	REPEAT	#12
	PUSH	[W0++]

;Acelerografo.c,344 :: 		void spi_1() org  IVT_ADDR_SPI1INTERRUPT {
;Acelerografo.c,346 :: 		SPI1IF_bit = 0;                                                            //Limpia la bandera de interrupcion por SPI
	PUSH	W10
	PUSH	W11
	PUSH	W12
	PUSH	W13
	BCLR	SPI1IF_bit, BitPos(SPI1IF_bit+0)
;Acelerografo.c,347 :: 		bufferSPI = SPI1BUF;                                                          //Guarda el contenido del bufeer (lectura)
	MOV	#lo_addr(_bufferSPI), W1
	MOV.B	SPI1BUF, WREG
	MOV.B	W0, [W1]
;Acelerografo.c,351 :: 		if ((banOperacion==0)&&(bufferSPI==0xA0)) {
	MOV	#lo_addr(_banOperacion), W0
	MOV.B	[W0], W0
	CP.B	W0, #0
	BRA Z	L__spi_1273
	GOTO	L__spi_1179
L__spi_1273:
	MOV	#lo_addr(_bufferSPI), W0
	MOV.B	[W0], W1
	MOV.B	#160, W0
	CP.B	W1, W0
	BRA Z	L__spi_1274
	GOTO	L__spi_1178
L__spi_1274:
L__spi_1177:
;Acelerografo.c,352 :: 		banOperacion = 1;                                                       //Activa la bandera para enviar el tipo de operacion requerido a la RPi
	MOV	#lo_addr(_banOperacion), W1
	MOV.B	#1, W0
	MOV.B	W0, [W1]
;Acelerografo.c,353 :: 		SPI1BUF = tipoOperacion;                                                //Carga en el bufferSPI el tipo de operacion requerido
	MOV	#lo_addr(_tipoOperacion), W0
	ZE	[W0], W0
	MOV	WREG, SPI1BUF
;Acelerografo.c,351 :: 		if ((banOperacion==0)&&(bufferSPI==0xA0)) {
L__spi_1179:
L__spi_1178:
;Acelerografo.c,355 :: 		if ((banOperacion==1)&&(bufferSPI==0xF0)){
	MOV	#lo_addr(_banOperacion), W0
	MOV.B	[W0], W0
	CP.B	W0, #1
	BRA Z	L__spi_1275
	GOTO	L__spi_1181
L__spi_1275:
	MOV	#lo_addr(_bufferSPI), W0
	MOV.B	[W0], W1
	MOV.B	#240, W0
	CP.B	W1, W0
	BRA Z	L__spi_1276
	GOTO	L__spi_1180
L__spi_1276:
L__spi_1176:
;Acelerografo.c,356 :: 		banOperacion = 0;                                                       //Limpia la bandera
	MOV	#lo_addr(_banOperacion), W1
	CLR	W0
	MOV.B	W0, [W1]
;Acelerografo.c,357 :: 		tipoOperacion = 0;                                                      //Limpia la variable de tipo de operacion
	MOV	#lo_addr(_tipoOperacion), W1
	CLR	W0
	MOV.B	W0, [W1]
;Acelerografo.c,355 :: 		if ((banOperacion==1)&&(bufferSPI==0xF0)){
L__spi_1181:
L__spi_1180:
;Acelerografo.c,363 :: 		if ((banMuestrear==0)&&(bufferSPI==0xA1)){
	MOV	#lo_addr(_banMuestrear), W0
	MOV.B	[W0], W0
	CP.B	W0, #0
	BRA Z	L__spi_1277
	GOTO	L__spi_1183
L__spi_1277:
	MOV	#lo_addr(_bufferSPI), W0
	MOV.B	[W0], W1
	MOV.B	#161, W0
	CP.B	W1, W0
	BRA Z	L__spi_1278
	GOTO	L__spi_1182
L__spi_1278:
L__spi_1175:
;Acelerografo.c,364 :: 		banMuestrear = 1;                                                       //Cambia el estado de la bandera para que no inicie el muestreo mas de una vez de manera consecutiva
	MOV	#lo_addr(_banMuestrear), W1
	MOV.B	#1, W0
	MOV.B	W0, [W1]
;Acelerografo.c,365 :: 		banCiclo = 0;
	MOV	#lo_addr(_banCiclo), W1
	CLR	W0
	MOV.B	W0, [W1]
;Acelerografo.c,366 :: 		contMuestras = 0;
	MOV	#lo_addr(_contMuestras), W1
	CLR	W0
	MOV.B	W0, [W1]
;Acelerografo.c,367 :: 		contCiclos = 0;
	MOV	#lo_addr(_contCiclos), W1
	CLR	W0
	MOV.B	W0, [W1]
;Acelerografo.c,368 :: 		contFIFO = 0;
	CLR	W0
	MOV	W0, _contFIFO
;Acelerografo.c,369 :: 		numFIFO = 0;
	MOV	#lo_addr(_numFIFO), W1
	CLR	W0
	MOV.B	W0, [W1]
;Acelerografo.c,370 :: 		numSetsFIFO = 0;
	MOV	#lo_addr(_numSetsFIFO), W1
	CLR	W0
	MOV.B	W0, [W1]
;Acelerografo.c,371 :: 		contTimer1 = 0;
	MOV	#lo_addr(_contTimer1), W1
	CLR	W0
	MOV.B	W0, [W1]
;Acelerografo.c,372 :: 		banInicioMuestreo = 1;                                                          //Bandera que permite el inicio del muestreo dentro de la interrupcion INT1
	MOV	#lo_addr(_banInicioMuestreo), W1
	MOV.B	#1, W0
	MOV.B	W0, [W1]
;Acelerografo.c,374 :: 		if (INT1IE_bit==0){
	BTSC	INT1IE_bit, BitPos(INT1IE_bit+0)
	GOTO	L_spi_184
;Acelerografo.c,375 :: 		INT1IE_bit = 1;
	BSET	INT1IE_bit, BitPos(INT1IE_bit+0)
;Acelerografo.c,376 :: 		}
L_spi_184:
;Acelerografo.c,363 :: 		if ((banMuestrear==0)&&(bufferSPI==0xA1)){
L__spi_1183:
L__spi_1182:
;Acelerografo.c,382 :: 		if ((banMuestrear==1)&&(bufferSPI==0xA2)){
	MOV	#lo_addr(_banMuestrear), W0
	MOV.B	[W0], W0
	CP.B	W0, #1
	BRA Z	L__spi_1279
	GOTO	L__spi_1185
L__spi_1279:
	MOV	#lo_addr(_bufferSPI), W0
	MOV.B	[W0], W1
	MOV.B	#162, W0
	CP.B	W1, W0
	BRA Z	L__spi_1280
	GOTO	L__spi_1184
L__spi_1280:
L__spi_1174:
;Acelerografo.c,383 :: 		banInicioMuestreo = 0;                                                          //Bandera que permite el inicio del muestreo dentro de la interrupcion INT1
	MOV	#lo_addr(_banInicioMuestreo), W1
	CLR	W0
	MOV.B	W0, [W1]
;Acelerografo.c,384 :: 		banMuestrear = 0;                                                       //Cambia el estado de la bandera para permitir que inicie el muestreo de nuevo en el futuro
	MOV	#lo_addr(_banMuestrear), W1
	CLR	W0
	MOV.B	W0, [W1]
;Acelerografo.c,386 :: 		banLec = 0;
	MOV	#lo_addr(_banLec), W1
	CLR	W0
	MOV.B	W0, [W1]
;Acelerografo.c,387 :: 		banEsc = 0;
	MOV	#lo_addr(_banEsc), W1
	CLR	W0
	MOV.B	W0, [W1]
;Acelerografo.c,388 :: 		banSetReloj = 0;
	MOV	#lo_addr(_banSetReloj), W1
	CLR	W0
	MOV.B	W0, [W1]
;Acelerografo.c,389 :: 		banGPSI = 0;
	MOV	#lo_addr(_banGPSI), W1
	CLR	W0
	MOV.B	W0, [W1]
;Acelerografo.c,390 :: 		banGPSC = 0;
	MOV	#lo_addr(_banGPSC), W1
	CLR	W0
	MOV.B	W0, [W1]
;Acelerografo.c,391 :: 		i = 0;
	CLR	W0
	MOV	W0, _i
;Acelerografo.c,392 :: 		x = 0;
	CLR	W0
	MOV	W0, _x
;Acelerografo.c,393 :: 		y = 0;
	CLR	W0
	MOV	W0, _y
;Acelerografo.c,394 :: 		i_gps = 0;
	CLR	W0
	MOV	W0, _i_gps
;Acelerografo.c,395 :: 		contTimer1 = 0;
	MOV	#lo_addr(_contTimer1), W1
	CLR	W0
	MOV.B	W0, [W1]
;Acelerografo.c,396 :: 		byteGPS = 0;
	MOV	#lo_addr(_byteGPS), W1
	CLR	W0
	MOV.B	W0, [W1]
;Acelerografo.c,398 :: 		ADXL355_write_byte(POWER_CTL, DRDY_OFF|STANDBY);                        //Coloco el ADXL en modo STANDBY para pausar las conversiones y limpiar el FIFO
	MOV.B	#5, W11
	MOV.B	#45, W10
	CALL	_ADXL355_write_byte
;Acelerografo.c,400 :: 		if (INT1IE_bit==1){
	BTSS	INT1IE_bit, BitPos(INT1IE_bit+0)
	GOTO	L_spi_188
;Acelerografo.c,401 :: 		INT1IE_bit = 0;
	BCLR	INT1IE_bit, BitPos(INT1IE_bit+0)
;Acelerografo.c,402 :: 		}
L_spi_188:
;Acelerografo.c,404 :: 		if (T1CON.TON==1){
	BTSS	T1CON, #15
	GOTO	L_spi_189
;Acelerografo.c,405 :: 		T1CON.TON = 0;
	BCLR	T1CON, #15
;Acelerografo.c,406 :: 		}
L_spi_189:
;Acelerografo.c,382 :: 		if ((banMuestrear==1)&&(bufferSPI==0xA2)){
L__spi_1185:
L__spi_1184:
;Acelerografo.c,411 :: 		if ((banLec==1)&&(bufferSPI==0xA3)){                                       //Verifica si la bandera de inicio de trama esta activa
	MOV	#lo_addr(_banLec), W0
	MOV.B	[W0], W0
	CP.B	W0, #1
	BRA Z	L__spi_1281
	GOTO	L__spi_1187
L__spi_1281:
	MOV	#lo_addr(_bufferSPI), W0
	MOV.B	[W0], W1
	MOV.B	#163, W0
	CP.B	W1, W0
	BRA Z	L__spi_1282
	GOTO	L__spi_1186
L__spi_1282:
L__spi_1173:
;Acelerografo.c,412 :: 		banLec = 2;                                                             //Activa la bandera de lectura
	MOV	#lo_addr(_banLec), W1
	MOV.B	#2, W0
	MOV.B	W0, [W1]
;Acelerografo.c,413 :: 		i = 0;
	CLR	W0
	MOV	W0, _i
;Acelerografo.c,414 :: 		SPI1BUF = tramaCompleta[i];
	MOV	#lo_addr(_tramaCompleta), W1
	MOV	#lo_addr(_i), W0
	ADD	W1, [W0], W0
	MOV.B	[W0], W0
	ZE	W0, W0
	MOV	WREG, SPI1BUF
;Acelerografo.c,411 :: 		if ((banLec==1)&&(bufferSPI==0xA3)){                                       //Verifica si la bandera de inicio de trama esta activa
L__spi_1187:
L__spi_1186:
;Acelerografo.c,416 :: 		if ((banLec==2)&&(bufferSPI!=0xF3)){
	MOV	#lo_addr(_banLec), W0
	MOV.B	[W0], W0
	CP.B	W0, #2
	BRA Z	L__spi_1283
	GOTO	L__spi_1189
L__spi_1283:
	MOV	#lo_addr(_bufferSPI), W0
	MOV.B	[W0], W1
	MOV.B	#243, W0
	CP.B	W1, W0
	BRA NZ	L__spi_1284
	GOTO	L__spi_1188
L__spi_1284:
L__spi_1172:
;Acelerografo.c,417 :: 		SPI1BUF = tramaCompleta[i];
	MOV	#lo_addr(_tramaCompleta), W1
	MOV	#lo_addr(_i), W0
	ADD	W1, [W0], W0
	MOV.B	[W0], W0
	ZE	W0, W0
	MOV	WREG, SPI1BUF
;Acelerografo.c,418 :: 		i++;
	MOV	#1, W1
	MOV	#lo_addr(_i), W0
	ADD	W1, [W0], [W0]
;Acelerografo.c,416 :: 		if ((banLec==2)&&(bufferSPI!=0xF3)){
L__spi_1189:
L__spi_1188:
;Acelerografo.c,420 :: 		if ((banLec==2)&&(bufferSPI==0xF3)){                                       //Si detecta el delimitador de final de trama:
	MOV	#lo_addr(_banLec), W0
	MOV.B	[W0], W0
	CP.B	W0, #2
	BRA Z	L__spi_1285
	GOTO	L__spi_1191
L__spi_1285:
	MOV	#lo_addr(_bufferSPI), W0
	MOV.B	[W0], W1
	MOV.B	#243, W0
	CP.B	W1, W0
	BRA Z	L__spi_1286
	GOTO	L__spi_1190
L__spi_1286:
L__spi_1171:
;Acelerografo.c,421 :: 		banLec = 0;                                                             //Limpia la bandera de lectura                        ****AQUI Me QUEDE
	MOV	#lo_addr(_banLec), W1
	CLR	W0
	MOV.B	W0, [W1]
;Acelerografo.c,422 :: 		SPI1BUF = 0xFF;
	MOV	#255, W0
	MOV	WREG, SPI1BUF
;Acelerografo.c,420 :: 		if ((banLec==2)&&(bufferSPI==0xF3)){                                       //Si detecta el delimitador de final de trama:
L__spi_1191:
L__spi_1190:
;Acelerografo.c,428 :: 		if ((banSetReloj==0)&&(bufferSPI==0xA4)){
	MOV	#lo_addr(_banSetReloj), W0
	MOV.B	[W0], W0
	CP.B	W0, #0
	BRA Z	L__spi_1287
	GOTO	L__spi_1193
L__spi_1287:
	MOV	#lo_addr(_bufferSPI), W0
	MOV.B	[W0], W1
	MOV.B	#164, W0
	CP.B	W1, W0
	BRA Z	L__spi_1288
	GOTO	L__spi_1192
L__spi_1288:
L__spi_1170:
;Acelerografo.c,429 :: 		banEsc = 1;
	MOV	#lo_addr(_banEsc), W1
	MOV.B	#1, W0
	MOV.B	W0, [W1]
;Acelerografo.c,430 :: 		j = 0;
	CLR	W0
	MOV	W0, _j
;Acelerografo.c,428 :: 		if ((banSetReloj==0)&&(bufferSPI==0xA4)){
L__spi_1193:
L__spi_1192:
;Acelerografo.c,432 :: 		if ((banEsc==1)&&(bufferSPI!=0xA4)&&(bufferSPI!=0xF4)){
	MOV	#lo_addr(_banEsc), W0
	MOV.B	[W0], W0
	CP.B	W0, #1
	BRA Z	L__spi_1289
	GOTO	L__spi_1196
L__spi_1289:
	MOV	#lo_addr(_bufferSPI), W0
	MOV.B	[W0], W1
	MOV.B	#164, W0
	CP.B	W1, W0
	BRA NZ	L__spi_1290
	GOTO	L__spi_1195
L__spi_1290:
	MOV	#lo_addr(_bufferSPI), W0
	MOV.B	[W0], W1
	MOV.B	#244, W0
	CP.B	W1, W0
	BRA NZ	L__spi_1291
	GOTO	L__spi_1194
L__spi_1291:
L__spi_1169:
;Acelerografo.c,433 :: 		tiempoRPI[j] = bufferSPI;
	MOV	#lo_addr(_tiempoRPI), W1
	MOV	#lo_addr(_j), W0
	ADD	W1, [W0], W1
	MOV	#lo_addr(_bufferSPI), W0
	MOV.B	[W0], [W1]
;Acelerografo.c,434 :: 		j++;
	MOV	#1, W1
	MOV	#lo_addr(_j), W0
	ADD	W1, [W0], [W0]
;Acelerografo.c,432 :: 		if ((banEsc==1)&&(bufferSPI!=0xA4)&&(bufferSPI!=0xF4)){
L__spi_1196:
L__spi_1195:
L__spi_1194:
;Acelerografo.c,436 :: 		if ((banEsc==1)&&(bufferSPI==0xF4)){
	MOV	#lo_addr(_banEsc), W0
	MOV.B	[W0], W0
	CP.B	W0, #1
	BRA Z	L__spi_1292
	GOTO	L__spi_1198
L__spi_1292:
	MOV	#lo_addr(_bufferSPI), W0
	MOV.B	[W0], W1
	MOV.B	#244, W0
	CP.B	W1, W0
	BRA Z	L__spi_1293
	GOTO	L__spi_1197
L__spi_1293:
L__spi_1168:
;Acelerografo.c,437 :: 		horaSistema = RecuperarHoraRPI(tiempoRPI);                              //Recupera la hora de la RPi
	MOV	#lo_addr(_tiempoRPI), W10
	CALL	_RecuperarHoraRPI
	MOV	W0, _horaSistema
	MOV	W1, _horaSistema+2
;Acelerografo.c,438 :: 		fechaSistema = RecuperarFechaRPI(tiempoRPI);                            //Recupera la fecha de la RPi
	MOV	#lo_addr(_tiempoRPI), W10
	CALL	_RecuperarFechaRPI
	MOV	W0, _fechaSistema
	MOV	W1, _fechaSistema+2
;Acelerografo.c,439 :: 		DS3234_setDate(horaSistema, fechaSistema);                              //Configura la hora en el RTC
	MOV.D	W0, W12
	MOV	_horaSistema, W10
	MOV	_horaSistema+2, W11
	CALL	_DS3234_setDate
;Acelerografo.c,440 :: 		horaSistema = RecuperarHoraRTC();                                       //Recupera la hora del RTC
	CALL	_RecuperarHoraRTC
	MOV	W0, _horaSistema
	MOV	W1, _horaSistema+2
;Acelerografo.c,441 :: 		fechaSistema = RecuperarFechaRTC();                                     //Recupera la fecha del RTC
	CALL	_RecuperarFechaRTC
	MOV	W0, _fechaSistema
	MOV	W1, _fechaSistema+2
;Acelerografo.c,442 :: 		AjustarTiempoSistema(horaSistema, fechaSistema, tiempo);                //Actualiza los datos de la trama tiempo con la hora y fecha recuperadas
	MOV.D	W0, W12
	MOV	_horaSistema, W10
	MOV	_horaSistema+2, W11
	MOV	#lo_addr(_tiempo), W0
	PUSH	W0
	CALL	_AjustarTiempoSistema
	SUB	#2, W15
;Acelerografo.c,443 :: 		fuenteReloj = 2;                                                        //Fuente reloj: RPi
	MOV	#lo_addr(_fuenteReloj), W1
	MOV.B	#2, W0
	MOV.B	W0, [W1]
;Acelerografo.c,444 :: 		banEsc = 0;
	MOV	#lo_addr(_banEsc), W1
	CLR	W0
	MOV.B	W0, [W1]
;Acelerografo.c,445 :: 		banSetReloj = 1;
	MOV	#lo_addr(_banSetReloj), W1
	MOV.B	#1, W0
	MOV.B	W0, [W1]
;Acelerografo.c,446 :: 		InterrupcionP1(0XB2);
	MOV.B	#178, W10
	CALL	_InterrupcionP1
;Acelerografo.c,436 :: 		if ((banEsc==1)&&(bufferSPI==0xF4)){
L__spi_1198:
L__spi_1197:
;Acelerografo.c,450 :: 		if ((banSetReloj==1)&&(bufferSPI==0xA5)){
	MOV	#lo_addr(_banSetReloj), W0
	MOV.B	[W0], W0
	CP.B	W0, #1
	BRA Z	L__spi_1294
	GOTO	L__spi_1200
L__spi_1294:
	MOV	#lo_addr(_bufferSPI), W0
	MOV.B	[W0], W1
	MOV.B	#165, W0
	CP.B	W1, W0
	BRA Z	L__spi_1295
	GOTO	L__spi_1199
L__spi_1295:
L__spi_1167:
;Acelerografo.c,451 :: 		banSetReloj = 2;
	MOV	#lo_addr(_banSetReloj), W1
	MOV.B	#2, W0
	MOV.B	W0, [W1]
;Acelerografo.c,452 :: 		j = 0;
	CLR	W0
	MOV	W0, _j
;Acelerografo.c,453 :: 		SPI1BUF = fuenteReloj;                                                  //Envia el indicador de fuente de reloj
	MOV	#lo_addr(_fuenteReloj), W0
	ZE	[W0], W0
	MOV	WREG, SPI1BUF
;Acelerografo.c,450 :: 		if ((banSetReloj==1)&&(bufferSPI==0xA5)){
L__spi_1200:
L__spi_1199:
;Acelerografo.c,455 :: 		if ((banSetReloj==2)&&(bufferSPI!=0xA5)&&(bufferSPI!=0xF5)){
	MOV	#lo_addr(_banSetReloj), W0
	MOV.B	[W0], W0
	CP.B	W0, #2
	BRA Z	L__spi_1296
	GOTO	L__spi_1203
L__spi_1296:
	MOV	#lo_addr(_bufferSPI), W0
	MOV.B	[W0], W1
	MOV.B	#165, W0
	CP.B	W1, W0
	BRA NZ	L__spi_1297
	GOTO	L__spi_1202
L__spi_1297:
	MOV	#lo_addr(_bufferSPI), W0
	MOV.B	[W0], W1
	MOV.B	#245, W0
	CP.B	W1, W0
	BRA NZ	L__spi_1298
	GOTO	L__spi_1201
L__spi_1298:
L__spi_1166:
;Acelerografo.c,456 :: 		SPI1BUF = tiempo[j];
	MOV	#lo_addr(_tiempo), W1
	MOV	#lo_addr(_j), W0
	ADD	W1, [W0], W0
	MOV.B	[W0], W0
	ZE	W0, W0
	MOV	WREG, SPI1BUF
;Acelerografo.c,457 :: 		j++;
	MOV	#1, W1
	MOV	#lo_addr(_j), W0
	ADD	W1, [W0], [W0]
;Acelerografo.c,455 :: 		if ((banSetReloj==2)&&(bufferSPI!=0xA5)&&(bufferSPI!=0xF5)){
L__spi_1203:
L__spi_1202:
L__spi_1201:
;Acelerografo.c,459 :: 		if ((banSetReloj==2)&&(bufferSPI==0xF5)){                                  //Si detecta el delimitador de final de trama:
	MOV	#lo_addr(_banSetReloj), W0
	MOV.B	[W0], W0
	CP.B	W0, #2
	BRA Z	L__spi_1299
	GOTO	L__spi_1205
L__spi_1299:
	MOV	#lo_addr(_bufferSPI), W0
	MOV.B	[W0], W1
	MOV.B	#245, W0
	CP.B	W1, W0
	BRA Z	L__spi_1300
	GOTO	L__spi_1204
L__spi_1300:
L__spi_1165:
;Acelerografo.c,460 :: 		banSetReloj = 0;                                                        //Limpia la bandera de lectura
	MOV	#lo_addr(_banSetReloj), W1
	CLR	W0
	MOV.B	W0, [W1]
;Acelerografo.c,461 :: 		SPI1BUF = 0xFF;
	MOV	#255, W0
	MOV	WREG, SPI1BUF
;Acelerografo.c,459 :: 		if ((banSetReloj==2)&&(bufferSPI==0xF5)){                                  //Si detecta el delimitador de final de trama:
L__spi_1205:
L__spi_1204:
;Acelerografo.c,465 :: 		if ((banSetReloj==0)&&(bufferSPI==0xA6)){
	MOV	#lo_addr(_banSetReloj), W0
	MOV.B	[W0], W0
	CP.B	W0, #0
	BRA Z	L__spi_1301
	GOTO	L__spi_1207
L__spi_1301:
	MOV	#lo_addr(_bufferSPI), W0
	MOV.B	[W0], W1
	MOV.B	#166, W0
	CP.B	W1, W0
	BRA Z	L__spi_1302
	GOTO	L__spi_1206
L__spi_1302:
L__spi_1164:
;Acelerografo.c,466 :: 		banGPSI = 1;                                                            //Inicia la bandera de inicio de trama  del GPS
	MOV	#lo_addr(_banGPSI), W1
	MOV.B	#1, W0
	MOV.B	W0, [W1]
;Acelerografo.c,467 :: 		banGPSC = 0;                                                            //Limpia la bandera de trama completa
	MOV	#lo_addr(_banGPSC), W1
	CLR	W0
	MOV.B	W0, [W1]
;Acelerografo.c,468 :: 		U1MODE.UARTEN = 1;                                                      //Inicializa el UART1
	BSET	U1MODE, #15
;Acelerografo.c,470 :: 		T2CON.TON = 1;
	BSET	T2CON, #15
;Acelerografo.c,471 :: 		TMR2 = 0;
	CLR	TMR2
;Acelerografo.c,465 :: 		if ((banSetReloj==0)&&(bufferSPI==0xA6)){
L__spi_1207:
L__spi_1206:
;Acelerografo.c,475 :: 		if ((banSetReloj==0)&&(bufferSPI==0xA7)){
	MOV	#lo_addr(_banSetReloj), W0
	MOV.B	[W0], W0
	CP.B	W0, #0
	BRA Z	L__spi_1303
	GOTO	L__spi_1209
L__spi_1303:
	MOV	#lo_addr(_bufferSPI), W0
	MOV.B	[W0], W1
	MOV.B	#167, W0
	CP.B	W1, W0
	BRA Z	L__spi_1304
	GOTO	L__spi_1208
L__spi_1304:
L__spi_1163:
;Acelerografo.c,476 :: 		horaSistema = RecuperarHoraRTC();                                       //Recupera la hora del RTC
	CALL	_RecuperarHoraRTC
	MOV	W0, _horaSistema
	MOV	W1, _horaSistema+2
;Acelerografo.c,477 :: 		fechaSistema = RecuperarFechaRTC();                                     //Recupera la fecha del RTC
	CALL	_RecuperarFechaRTC
	MOV	W0, _fechaSistema
	MOV	W1, _fechaSistema+2
;Acelerografo.c,478 :: 		AjustarTiempoSistema(horaSistema, fechaSistema, tiempo);                //Actualiza los datos de la trama tiempo con la hora y fecha recuperadas
	MOV.D	W0, W12
	MOV	_horaSistema, W10
	MOV	_horaSistema+2, W11
	MOV	#lo_addr(_tiempo), W0
	PUSH	W0
	CALL	_AjustarTiempoSistema
	SUB	#2, W15
;Acelerografo.c,479 :: 		fuenteReloj = 1;                                                        //Fuente reloj: RTC
	MOV	#lo_addr(_fuenteReloj), W1
	MOV.B	#1, W0
	MOV.B	W0, [W1]
;Acelerografo.c,480 :: 		banSetReloj = 1;
	MOV	#lo_addr(_banSetReloj), W1
	MOV.B	#1, W0
	MOV.B	W0, [W1]
;Acelerografo.c,481 :: 		InterrupcionP1(0XB2);
	MOV.B	#178, W10
	CALL	_InterrupcionP1
;Acelerografo.c,475 :: 		if ((banSetReloj==0)&&(bufferSPI==0xA7)){
L__spi_1209:
L__spi_1208:
;Acelerografo.c,484 :: 		}
L_end_spi_1:
	POP	W13
	POP	W12
	POP	W11
	POP	W10
	MOV	#26, W0
	REPEAT	#12
	POP	[W0--]
	POP	W0
	POP	RCOUNT
	POP	50
	POP	DSWPAG
	RETFIE
; end of _spi_1

_int_1:
	PUSH	DSWPAG
	PUSH	50
	PUSH	RCOUNT
	PUSH	W0
	MOV	#2, W0
	REPEAT	#12
	PUSH	[W0++]

;Acelerografo.c,489 :: 		void int_1() org IVT_ADDR_INT1INTERRUPT {
;Acelerografo.c,491 :: 		INT1IF_bit = 0;                                                            //Limpia la bandera de interrupcion externa INT1
	BCLR	INT1IF_bit, BitPos(INT1IF_bit+0)
;Acelerografo.c,493 :: 		LedTest = ~LedTest;
	BTG	LATB12_bit, BitPos(LATB12_bit+0)
;Acelerografo.c,494 :: 		horaSistema++;                                                             //Incrementa el reloj del sistema
	MOV	#1, W1
	MOV	#0, W2
	MOV	#lo_addr(_horaSistema), W0
	ADD	W1, [W0], [W0++]
	ADDC	W2, [W0], [W0--]
;Acelerografo.c,496 :: 		if (horaSistema==86400){                                                   //(24*3600)+(0*60)+(0) = 86400
	MOV	_horaSistema, W2
	MOV	_horaSistema+2, W3
	MOV	#20864, W0
	MOV	#1, W1
	CP	W2, W0
	CPB	W3, W1
	BRA Z	L__int_1306
	GOTO	L_int_1123
L__int_1306:
;Acelerografo.c,497 :: 		horaSistema = 0;                                                        //Reinicia el reloj al llegar a las 24:00:00 horas
	CLR	W0
	CLR	W1
	MOV	W0, _horaSistema
	MOV	W1, _horaSistema+2
;Acelerografo.c,498 :: 		}
L_int_1123:
;Acelerografo.c,500 :: 		if (banInicioMuestreo==1){
	MOV	#lo_addr(_banInicioMuestreo), W0
	MOV.B	[W0], W0
	CP.B	W0, #1
	BRA Z	L__int_1307
	GOTO	L_int_1124
L__int_1307:
;Acelerografo.c,502 :: 		Muestrear();
	CALL	_Muestrear
;Acelerografo.c,503 :: 		}
L_int_1124:
;Acelerografo.c,505 :: 		}
L_end_int_1:
	MOV	#26, W0
	REPEAT	#12
	POP	[W0--]
	POP	W0
	POP	RCOUNT
	POP	50
	POP	DSWPAG
	RETFIE
; end of _int_1

_Timer1Int:
	PUSH	DSWPAG
	PUSH	50
	PUSH	RCOUNT
	PUSH	W0
	MOV	#2, W0
	REPEAT	#12
	PUSH	[W0++]

;Acelerografo.c,513 :: 		void Timer1Int() org IVT_ADDR_T1INTERRUPT{
;Acelerografo.c,515 :: 		T1IF_bit = 0;                                                              //Limpia la bandera de interrupcion por desbordamiento del Timer1
	PUSH	W10
	BCLR	T1IF_bit, BitPos(T1IF_bit+0)
;Acelerografo.c,517 :: 		numFIFO = ADXL355_read_byte(FIFO_ENTRIES); //75                            //Lee el numero de muestras disponibles en el FIFO
	MOV.B	#5, W10
	CALL	_ADXL355_read_byte
	MOV	#lo_addr(_numFIFO), W1
	MOV.B	W0, [W1]
;Acelerografo.c,518 :: 		numSetsFIFO = (numFIFO)/3;                 //25                            //Lee el numero de sets disponibles en el FIFO
	ZE	W0, W0
	MOV	#3, W2
	REPEAT	#17
	DIV.S	W0, W2
	MOV	W0, W1
	MOV	#lo_addr(_numSetsFIFO), W0
	MOV.B	W1, [W0]
;Acelerografo.c,521 :: 		for (x=0;x<numSetsFIFO;x++){
	CLR	W0
	MOV	W0, _x
L_Timer1Int125:
	MOV	#lo_addr(_numSetsFIFO), W0
	ZE	[W0], W1
	MOV	#lo_addr(_x), W0
	CP	W1, [W0]
	BRA GTU	L__Timer1Int309
	GOTO	L_Timer1Int126
L__Timer1Int309:
;Acelerografo.c,522 :: 		ADXL355_read_FIFO(datosLeidos);                                        //Lee una sola posicion del FIFO
	MOV	#lo_addr(_datosLeidos), W10
	CALL	_ADXL355_read_FIFO
;Acelerografo.c,523 :: 		for (y=0;y<9;y++){
	CLR	W0
	MOV	W0, _y
L_Timer1Int128:
	MOV	_y, W0
	CP	W0, #9
	BRA LTU	L__Timer1Int310
	GOTO	L_Timer1Int129
L__Timer1Int310:
;Acelerografo.c,524 :: 		datosFIFO[y+(x*9)] = datosLeidos[y];                               //LLena la trama datosFIFO
	MOV	_x, W1
	MOV	#9, W0
	MUL.UU	W1, W0, W2
	MOV	#lo_addr(_y), W0
	ADD	W2, [W0], W1
	MOV	#lo_addr(_datosFIFO), W0
	ADD	W0, W1, W2
	MOV	#lo_addr(_datosLeidos), W1
	MOV	#lo_addr(_y), W0
	ADD	W1, [W0], W0
	MOV.B	[W0], [W2]
;Acelerografo.c,523 :: 		for (y=0;y<9;y++){
	MOV	#1, W1
	MOV	#lo_addr(_y), W0
	ADD	W1, [W0], [W0]
;Acelerografo.c,525 :: 		}
	GOTO	L_Timer1Int128
L_Timer1Int129:
;Acelerografo.c,521 :: 		for (x=0;x<numSetsFIFO;x++){
	MOV	#1, W1
	MOV	#lo_addr(_x), W0
	ADD	W1, [W0], [W0]
;Acelerografo.c,526 :: 		}
	GOTO	L_Timer1Int125
L_Timer1Int126:
;Acelerografo.c,529 :: 		for (x=0;x<(numSetsFIFO*9);x++){      //0-224
	CLR	W0
	MOV	W0, _x
L_Timer1Int131:
	MOV	#lo_addr(_numSetsFIFO), W0
	ZE	[W0], W1
	MOV	#9, W0
	MUL.SS	W1, W0, W2
	MOV	#lo_addr(_x), W0
	CP	W2, [W0]
	BRA GTU	L__Timer1Int311
	GOTO	L_Timer1Int132
L__Timer1Int311:
;Acelerografo.c,530 :: 		if ((x==0)||(x%9==0)){
	MOV	_x, W0
	CP	W0, #0
	BRA NZ	L__Timer1Int312
	GOTO	L__Timer1Int212
L__Timer1Int312:
	MOV	_x, W0
	MOV	#9, W2
	REPEAT	#17
	DIV.U	W0, W2
	MOV	W1, W0
	CP	W0, #0
	BRA NZ	L__Timer1Int313
	GOTO	L__Timer1Int211
L__Timer1Int313:
	GOTO	L_Timer1Int136
L__Timer1Int212:
L__Timer1Int211:
;Acelerografo.c,531 :: 		tramaCompleta[contFIFO+contMuestras+x] = contMuestras;
	MOV	#lo_addr(_contMuestras), W0
	ZE	[W0], W1
	MOV	#lo_addr(_contFIFO), W0
	ADD	W1, [W0], W1
	MOV	#lo_addr(_x), W0
	ADD	W1, [W0], W1
	MOV	#lo_addr(_tramaCompleta), W0
	ADD	W0, W1, W1
	MOV	#lo_addr(_contMuestras), W0
	MOV.B	[W0], [W1]
;Acelerografo.c,532 :: 		tramaCompleta[contFIFO+contMuestras+x+1] = datosFIFO[x];
	MOV	#lo_addr(_contMuestras), W0
	ZE	[W0], W1
	MOV	#lo_addr(_contFIFO), W0
	ADD	W1, [W0], W1
	MOV	#lo_addr(_x), W0
	ADD	W1, [W0], W0
	ADD	W0, #1, W1
	MOV	#lo_addr(_tramaCompleta), W0
	ADD	W0, W1, W2
	MOV	#lo_addr(_datosFIFO), W1
	MOV	#lo_addr(_x), W0
	ADD	W1, [W0], W0
	MOV.B	[W0], [W2]
;Acelerografo.c,533 :: 		contMuestras++;
	MOV.B	#1, W1
	MOV	#lo_addr(_contMuestras), W0
	ADD.B	W1, [W0], [W0]
;Acelerografo.c,534 :: 		} else {
	GOTO	L_Timer1Int137
L_Timer1Int136:
;Acelerografo.c,535 :: 		tramaCompleta[contFIFO+contMuestras+x] = datosFIFO[x];
	MOV	#lo_addr(_contMuestras), W0
	ZE	[W0], W1
	MOV	#lo_addr(_contFIFO), W0
	ADD	W1, [W0], W1
	MOV	#lo_addr(_x), W0
	ADD	W1, [W0], W1
	MOV	#lo_addr(_tramaCompleta), W0
	ADD	W0, W1, W2
	MOV	#lo_addr(_datosFIFO), W1
	MOV	#lo_addr(_x), W0
	ADD	W1, [W0], W0
	MOV.B	[W0], [W2]
;Acelerografo.c,536 :: 		}
L_Timer1Int137:
;Acelerografo.c,529 :: 		for (x=0;x<(numSetsFIFO*9);x++){      //0-224
	MOV	#1, W1
	MOV	#lo_addr(_x), W0
	ADD	W1, [W0], [W0]
;Acelerografo.c,537 :: 		}
	GOTO	L_Timer1Int131
L_Timer1Int132:
;Acelerografo.c,539 :: 		contFIFO = (contMuestras*9);                                               //Incrementa el contador de FIFOs
	MOV	#lo_addr(_contMuestras), W0
	ZE	[W0], W1
	MOV	#9, W0
	MUL.SS	W1, W0, W0
	MOV	W0, _contFIFO
;Acelerografo.c,541 :: 		contTimer1++;                                                              //Incrementa una unidad cada vez que entra a la interrupcion por Timer1
	MOV.B	#1, W1
	MOV	#lo_addr(_contTimer1), W0
	ADD.B	W1, [W0], [W0]
;Acelerografo.c,543 :: 		if (contTimer1==numTMR1){                                                  //Verifica si se cumplio el numero de interrupciones por TMR1 para la tasa de muestreo seleccionada
	MOV	#lo_addr(_contTimer1), W0
	MOV.B	[W0], W1
	MOV	#lo_addr(_numTMR1), W0
	CP.B	W1, [W0]
	BRA Z	L__Timer1Int314
	GOTO	L_Timer1Int138
L__Timer1Int314:
;Acelerografo.c,544 :: 		T1CON.TON = 0;                                                          //Apaga el Timer1
	BCLR	T1CON, #15
;Acelerografo.c,545 :: 		banCiclo = 1;                                                           //Activa la bandera que indica que se completo un ciclo de medicion
	MOV	#lo_addr(_banCiclo), W1
	MOV.B	#1, W0
	MOV.B	W0, [W1]
;Acelerografo.c,546 :: 		contTimer1 = 0;                                                         //Limpia el contador de interrupciones por Timer1
	MOV	#lo_addr(_contTimer1), W1
	CLR	W0
	MOV.B	W0, [W1]
;Acelerografo.c,547 :: 		}
L_Timer1Int138:
;Acelerografo.c,549 :: 		}
L_end_Timer1Int:
	POP	W10
	MOV	#26, W0
	REPEAT	#12
	POP	[W0--]
	POP	W0
	POP	RCOUNT
	POP	50
	POP	DSWPAG
	RETFIE
; end of _Timer1Int

_Timer2Int:
	PUSH	DSWPAG
	PUSH	50
	PUSH	RCOUNT
	PUSH	W0
	MOV	#2, W0
	REPEAT	#12
	PUSH	[W0++]

;Acelerografo.c,554 :: 		void Timer2Int() org IVT_ADDR_T2INTERRUPT{
;Acelerografo.c,556 :: 		T2IF_bit = 0;                                                              //Limpia la bandera de interrupcion por desbordamiento del Timer1
	PUSH	W10
	PUSH	W11
	PUSH	W12
	PUSH	W13
	BCLR	T2IF_bit, BitPos(T2IF_bit+0)
;Acelerografo.c,557 :: 		contTimeout1++;                                                            //Incrementa el contador de Timeout
	MOV.B	#1, W1
	MOV	#lo_addr(_contTimeout1), W0
	ADD.B	W1, [W0], [W0]
;Acelerografo.c,560 :: 		if (contTimeout1==4){
	MOV	#lo_addr(_contTimeout1), W0
	MOV.B	[W0], W0
	CP.B	W0, #4
	BRA Z	L__Timer2Int316
	GOTO	L_Timer2Int139
L__Timer2Int316:
;Acelerografo.c,561 :: 		T2CON.TON = 0;
	BCLR	T2CON, #15
;Acelerografo.c,562 :: 		TMR2 = 0;
	CLR	TMR2
;Acelerografo.c,563 :: 		contTimeout1 = 0;
	MOV	#lo_addr(_contTimeout1), W1
	CLR	W0
	MOV.B	W0, [W1]
;Acelerografo.c,565 :: 		horaSistema = RecuperarHoraRTC();                                       //Recupera la hora del RTC
	CALL	_RecuperarHoraRTC
	MOV	W0, _horaSistema
	MOV	W1, _horaSistema+2
;Acelerografo.c,566 :: 		fechaSistema = RecuperarFechaRTC();                                     //Recupera la fecha del RTC
	CALL	_RecuperarFechaRTC
	MOV	W0, _fechaSistema
	MOV	W1, _fechaSistema+2
;Acelerografo.c,567 :: 		AjustarTiempoSistema(horaSistema, fechaSistema, tiempo);                //Actualiza los datos de la trama tiempo con la hora y fecha recuperadas
	MOV.D	W0, W12
	MOV	_horaSistema, W10
	MOV	_horaSistema+2, W11
	MOV	#lo_addr(_tiempo), W0
	PUSH	W0
	CALL	_AjustarTiempoSistema
	SUB	#2, W15
;Acelerografo.c,568 :: 		fuenteReloj = 5;                                                        //Fuente reloj: RTC/E5
	MOV	#lo_addr(_fuenteReloj), W1
	MOV.B	#5, W0
	MOV.B	W0, [W1]
;Acelerografo.c,569 :: 		banSetReloj = 1;
	MOV	#lo_addr(_banSetReloj), W1
	MOV.B	#1, W0
	MOV.B	W0, [W1]
;Acelerografo.c,571 :: 		banGPSI = 0;
	MOV	#lo_addr(_banGPSI), W1
	CLR	W0
	MOV.B	W0, [W1]
;Acelerografo.c,572 :: 		banGPSC = 0;
	MOV	#lo_addr(_banGPSC), W1
	CLR	W0
	MOV.B	W0, [W1]
;Acelerografo.c,573 :: 		i_gps = 0;
	CLR	W0
	MOV	W0, _i_gps
;Acelerografo.c,574 :: 		U1MODE.UARTEN = 0;                                                      //Desactiva el UART1
	BCLR	U1MODE, #15
;Acelerografo.c,576 :: 		InterrupcionP1(0XB2);
	MOV.B	#178, W10
	CALL	_InterrupcionP1
;Acelerografo.c,577 :: 		}
L_Timer2Int139:
;Acelerografo.c,579 :: 		}
L_end_Timer2Int:
	POP	W13
	POP	W12
	POP	W11
	POP	W10
	MOV	#26, W0
	REPEAT	#12
	POP	[W0--]
	POP	W0
	POP	RCOUNT
	POP	50
	POP	DSWPAG
	RETFIE
; end of _Timer2Int
