
_ADXL355_init:

;adxl355_spi.c,106 :: 		void ADXL355_init(short tMuestreo){
;adxl355_spi.c,107 :: 		ADXL355_write_byte(Reset,0x52);                                             //Resetea el dispositivo
	PUSH	W10
	PUSH	W11
	PUSH	W10
	MOV.B	#82, W11
	MOV.B	#47, W10
	CALL	_ADXL355_write_byte
;adxl355_spi.c,108 :: 		Delay_ms(10);
	MOV	#2, W8
	MOV	#14464, W7
L_ADXL355_init0:
	DEC	W7
	BRA NZ	L_ADXL355_init0
	DEC	W8
	BRA NZ	L_ADXL355_init0
	NOP
	NOP
;adxl355_spi.c,109 :: 		ADXL355_write_byte(POWER_CTL, DRDY_OFF|STANDBY);
	MOV.B	#5, W11
	MOV.B	#45, W10
	CALL	_ADXL355_write_byte
;adxl355_spi.c,110 :: 		ADXL355_write_byte(Range, _2G);
	MOV.B	#1, W11
	MOV.B	#44, W10
	CALL	_ADXL355_write_byte
	POP	W10
;adxl355_spi.c,111 :: 		switch (tMuestreo){
	GOTO	L_ADXL355_init2
;adxl355_spi.c,112 :: 		case 1:
L_ADXL355_init4:
;adxl355_spi.c,113 :: 		ADXL355_write_byte(Filter, NO_HIGH_PASS_FILTER|_62_5_Hz);       //ODR=250Hz 1
	MOV.B	#4, W11
	MOV.B	#40, W10
	CALL	_ADXL355_write_byte
;adxl355_spi.c,114 :: 		break;
	GOTO	L_ADXL355_init3
;adxl355_spi.c,115 :: 		case 2:
L_ADXL355_init5:
;adxl355_spi.c,116 :: 		ADXL355_write_byte(Filter, NO_HIGH_PASS_FILTER|_31_25_Hz);      //ODR=125Hz 2
	MOV.B	#5, W11
	MOV.B	#40, W10
	CALL	_ADXL355_write_byte
;adxl355_spi.c,117 :: 		break;
	GOTO	L_ADXL355_init3
;adxl355_spi.c,118 :: 		case 4:
L_ADXL355_init6:
;adxl355_spi.c,119 :: 		ADXL355_write_byte(Filter, NO_HIGH_PASS_FILTER|_15_625_Hz);     //ODR=62.5Hz 4
	MOV.B	#6, W11
	MOV.B	#40, W10
	CALL	_ADXL355_write_byte
;adxl355_spi.c,120 :: 		break;
	GOTO	L_ADXL355_init3
;adxl355_spi.c,121 :: 		case 8:
L_ADXL355_init7:
;adxl355_spi.c,122 :: 		ADXL355_write_byte(Filter, NO_HIGH_PASS_FILTER|_7_813_Hz );     //ODR=31.25Hz 8
	MOV.B	#7, W11
	MOV.B	#40, W10
	CALL	_ADXL355_write_byte
;adxl355_spi.c,123 :: 		break;
	GOTO	L_ADXL355_init3
;adxl355_spi.c,124 :: 		}
L_ADXL355_init2:
	CP.B	W10, #1
	BRA NZ	L__ADXL355_init267
	GOTO	L_ADXL355_init4
L__ADXL355_init267:
	CP.B	W10, #2
	BRA NZ	L__ADXL355_init268
	GOTO	L_ADXL355_init5
L__ADXL355_init268:
	CP.B	W10, #4
	BRA NZ	L__ADXL355_init269
	GOTO	L_ADXL355_init6
L__ADXL355_init269:
	CP.B	W10, #8
	BRA NZ	L__ADXL355_init270
	GOTO	L_ADXL355_init7
L__ADXL355_init270:
L_ADXL355_init3:
;adxl355_spi.c,125 :: 		}
L_end_ADXL355_init:
	POP	W11
	POP	W10
	RETURN
; end of _ADXL355_init

_ADXL355_write_byte:

;adxl355_spi.c,128 :: 		void ADXL355_write_byte(unsigned char address, unsigned char value){
;adxl355_spi.c,129 :: 		address = (address<<1)&0xFE;
	PUSH	W10
	ZE	W10, W0
	SL	W0, #1, W1
	MOV	#254, W0
	AND	W1, W0, W0
	MOV.B	W0, W10
;adxl355_spi.c,130 :: 		CS_ADXL355=0;
	BCLR	LATA3_bit, BitPos(LATA3_bit+0)
;adxl355_spi.c,131 :: 		SPI2_Write(address);
	ZE	W0, W10
	CALL	_SPI2_Write
;adxl355_spi.c,132 :: 		SPI2_Write(value);
	ZE	W11, W10
	CALL	_SPI2_Write
;adxl355_spi.c,133 :: 		CS_ADXL355=1;
	BSET	LATA3_bit, BitPos(LATA3_bit+0)
;adxl355_spi.c,134 :: 		}
L_end_ADXL355_write_byte:
	POP	W10
	RETURN
; end of _ADXL355_write_byte

_ADXL355_read_byte:

;adxl355_spi.c,137 :: 		unsigned char ADXL355_read_byte(unsigned char address){
;adxl355_spi.c,138 :: 		unsigned char value = 0x00;
	PUSH	W10
;adxl355_spi.c,139 :: 		address=(address<<1)|0x01;
	ZE	W10, W0
	SL	W0, #1, W0
	IOR	W0, #1, W0
	MOV.B	W0, W10
;adxl355_spi.c,140 :: 		CS_ADXL355=0;
	BCLR	LATA3_bit, BitPos(LATA3_bit+0)
;adxl355_spi.c,141 :: 		SPI2_Write(address);
	ZE	W0, W10
	CALL	_SPI2_Write
;adxl355_spi.c,142 :: 		value=SPI2_Read(0);
	CLR	W10
	CALL	_SPI2_Read
;adxl355_spi.c,143 :: 		CS_ADXL355=1;
	BSET	LATA3_bit, BitPos(LATA3_bit+0)
;adxl355_spi.c,144 :: 		return value;
;adxl355_spi.c,145 :: 		}
;adxl355_spi.c,144 :: 		return value;
;adxl355_spi.c,145 :: 		}
L_end_ADXL355_read_byte:
	POP	W10
	RETURN
; end of _ADXL355_read_byte

_ADXL355_read_data:

;adxl355_spi.c,148 :: 		unsigned int ADXL355_read_data(unsigned char *vectorMuestra){
;adxl355_spi.c,151 :: 		if((ADXL355_read_byte(Status)&0x01)==1){                                 //Verifica que el bit DATA_RDY del registro Status este en alto
	PUSH	W10
	MOV.B	#4, W10
	CALL	_ADXL355_read_byte
	POP	W10
	ZE	W0, W0
	AND	W0, #1, W0
	CP	W0, #1
	BRA Z	L__ADXL355_read_data274
	GOTO	L_ADXL355_read_data8
L__ADXL355_read_data274:
;adxl355_spi.c,152 :: 		CS_ADXL355=0;
	BCLR	LATA3_bit, BitPos(LATA3_bit+0)
;adxl355_spi.c,153 :: 		for (j=0;j<9;j++){
; j start address is: 4 (W2)
	CLR	W2
; j end address is: 4 (W2)
L_ADXL355_read_data9:
; j start address is: 4 (W2)
	CP.B	W2, #9
	BRA LTU	L__ADXL355_read_data275
	GOTO	L_ADXL355_read_data10
L__ADXL355_read_data275:
;adxl355_spi.c,154 :: 		muestra = ADXL355_read_byte(axisAddresses[j]);
	ZE	W2, W1
	MOV	#lo_addr(_axisAddresses), W0
	ADD	W0, W1, W0
	PUSH	W10
	MOV.B	[W0], W10
	CALL	_ADXL355_read_byte
	POP	W10
;adxl355_spi.c,155 :: 		vectorMuestra[j] = muestra;
	ZE	W2, W1
	ADD	W10, W1, W1
	MOV.B	W0, [W1]
;adxl355_spi.c,153 :: 		for (j=0;j<9;j++){
	INC.B	W2
;adxl355_spi.c,156 :: 		}
; j end address is: 4 (W2)
	GOTO	L_ADXL355_read_data9
L_ADXL355_read_data10:
;adxl355_spi.c,157 :: 		CS_ADXL355=1;
	BSET	LATA3_bit, BitPos(LATA3_bit+0)
;adxl355_spi.c,158 :: 		} else {
	GOTO	L_ADXL355_read_data12
L_ADXL355_read_data8:
;adxl355_spi.c,159 :: 		for (j=0;j<9;j++){
; j start address is: 4 (W2)
	CLR	W2
; j end address is: 4 (W2)
L_ADXL355_read_data13:
; j start address is: 4 (W2)
	CP.B	W2, #9
	BRA LTU	L__ADXL355_read_data276
	GOTO	L_ADXL355_read_data14
L__ADXL355_read_data276:
;adxl355_spi.c,160 :: 		vectorMuestra[j] = 0;
	ZE	W2, W0
	ADD	W10, W0, W1
	CLR	W0
	MOV.B	W0, [W1]
;adxl355_spi.c,159 :: 		for (j=0;j<9;j++){
	INC.B	W2
;adxl355_spi.c,161 :: 		}
; j end address is: 4 (W2)
	GOTO	L_ADXL355_read_data13
L_ADXL355_read_data14:
;adxl355_spi.c,162 :: 		}
L_ADXL355_read_data12:
;adxl355_spi.c,163 :: 		return;
;adxl355_spi.c,164 :: 		}
L_end_ADXL355_read_data:
	RETURN
; end of _ADXL355_read_data

_ADXL355_read_FIFO:
	LNK	#2

;adxl355_spi.c,167 :: 		unsigned int ADXL355_read_FIFO(unsigned char *vectorFIFO){
;adxl355_spi.c,170 :: 		CS_ADXL355 = 0;
	PUSH	W10
	BCLR	LATA3_bit, BitPos(LATA3_bit+0)
;adxl355_spi.c,171 :: 		SPI2_Write(add);
	PUSH	W10
	MOV	#35, W10
	CALL	_SPI2_Write
	POP	W10
;adxl355_spi.c,173 :: 		vectorFIFO[0] = SPI2_Read(0);
	MOV	W10, W0
	MOV	W0, [W14+0]
	PUSH	W10
	CLR	W10
	CALL	_SPI2_Read
	POP	W10
	MOV	[W14+0], W1
	MOV.B	W0, [W1]
;adxl355_spi.c,174 :: 		vectorFIFO[1] = SPI2_Read(1);
	ADD	W10, #1, W0
	MOV	W0, [W14+0]
	PUSH	W10
	MOV	#1, W10
	CALL	_SPI2_Read
	POP	W10
	MOV	[W14+0], W1
	MOV.B	W0, [W1]
;adxl355_spi.c,175 :: 		vectorFIFO[2] = SPI2_Read(2);
	ADD	W10, #2, W0
	MOV	W0, [W14+0]
	PUSH	W10
	MOV	#2, W10
	CALL	_SPI2_Read
	POP	W10
	MOV	[W14+0], W1
	MOV.B	W0, [W1]
;adxl355_spi.c,177 :: 		vectorFIFO[3] = SPI2_Read(0);
	ADD	W10, #3, W0
	MOV	W0, [W14+0]
	PUSH	W10
	CLR	W10
	CALL	_SPI2_Read
	POP	W10
	MOV	[W14+0], W1
	MOV.B	W0, [W1]
;adxl355_spi.c,178 :: 		vectorFIFO[4] = SPI2_Read(1);
	ADD	W10, #4, W0
	MOV	W0, [W14+0]
	PUSH	W10
	MOV	#1, W10
	CALL	_SPI2_Read
	POP	W10
	MOV	[W14+0], W1
	MOV.B	W0, [W1]
;adxl355_spi.c,179 :: 		vectorFIFO[5] = SPI2_Read(2);
	ADD	W10, #5, W0
	MOV	W0, [W14+0]
	PUSH	W10
	MOV	#2, W10
	CALL	_SPI2_Read
	POP	W10
	MOV	[W14+0], W1
	MOV.B	W0, [W1]
;adxl355_spi.c,181 :: 		vectorFIFO[6] = SPI2_Read(0);
	ADD	W10, #6, W0
	MOV	W0, [W14+0]
	PUSH	W10
	CLR	W10
	CALL	_SPI2_Read
	POP	W10
	MOV	[W14+0], W1
	MOV.B	W0, [W1]
;adxl355_spi.c,182 :: 		vectorFIFO[7] = SPI2_Read(1);
	ADD	W10, #7, W0
	MOV	W0, [W14+0]
	PUSH	W10
	MOV	#1, W10
	CALL	_SPI2_Read
	POP	W10
	MOV	[W14+0], W1
	MOV.B	W0, [W1]
;adxl355_spi.c,183 :: 		vectorFIFO[8] = SPI2_Read(2);
	ADD	W10, #8, W0
	MOV	W0, [W14+0]
	MOV	#2, W10
	CALL	_SPI2_Read
	MOV	[W14+0], W1
	MOV.B	W0, [W1]
;adxl355_spi.c,184 :: 		CS_ADXL355 = 1;
	BSET	LATA3_bit, BitPos(LATA3_bit+0)
;adxl355_spi.c,185 :: 		Delay_us(5);
	MOV	#40, W7
L_ADXL355_read_FIFO16:
	DEC	W7
	BRA NZ	L_ADXL355_read_FIFO16
	NOP
	NOP
;adxl355_spi.c,187 :: 		}
;adxl355_spi.c,186 :: 		return;
;adxl355_spi.c,187 :: 		}
L_end_ADXL355_read_FIFO:
	POP	W10
	ULNK
	RETURN
; end of _ADXL355_read_FIFO

_GPS_init:

;tiempo_gps.c,13 :: 		void GPS_init(){
;tiempo_gps.c,31 :: 		UART1_Write_Text("$PMTK220,1000*1F\r\n");
	PUSH	W10
	MOV	#lo_addr(?lstr1_Acelerografo), W10
	CALL	_UART1_Write_Text
;tiempo_gps.c,32 :: 		Delay_ms(1000);
	MOV	#123, W8
	MOV	#4681, W7
L_GPS_init18:
	DEC	W7
	BRA NZ	L_GPS_init18
	DEC	W8
	BRA NZ	L_GPS_init18
;tiempo_gps.c,36 :: 		UART1_Write_Text("$PMTK314,0,1,0,0,0,0,0,0,0,0,0,0,0,0,0,0,0*29\r\n");
	MOV	#lo_addr(?lstr2_Acelerografo), W10
	CALL	_UART1_Write_Text
;tiempo_gps.c,37 :: 		Delay_ms(1000);
	MOV	#123, W8
	MOV	#4681, W7
L_GPS_init20:
	DEC	W7
	BRA NZ	L_GPS_init20
	DEC	W8
	BRA NZ	L_GPS_init20
;tiempo_gps.c,39 :: 		U1MODE.UARTEN = 0;                                                         //Desactiva el UART1
	BCLR	U1MODE, #15
;tiempo_gps.c,40 :: 		}
L_end_GPS_init:
	POP	W10
	RETURN
; end of _GPS_init

_RecuperarFechaGPS:
	LNK	#28

;tiempo_gps.c,45 :: 		unsigned long RecuperarFechaGPS(unsigned char *tramaDatosGPS){
;tiempo_gps.c,50 :: 		char *ptrDatoStringF = &datoStringF;
	PUSH	W10
	ADD	W14, #16, W4
	MOV	W4, [W14+26]
; ptrDatoStringF start address is: 12 (W6)
	MOV	W4, W6
;tiempo_gps.c,51 :: 		datoStringF[2] = '\0';
	ADD	W4, #2, W1
	CLR	W0
	MOV.B	W0, [W1]
;tiempo_gps.c,52 :: 		tramaFecha[3] = '\0';
	ADD	W14, #0, W3
	MOV	W3, [W14+24]
	ADD	W3, #12, W2
	CLR	W0
	CLR	W1
	MOV.D	W0, [W2]
;tiempo_gps.c,55 :: 		datoStringF[0] = tramaDatosGPS[10];
	ADD	W10, #10, W0
	MOV.B	[W0], [W4]
;tiempo_gps.c,56 :: 		datoStringF[1] = tramaDatosGPS[11];
	ADD	W4, #1, W1
	ADD	W10, #11, W0
	MOV.B	[W0], [W1]
;tiempo_gps.c,57 :: 		tramaFecha[0] = atoi(ptrDatoStringF);
	MOV	W3, W0
	MOV	W0, [W14+20]
	PUSH	W10
	MOV	W6, W10
	CALL	_atoi
	POP	W10
	MOV	W0, W1
	ASR	W1, #15, W2
	MOV	[W14+20], W0
	MOV	W1, [W0++]
	MOV	W2, [W0--]
;tiempo_gps.c,60 :: 		datoStringF[0] = tramaDatosGPS[8];
	ADD	W10, #8, W1
	MOV	[W14+26], W0
	MOV.B	[W1], [W0]
;tiempo_gps.c,61 :: 		datoStringF[1] = tramaDatosGPS[9];
	ADD	W0, #1, W1
	ADD	W10, #9, W0
	MOV.B	[W0], [W1]
;tiempo_gps.c,62 :: 		tramaFecha[1] = atoi(ptrDatoStringF);
	MOV	[W14+24], W0
	ADD	W0, #4, W0
	MOV	W0, [W14+20]
	PUSH	W10
	MOV	W6, W10
	CALL	_atoi
	POP	W10
	MOV	W0, W1
	ASR	W1, #15, W2
	MOV	[W14+20], W0
	MOV	W1, [W0++]
	MOV	W2, [W0--]
;tiempo_gps.c,65 :: 		datoStringF[0] = tramaDatosGPS[6];
	ADD	W10, #6, W1
	MOV	[W14+26], W0
	MOV.B	[W1], [W0]
;tiempo_gps.c,66 :: 		datoStringF[1] = tramaDatosGPS[7];
	ADD	W0, #1, W1
	ADD	W10, #7, W0
	MOV.B	[W0], [W1]
;tiempo_gps.c,67 :: 		tramaFecha[2] =  atoi(ptrDatoStringF);
	MOV	[W14+24], W0
	ADD	W0, #8, W0
	MOV	W0, [W14+20]
	MOV	W6, W10
; ptrDatoStringF end address is: 12 (W6)
	CALL	_atoi
	MOV	W0, W1
	ASR	W1, #15, W2
	MOV	[W14+20], W0
	MOV	W1, [W0++]
	MOV	W2, [W0--]
;tiempo_gps.c,69 :: 		fechaGPS = (tramaFecha[0]*10000)+(tramaFecha[1]*100)+(tramaFecha[2]);      //10000*aa + 100*mm + dd
	MOV	[W14+24], W2
	MOV.D	[W2], W0
	MOV	#10000, W2
	MOV	#0, W3
	CALL	__Multiply_32x32
	MOV	[W14+24], W2
	MOV	W0, [W14+20]
	MOV	W1, [W14+22]
	ADD	W2, #4, W2
	MOV.D	[W2], W0
	MOV	#100, W2
	MOV	#0, W3
	CALL	__Multiply_32x32
	MOV	[W14+20], W2
	MOV	[W14+22], W3
	ADD	W2, W0, W4
	ADDC	W3, W1, W5
	MOV	[W14+24], W0
	ADD	W0, #8, W2
	ADD	W4, [W2++], W0
	ADDC	W5, [W2--], W1
;tiempo_gps.c,71 :: 		return fechaGPS;
;tiempo_gps.c,73 :: 		}
;tiempo_gps.c,71 :: 		return fechaGPS;
;tiempo_gps.c,73 :: 		}
L_end_RecuperarFechaGPS:
	POP	W10
	ULNK
	RETURN
; end of _RecuperarFechaGPS

_RecuperarHoraGPS:
	LNK	#28

;tiempo_gps.c,76 :: 		unsigned long RecuperarHoraGPS(unsigned char *tramaDatosGPS){
;tiempo_gps.c,81 :: 		char *ptrDatoString = &datoString;
	PUSH	W10
	ADD	W14, #16, W4
	MOV	W4, [W14+26]
; ptrDatoString start address is: 12 (W6)
	MOV	W4, W6
;tiempo_gps.c,82 :: 		datoString[2] = '\0';
	ADD	W4, #2, W1
	CLR	W0
	MOV.B	W0, [W1]
;tiempo_gps.c,83 :: 		tramaTiempo[3] = '\0';
	ADD	W14, #0, W3
	MOV	W3, [W14+24]
	ADD	W3, #12, W2
	CLR	W0
	CLR	W1
	MOV.D	W0, [W2]
;tiempo_gps.c,86 :: 		datoString[0] = tramaDatosGPS[0];
	MOV.B	[W10], [W4]
;tiempo_gps.c,87 :: 		datoString[1] = tramaDatosGPS[1];
	ADD	W4, #1, W1
	ADD	W10, #1, W0
	MOV.B	[W0], [W1]
;tiempo_gps.c,88 :: 		tramaTiempo[0] = atoi(ptrDatoString);
	MOV	W3, W0
	MOV	W0, [W14+20]
	PUSH	W10
	MOV	W6, W10
	CALL	_atoi
	POP	W10
	MOV	W0, W1
	ASR	W1, #15, W2
	MOV	[W14+20], W0
	MOV	W1, [W0++]
	MOV	W2, [W0--]
;tiempo_gps.c,91 :: 		datoString[0] = tramaDatosGPS[2];
	ADD	W10, #2, W1
	MOV	[W14+26], W0
	MOV.B	[W1], [W0]
;tiempo_gps.c,92 :: 		datoString[1] = tramaDatosGPS[3];
	ADD	W0, #1, W1
	ADD	W10, #3, W0
	MOV.B	[W0], [W1]
;tiempo_gps.c,93 :: 		tramaTiempo[1] = atoi(ptrDatoString);
	MOV	[W14+24], W0
	ADD	W0, #4, W0
	MOV	W0, [W14+20]
	PUSH	W10
	MOV	W6, W10
	CALL	_atoi
	POP	W10
	MOV	W0, W1
	ASR	W1, #15, W2
	MOV	[W14+20], W0
	MOV	W1, [W0++]
	MOV	W2, [W0--]
;tiempo_gps.c,96 :: 		datoString[0] = tramaDatosGPS[4];
	ADD	W10, #4, W1
	MOV	[W14+26], W0
	MOV.B	[W1], [W0]
;tiempo_gps.c,97 :: 		datoString[1] = tramaDatosGPS[5];
	ADD	W0, #1, W1
	ADD	W10, #5, W0
	MOV.B	[W0], [W1]
;tiempo_gps.c,98 :: 		tramaTiempo[2] = atoi(ptrDatoString);
	MOV	[W14+24], W0
	ADD	W0, #8, W0
	MOV	W0, [W14+20]
	MOV	W6, W10
; ptrDatoString end address is: 12 (W6)
	CALL	_atoi
	MOV	W0, W1
	ASR	W1, #15, W2
	MOV	[W14+20], W0
	MOV	W1, [W0++]
	MOV	W2, [W0--]
;tiempo_gps.c,100 :: 		horaGPS = (tramaTiempo[0]*3600)+(tramaTiempo[1]*60)+(tramaTiempo[2]);      //Calcula el segundo actual = hh*3600 + mm*60 + ss
	MOV	[W14+24], W2
	MOV.D	[W2], W0
	MOV	#3600, W2
	MOV	#0, W3
	CALL	__Multiply_32x32
	MOV	[W14+24], W2
	MOV	W0, [W14+20]
	MOV	W1, [W14+22]
	ADD	W2, #4, W2
	MOV.D	[W2], W0
	MOV	#60, W2
	MOV	#0, W3
	CALL	__Multiply_32x32
	MOV	[W14+20], W2
	MOV	[W14+22], W3
	ADD	W2, W0, W4
	ADDC	W3, W1, W5
	MOV	[W14+24], W0
	ADD	W0, #8, W2
	ADD	W4, [W2++], W0
	ADDC	W5, [W2--], W1
;tiempo_gps.c,101 :: 		return horaGPS;
;tiempo_gps.c,103 :: 		}
;tiempo_gps.c,101 :: 		return horaGPS;
;tiempo_gps.c,103 :: 		}
L_end_RecuperarHoraGPS:
	POP	W10
	ULNK
	RETURN
; end of _RecuperarHoraGPS

_DS3234_init:

;tiempo_rtc.c,55 :: 		void DS3234_init(){
;tiempo_rtc.c,57 :: 		SPI2_Init_Advanced(_SPI_MASTER, _SPI_8_BIT, _SPI_PRESCALE_SEC_1, _SPI_PRESCALE_PRI_64, _SPI_SS_DISABLE, _SPI_DATA_SAMPLE_MIDDLE, _SPI_CLK_IDLE_LOW, _SPI_ACTIVE_2_IDLE);
	PUSH	W10
	PUSH	W11
	PUSH	W12
	PUSH	W13
	CLR	W13
	MOV	#28, W12
	CLR	W11
	MOV	#32, W10
	CLR	W0
	PUSH	W0
	CLR	W0
	PUSH	W0
	CLR	W0
	PUSH	W0
	CLR	W0
	PUSH	W0
	CALL	_SPI2_Init_Advanced
	SUB	#8, W15
;tiempo_rtc.c,58 :: 		DS3234_write_byte(Control,0x20);
	MOV.B	#32, W11
	MOV.B	#142, W10
	CALL	_DS3234_write_byte
;tiempo_rtc.c,59 :: 		DS3234_write_byte(ControlStatus,0x08);
	MOV.B	#8, W11
	MOV.B	#143, W10
	CALL	_DS3234_write_byte
;tiempo_rtc.c,60 :: 		SPI2_Init();
	CALL	_SPI2_Init
;tiempo_rtc.c,62 :: 		}
L_end_DS3234_init:
	POP	W13
	POP	W12
	POP	W11
	POP	W10
	RETURN
; end of _DS3234_init

_DS3234_write_byte:

;tiempo_rtc.c,65 :: 		void DS3234_write_byte(unsigned char address, unsigned char value){
;tiempo_rtc.c,67 :: 		CS_DS3234 = 0;
	PUSH	W10
	BCLR	LATA2_bit, BitPos(LATA2_bit+0)
;tiempo_rtc.c,68 :: 		SPI2_Write(address);
	ZE	W10, W10
	CALL	_SPI2_Write
;tiempo_rtc.c,69 :: 		SPI2_Write(value);
	ZE	W11, W10
	CALL	_SPI2_Write
;tiempo_rtc.c,70 :: 		CS_DS3234 = 1;
	BSET	LATA2_bit, BitPos(LATA2_bit+0)
;tiempo_rtc.c,72 :: 		}
L_end_DS3234_write_byte:
	POP	W10
	RETURN
; end of _DS3234_write_byte

_DS3234_read_byte:

;tiempo_rtc.c,75 :: 		unsigned char DS3234_read_byte(unsigned char address){
;tiempo_rtc.c,77 :: 		unsigned char value = 0x00;
	PUSH	W10
;tiempo_rtc.c,78 :: 		CS_DS3234 = 0;
	BCLR	LATA2_bit, BitPos(LATA2_bit+0)
;tiempo_rtc.c,79 :: 		SPI2_Write(address);
	ZE	W10, W10
	CALL	_SPI2_Write
;tiempo_rtc.c,80 :: 		value = SPI2_Read(0);
	CLR	W10
	CALL	_SPI2_Read
;tiempo_rtc.c,81 :: 		CS_DS3234 = 1;
	BSET	LATA2_bit, BitPos(LATA2_bit+0)
;tiempo_rtc.c,82 :: 		return value;
;tiempo_rtc.c,84 :: 		}
;tiempo_rtc.c,82 :: 		return value;
;tiempo_rtc.c,84 :: 		}
L_end_DS3234_read_byte:
	POP	W10
	RETURN
; end of _DS3234_read_byte

_DS3234_setDate:
	LNK	#14

;tiempo_rtc.c,87 :: 		void DS3234_setDate(unsigned long longHora, unsigned long longFecha){
;tiempo_rtc.c,97 :: 		SPI2_Init_Advanced(_SPI_MASTER, _SPI_8_BIT, _SPI_PRESCALE_SEC_1, _SPI_PRESCALE_PRI_64, _SPI_SS_DISABLE, _SPI_DATA_SAMPLE_MIDDLE, _SPI_CLK_IDLE_LOW, _SPI_ACTIVE_2_IDLE);
	PUSH	W10
	PUSH	W11
	PUSH.D	W12
	PUSH.D	W10
	CLR	W13
	MOV	#28, W12
	CLR	W11
	MOV	#32, W10
	CLR	W0
	PUSH	W0
	CLR	W0
	PUSH	W0
	CLR	W0
	PUSH	W0
	CLR	W0
	PUSH	W0
	CALL	_SPI2_Init_Advanced
	SUB	#8, W15
	POP.D	W10
;tiempo_rtc.c,99 :: 		hora = (short)(longHora / 3600);
	PUSH.D	W10
	MOV	#3600, W2
	MOV	#0, W3
	MOV.D	W10, W0
	CLR	W4
	CALL	__Divide_32x32
	POP.D	W10
	MOV.B	W0, [W14+0]
;tiempo_rtc.c,100 :: 		minuto = (short)((longHora%3600) / 60);
	MOV	#3600, W2
	MOV	#0, W3
	MOV.D	W10, W0
	CLR	W4
	CALL	__Modulus_32x32
	MOV	W0, [W14+10]
	MOV	W1, [W14+12]
	MOV	#60, W2
	MOV	#0, W3
	CLR	W4
	CALL	__Divide_32x32
	MOV.B	W0, [W14+1]
;tiempo_rtc.c,101 :: 		segundo = (short)((longHora%3600) % 60);
	MOV	[W14+10], W0
	MOV	[W14+12], W1
	MOV	#60, W2
	MOV	#0, W3
	CLR	W4
	CALL	__Modulus_32x32
	POP.D	W12
	MOV.B	W0, [W14+2]
;tiempo_rtc.c,103 :: 		dia = (short)(longFecha / 10000);
	PUSH.D	W12
	MOV	#10000, W2
	MOV	#0, W3
	MOV.D	W12, W0
	CLR	W4
	CALL	__Divide_32x32
	POP.D	W12
	MOV.B	W0, [W14+3]
;tiempo_rtc.c,104 :: 		mes = (short)((longFecha%10000) / 100);
	MOV	#10000, W2
	MOV	#0, W3
	MOV.D	W12, W0
	CLR	W4
	CALL	__Modulus_32x32
	MOV	W0, [W14+10]
	MOV	W1, [W14+12]
	MOV	#100, W2
	MOV	#0, W3
	CLR	W4
	CALL	__Divide_32x32
	MOV.B	W0, [W14+4]
;tiempo_rtc.c,105 :: 		anio = (short)((longFecha%10000) % 100);
	MOV	[W14+10], W0
	MOV	[W14+12], W1
	MOV	#100, W2
	MOV	#0, W3
	CLR	W4
	CALL	__Modulus_32x32
; anio start address is: 8 (W4)
	MOV.B	W0, W4
;tiempo_rtc.c,107 :: 		segundo = Dec2Bcd(segundo);
	MOV.B	[W14+2], W10
	CALL	_Dec2Bcd
	MOV.B	W0, [W14+2]
;tiempo_rtc.c,108 :: 		minuto = Dec2Bcd(minuto);
	MOV.B	[W14+1], W10
	CALL	_Dec2Bcd
	MOV.B	W0, [W14+1]
;tiempo_rtc.c,109 :: 		hora = Dec2Bcd(hora);
	MOV.B	[W14+0], W10
	CALL	_Dec2Bcd
	MOV.B	W0, [W14+0]
;tiempo_rtc.c,110 :: 		dia = Dec2Bcd(dia);
	MOV.B	[W14+3], W10
	CALL	_Dec2Bcd
	MOV.B	W0, [W14+3]
;tiempo_rtc.c,111 :: 		mes = Dec2Bcd(mes);
	MOV.B	[W14+4], W10
	CALL	_Dec2Bcd
	MOV.B	W0, [W14+4]
;tiempo_rtc.c,112 :: 		anio = Dec2Bcd(anio);
	MOV.B	W4, W10
; anio end address is: 8 (W4)
	CALL	_Dec2Bcd
; anio start address is: 2 (W1)
	MOV.B	W0, W1
;tiempo_rtc.c,114 :: 		DS3234_write_byte(Segundos_Esc, segundo);
	MOV.B	[W14+2], W11
	MOV.B	#128, W10
	CALL	_DS3234_write_byte
;tiempo_rtc.c,115 :: 		DS3234_write_byte(Minutos_Esc, minuto);
	MOV.B	[W14+1], W11
	MOV.B	#129, W10
	CALL	_DS3234_write_byte
;tiempo_rtc.c,116 :: 		DS3234_write_byte(Horas_Esc, hora);
	MOV.B	[W14+0], W11
	MOV.B	#130, W10
	CALL	_DS3234_write_byte
;tiempo_rtc.c,117 :: 		DS3234_write_byte(DiaMes_Esc, dia);
	MOV.B	[W14+3], W11
	MOV.B	#132, W10
	CALL	_DS3234_write_byte
;tiempo_rtc.c,118 :: 		DS3234_write_byte(Mes_Esc, mes);
	MOV.B	[W14+4], W11
	MOV.B	#133, W10
	CALL	_DS3234_write_byte
;tiempo_rtc.c,119 :: 		DS3234_write_byte(Anio_Esc, anio);
	MOV.B	W1, W11
; anio end address is: 2 (W1)
	MOV.B	#134, W10
	CALL	_DS3234_write_byte
;tiempo_rtc.c,121 :: 		SPI2_Init();
	CALL	_SPI2_Init
;tiempo_rtc.c,125 :: 		}
;tiempo_rtc.c,123 :: 		return;
;tiempo_rtc.c,125 :: 		}
L_end_DS3234_setDate:
	POP	W11
	POP	W10
	ULNK
	RETURN
; end of _DS3234_setDate

_RecuperarHoraRTC:
	LNK	#4

;tiempo_rtc.c,128 :: 		unsigned long RecuperarHoraRTC(){
;tiempo_rtc.c,136 :: 		SPI2_Init_Advanced(_SPI_MASTER, _SPI_8_BIT, _SPI_PRESCALE_SEC_1, _SPI_PRESCALE_PRI_64, _SPI_SS_DISABLE, _SPI_DATA_SAMPLE_MIDDLE, _SPI_CLK_IDLE_LOW, _SPI_ACTIVE_2_IDLE);
	PUSH	W10
	PUSH	W11
	PUSH	W12
	PUSH	W13
	CLR	W13
	MOV	#28, W12
	CLR	W11
	MOV	#32, W10
	CLR	W0
	PUSH	W0
	CLR	W0
	PUSH	W0
	CLR	W0
	PUSH	W0
	CLR	W0
	PUSH	W0
	CALL	_SPI2_Init_Advanced
	SUB	#8, W15
;tiempo_rtc.c,138 :: 		valueRead = DS3234_read_byte(Segundos_Lec);
	CLR	W10
	CALL	_DS3234_read_byte
;tiempo_rtc.c,139 :: 		valueRead = Bcd2Dec(valueRead);
	MOV.B	W0, W10
	CALL	_Bcd2Dec
;tiempo_rtc.c,140 :: 		segundo = (long)valueRead;
; segundo start address is: 12 (W6)
	ZE	W0, W6
	CLR	W7
;tiempo_rtc.c,141 :: 		valueRead = DS3234_read_byte(Minutos_Lec);
	MOV.B	#1, W10
	CALL	_DS3234_read_byte
;tiempo_rtc.c,142 :: 		valueRead = Bcd2Dec(valueRead);
	MOV.B	W0, W10
	CALL	_Bcd2Dec
;tiempo_rtc.c,143 :: 		minuto = (long)valueRead;
; minuto start address is: 16 (W8)
	ZE	W0, W8
	CLR	W9
;tiempo_rtc.c,144 :: 		valueRead = DS3234_read_byte(Horas_Lec);
	MOV.B	#2, W10
	CALL	_DS3234_read_byte
;tiempo_rtc.c,145 :: 		valueRead = Bcd2Dec(valueRead);
	MOV.B	W0, W10
	CALL	_Bcd2Dec
;tiempo_rtc.c,146 :: 		hora = (long)valueRead;
	ZE	W0, W0
	CLR	W1
;tiempo_rtc.c,148 :: 		horaRTC = (hora*3600)+(minuto*60)+(segundo);                               //Calcula el segundo actual = hh*3600 + mm*60 + ss
	MOV	#3600, W2
	MOV	#0, W3
	CALL	__Multiply_32x32
	MOV	W0, [W14+0]
	MOV	W1, [W14+2]
	MOV.D	W8, W0
	MOV	#60, W2
	MOV	#0, W3
	CALL	__Multiply_32x32
; minuto end address is: 16 (W8)
	MOV	[W14+0], W2
	MOV	[W14+2], W3
	ADD	W2, W0, W0
	ADDC	W3, W1, W1
; horaRTC start address is: 4 (W2)
	ADD	W0, W6, W2
	ADDC	W1, W7, W3
; segundo end address is: 12 (W6)
;tiempo_rtc.c,150 :: 		SPI2_Init();
	CALL	_SPI2_Init
;tiempo_rtc.c,152 :: 		return horaRTC;
	MOV.D	W2, W0
; horaRTC end address is: 4 (W2)
;tiempo_rtc.c,154 :: 		}
;tiempo_rtc.c,152 :: 		return horaRTC;
;tiempo_rtc.c,154 :: 		}
L_end_RecuperarHoraRTC:
	POP	W13
	POP	W12
	POP	W11
	POP	W10
	ULNK
	RETURN
; end of _RecuperarHoraRTC

_RecuperarFechaRTC:
	LNK	#4

;tiempo_rtc.c,157 :: 		unsigned long RecuperarFechaRTC(){
;tiempo_rtc.c,165 :: 		SPI2_Init_Advanced(_SPI_MASTER, _SPI_8_BIT, _SPI_PRESCALE_SEC_1, _SPI_PRESCALE_PRI_64, _SPI_SS_DISABLE, _SPI_DATA_SAMPLE_MIDDLE, _SPI_CLK_IDLE_LOW, _SPI_ACTIVE_2_IDLE);
	PUSH	W10
	PUSH	W11
	PUSH	W12
	PUSH	W13
	CLR	W13
	MOV	#28, W12
	CLR	W11
	MOV	#32, W10
	CLR	W0
	PUSH	W0
	CLR	W0
	PUSH	W0
	CLR	W0
	PUSH	W0
	CLR	W0
	PUSH	W0
	CALL	_SPI2_Init_Advanced
	SUB	#8, W15
;tiempo_rtc.c,167 :: 		valueRead = DS3234_read_byte(DiaMes_Lec);
	MOV.B	#4, W10
	CALL	_DS3234_read_byte
;tiempo_rtc.c,168 :: 		valueRead = Bcd2Dec(valueRead);
	MOV.B	W0, W10
	CALL	_Bcd2Dec
;tiempo_rtc.c,169 :: 		dia = (long)valueRead;
; dia start address is: 12 (W6)
	ZE	W0, W6
	CLR	W7
;tiempo_rtc.c,170 :: 		valueRead = 0x1F & DS3234_read_byte(Mes_Lec);
	MOV.B	#5, W10
	CALL	_DS3234_read_byte
	ZE	W0, W0
	AND	W0, #31, W0
;tiempo_rtc.c,171 :: 		valueRead = Bcd2Dec(valueRead);
	MOV.B	W0, W10
	CALL	_Bcd2Dec
;tiempo_rtc.c,172 :: 		mes = (long)valueRead;
; mes start address is: 16 (W8)
	ZE	W0, W8
	CLR	W9
;tiempo_rtc.c,173 :: 		valueRead = DS3234_read_byte(Anio_Lec);
	MOV.B	#6, W10
	CALL	_DS3234_read_byte
;tiempo_rtc.c,174 :: 		valueRead = Bcd2Dec(valueRead);
	MOV.B	W0, W10
	CALL	_Bcd2Dec
;tiempo_rtc.c,175 :: 		anio = (long)valueRead;
	ZE	W0, W0
	CLR	W1
;tiempo_rtc.c,177 :: 		fechaRTC = (anio*10000)+(mes*100)+(dia);                                   //10000*aa + 100*mm + dd
	MOV	#10000, W2
	MOV	#0, W3
	CALL	__Multiply_32x32
	MOV	W0, [W14+0]
	MOV	W1, [W14+2]
	MOV.D	W8, W0
	MOV	#100, W2
	MOV	#0, W3
	CALL	__Multiply_32x32
; mes end address is: 16 (W8)
	MOV	[W14+0], W2
	MOV	[W14+2], W3
	ADD	W2, W0, W0
	ADDC	W3, W1, W1
; fechaRTC start address is: 4 (W2)
	ADD	W0, W6, W2
	ADDC	W1, W7, W3
; dia end address is: 12 (W6)
;tiempo_rtc.c,179 :: 		SPI2_Init();
	CALL	_SPI2_Init
;tiempo_rtc.c,181 :: 		return fechaRTC;
	MOV.D	W2, W0
; fechaRTC end address is: 4 (W2)
;tiempo_rtc.c,183 :: 		}
;tiempo_rtc.c,181 :: 		return fechaRTC;
;tiempo_rtc.c,183 :: 		}
L_end_RecuperarFechaRTC:
	POP	W13
	POP	W12
	POP	W11
	POP	W10
	ULNK
	RETURN
; end of _RecuperarFechaRTC

_IncrementarFecha:
	LNK	#4

;tiempo_rtc.c,186 :: 		unsigned long IncrementarFecha(unsigned long longFecha){
;tiempo_rtc.c,193 :: 		anio = longFecha / 10000;
	PUSH.D	W10
	MOV	#10000, W2
	MOV	#0, W3
	MOV.D	W10, W0
	CLR	W4
	CALL	__Divide_32x32
	POP.D	W10
; anio start address is: 4 (W2)
	MOV.D	W0, W2
;tiempo_rtc.c,194 :: 		mes = (longFecha%10000) / 100;
	PUSH.D	W2
	MOV	#10000, W2
	MOV	#0, W3
	MOV.D	W10, W0
	CLR	W4
	CALL	__Modulus_32x32
	MOV	W0, [W14+0]
	MOV	W1, [W14+2]
	MOV	#100, W2
	MOV	#0, W3
	CLR	W4
	CALL	__Divide_32x32
	POP.D	W2
; mes start address is: 8 (W4)
	MOV.D	W0, W4
;tiempo_rtc.c,195 :: 		dia = (longFecha%10000) % 100;
	MOV	[W14+0], W0
	MOV	[W14+2], W1
	PUSH.D	W4
	PUSH.D	W2
	MOV	#100, W2
	MOV	#0, W3
	CLR	W4
	CALL	__Modulus_32x32
	POP.D	W2
	POP.D	W4
; dia start address is: 12 (W6)
	MOV.D	W0, W6
;tiempo_rtc.c,197 :: 		if (dia<28){
	CP	W0, #28
	CPB	W1, #0
	BRA LTU	L__IncrementarFecha288
	GOTO	L_IncrementarFecha22
L__IncrementarFecha288:
;tiempo_rtc.c,198 :: 		dia++;
; dia start address is: 16 (W8)
	ADD	W6, #1, W8
	ADDC	W7, #0, W9
; dia end address is: 12 (W6)
;tiempo_rtc.c,199 :: 		} else {
; dia end address is: 16 (W8)
	MOV.D	W4, W6
	GOTO	L_IncrementarFecha23
L_IncrementarFecha22:
;tiempo_rtc.c,200 :: 		if (mes==2){
; dia start address is: 12 (W6)
	CP	W4, #2
	CPB	W5, #0
	BRA Z	L__IncrementarFecha289
	GOTO	L_IncrementarFecha24
L__IncrementarFecha289:
;tiempo_rtc.c,202 :: 		if (((anio-16)%4)==0){
	SUB	W2, #16, W0
	SUBB	W3, #0, W1
	AND	W0, #3, W0
	AND	W1, #0, W1
	CP	W0, #0
	CPB	W1, #0
	BRA Z	L__IncrementarFecha290
	GOTO	L_IncrementarFecha25
L__IncrementarFecha290:
;tiempo_rtc.c,203 :: 		if (dia==29){
	CP	W6, #29
	CPB	W7, #0
	BRA Z	L__IncrementarFecha291
	GOTO	L_IncrementarFecha26
L__IncrementarFecha291:
; dia end address is: 12 (W6)
;tiempo_rtc.c,204 :: 		dia = 1;
; dia start address is: 0 (W0)
	MOV	#1, W0
	MOV	#0, W1
;tiempo_rtc.c,205 :: 		mes++;
	ADD	W4, #1, W4
	ADDC	W5, #0, W5
;tiempo_rtc.c,206 :: 		} else {
; dia end address is: 0 (W0)
	GOTO	L_IncrementarFecha27
L_IncrementarFecha26:
;tiempo_rtc.c,207 :: 		dia++;
; dia start address is: 0 (W0)
; dia start address is: 12 (W6)
	ADD	W6, #1, W0
	ADDC	W7, #0, W1
; dia end address is: 12 (W6)
; mes end address is: 8 (W4)
; dia end address is: 0 (W0)
;tiempo_rtc.c,208 :: 		}
L_IncrementarFecha27:
;tiempo_rtc.c,209 :: 		} else {
; dia start address is: 0 (W0)
; mes start address is: 8 (W4)
	MOV.D	W0, W8
; dia end address is: 0 (W0)
	MOV.D	W4, W6
	GOTO	L_IncrementarFecha28
L_IncrementarFecha25:
;tiempo_rtc.c,210 :: 		dia = 1;
; dia start address is: 0 (W0)
	MOV	#1, W0
	MOV	#0, W1
;tiempo_rtc.c,211 :: 		mes++;
	ADD	W4, #1, W4
	ADDC	W5, #0, W5
	MOV.D	W0, W8
; mes end address is: 8 (W4)
; dia end address is: 0 (W0)
	MOV.D	W4, W6
;tiempo_rtc.c,212 :: 		}
L_IncrementarFecha28:
;tiempo_rtc.c,213 :: 		} else {
; mes start address is: 12 (W6)
; dia start address is: 16 (W8)
; mes end address is: 12 (W6)
; dia end address is: 16 (W8)
	GOTO	L_IncrementarFecha29
L_IncrementarFecha24:
;tiempo_rtc.c,214 :: 		if (dia<30){
; mes start address is: 8 (W4)
; dia start address is: 12 (W6)
	CP	W6, #30
	CPB	W7, #0
	BRA LTU	L__IncrementarFecha292
	GOTO	L_IncrementarFecha30
L__IncrementarFecha292:
;tiempo_rtc.c,215 :: 		dia++;
; dia start address is: 0 (W0)
	ADD	W6, #1, W0
	ADDC	W7, #0, W1
; dia end address is: 12 (W6)
;tiempo_rtc.c,216 :: 		} else {
	PUSH.D	W4
; dia end address is: 0 (W0)
	MOV.D	W2, W4
	MOV.D	W0, W2
	POP.D	W0
	GOTO	L_IncrementarFecha31
L_IncrementarFecha30:
;tiempo_rtc.c,217 :: 		if (mes==4||mes==6||mes==9||mes==11){
; dia start address is: 12 (W6)
	CP	W4, #4
	CPB	W5, #0
	BRA NZ	L__IncrementarFecha293
	GOTO	L__IncrementarFecha187
L__IncrementarFecha293:
	CP	W4, #6
	CPB	W5, #0
	BRA NZ	L__IncrementarFecha294
	GOTO	L__IncrementarFecha186
L__IncrementarFecha294:
	CP	W4, #9
	CPB	W5, #0
	BRA NZ	L__IncrementarFecha295
	GOTO	L__IncrementarFecha185
L__IncrementarFecha295:
	CP	W4, #11
	CPB	W5, #0
	BRA NZ	L__IncrementarFecha296
	GOTO	L__IncrementarFecha184
L__IncrementarFecha296:
	MOV.D	W4, W0
	MOV.D	W6, W4
	GOTO	L_IncrementarFecha34
L__IncrementarFecha187:
L__IncrementarFecha186:
L__IncrementarFecha185:
L__IncrementarFecha184:
;tiempo_rtc.c,218 :: 		if (dia==30){
	CP	W6, #30
	CPB	W7, #0
	BRA Z	L__IncrementarFecha297
	GOTO	L_IncrementarFecha35
L__IncrementarFecha297:
; dia end address is: 12 (W6)
;tiempo_rtc.c,219 :: 		dia = 1;
; dia start address is: 0 (W0)
	MOV	#1, W0
	MOV	#0, W1
;tiempo_rtc.c,220 :: 		mes++;
	ADD	W4, #1, W4
	ADDC	W5, #0, W5
;tiempo_rtc.c,221 :: 		} else {
	PUSH.D	W0
; dia end address is: 0 (W0)
	MOV.D	W4, W0
	POP.D	W4
	GOTO	L_IncrementarFecha36
L_IncrementarFecha35:
;tiempo_rtc.c,222 :: 		dia++;
; dia start address is: 0 (W0)
; dia start address is: 12 (W6)
	ADD	W6, #1, W0
	ADDC	W7, #0, W1
; dia end address is: 12 (W6)
	PUSH.D	W0
; mes end address is: 8 (W4)
; dia end address is: 0 (W0)
	MOV.D	W4, W0
	POP.D	W4
;tiempo_rtc.c,223 :: 		}
L_IncrementarFecha36:
;tiempo_rtc.c,224 :: 		}
; dia start address is: 8 (W4)
; mes start address is: 0 (W0)
; dia end address is: 8 (W4)
; mes end address is: 0 (W0)
L_IncrementarFecha34:
;tiempo_rtc.c,225 :: 		if ((dia!=1)&&(mes==1||mes==3||mes==5||mes==7||mes==8||mes==10)){
; mes start address is: 0 (W0)
; dia start address is: 8 (W4)
	CP	W4, #1
	CPB	W5, #0
	BRA NZ	L__IncrementarFecha298
	GOTO	L__IncrementarFecha197
L__IncrementarFecha298:
	CP	W0, #1
	CPB	W1, #0
	BRA NZ	L__IncrementarFecha299
	GOTO	L__IncrementarFecha193
L__IncrementarFecha299:
	CP	W0, #3
	CPB	W1, #0
	BRA NZ	L__IncrementarFecha300
	GOTO	L__IncrementarFecha192
L__IncrementarFecha300:
	CP	W0, #5
	CPB	W1, #0
	BRA NZ	L__IncrementarFecha301
	GOTO	L__IncrementarFecha191
L__IncrementarFecha301:
	CP	W0, #7
	CPB	W1, #0
	BRA NZ	L__IncrementarFecha302
	GOTO	L__IncrementarFecha190
L__IncrementarFecha302:
	CP	W0, #8
	CPB	W1, #0
	BRA NZ	L__IncrementarFecha303
	GOTO	L__IncrementarFecha189
L__IncrementarFecha303:
	CP	W0, #10
	CPB	W1, #0
	BRA NZ	L__IncrementarFecha304
	GOTO	L__IncrementarFecha188
L__IncrementarFecha304:
	GOTO	L_IncrementarFecha41
L__IncrementarFecha193:
L__IncrementarFecha192:
L__IncrementarFecha191:
L__IncrementarFecha190:
L__IncrementarFecha189:
L__IncrementarFecha188:
L__IncrementarFecha181:
;tiempo_rtc.c,226 :: 		if (dia==31){
	CP	W4, #31
	CPB	W5, #0
	BRA Z	L__IncrementarFecha305
	GOTO	L_IncrementarFecha42
L__IncrementarFecha305:
;tiempo_rtc.c,227 :: 		dia = 1;
	MOV	#1, W4
	MOV	#0, W5
;tiempo_rtc.c,228 :: 		mes++;
	ADD	W0, #1, W0
	ADDC	W1, #0, W1
;tiempo_rtc.c,229 :: 		} else {
	GOTO	L_IncrementarFecha43
L_IncrementarFecha42:
;tiempo_rtc.c,230 :: 		dia++;
	ADD	W4, #1, W4
	ADDC	W5, #0, W5
; dia end address is: 8 (W4)
; mes end address is: 0 (W0)
;tiempo_rtc.c,231 :: 		}
L_IncrementarFecha43:
;tiempo_rtc.c,232 :: 		}
; dia start address is: 8 (W4)
; mes start address is: 0 (W0)
; dia end address is: 8 (W4)
; mes end address is: 0 (W0)
L_IncrementarFecha41:
;tiempo_rtc.c,225 :: 		if ((dia!=1)&&(mes==1||mes==3||mes==5||mes==7||mes==8||mes==10)){
; mes start address is: 0 (W0)
; dia start address is: 8 (W4)
; dia end address is: 8 (W4)
; mes end address is: 0 (W0)
	GOTO	L__IncrementarFecha194
L__IncrementarFecha197:
L__IncrementarFecha194:
;tiempo_rtc.c,233 :: 		if ((dia!=1)&&(mes==12)){
; dia start address is: 8 (W4)
; mes start address is: 0 (W0)
	CP	W4, #1
	CPB	W5, #0
	BRA NZ	L__IncrementarFecha306
	GOTO	L__IncrementarFecha198
L__IncrementarFecha306:
	CP	W0, #12
	CPB	W1, #0
	BRA Z	L__IncrementarFecha307
	GOTO	L__IncrementarFecha199
L__IncrementarFecha307:
L__IncrementarFecha180:
;tiempo_rtc.c,234 :: 		if (dia==31){
	CP	W4, #31
	CPB	W5, #0
	BRA Z	L__IncrementarFecha308
	GOTO	L_IncrementarFecha47
L__IncrementarFecha308:
; mes end address is: 0 (W0)
;tiempo_rtc.c,235 :: 		dia = 1;
	MOV	#1, W4
	MOV	#0, W5
;tiempo_rtc.c,236 :: 		mes = 1;
; mes start address is: 0 (W0)
	MOV	#1, W0
	MOV	#0, W1
;tiempo_rtc.c,237 :: 		anio++;
	ADD	W2, #1, W2
	ADDC	W3, #0, W3
;tiempo_rtc.c,238 :: 		} else {
	GOTO	L_IncrementarFecha48
L_IncrementarFecha47:
;tiempo_rtc.c,239 :: 		dia++;
	ADD	W4, #1, W4
	ADDC	W5, #0, W5
; dia end address is: 8 (W4)
; mes end address is: 0 (W0)
; anio end address is: 4 (W2)
;tiempo_rtc.c,240 :: 		}
L_IncrementarFecha48:
;tiempo_rtc.c,233 :: 		if ((dia!=1)&&(mes==12)){
; dia start address is: 8 (W4)
; anio start address is: 4 (W2)
; mes start address is: 0 (W0)
; dia end address is: 8 (W4)
; mes end address is: 0 (W0)
; anio end address is: 4 (W2)
	GOTO	L__IncrementarFecha196
L__IncrementarFecha198:
L__IncrementarFecha196:
; mes start address is: 0 (W0)
; anio start address is: 4 (W2)
; dia start address is: 8 (W4)
; dia end address is: 8 (W4)
; mes end address is: 0 (W0)
; anio end address is: 4 (W2)
	GOTO	L__IncrementarFecha195
L__IncrementarFecha199:
L__IncrementarFecha195:
;tiempo_rtc.c,242 :: 		}
; dia start address is: 8 (W4)
; anio start address is: 4 (W2)
; mes start address is: 0 (W0)
	PUSH.D	W2
; dia end address is: 8 (W4)
; mes end address is: 0 (W0)
; anio end address is: 4 (W2)
	MOV.D	W4, W2
	POP.D	W4
L_IncrementarFecha31:
;tiempo_rtc.c,243 :: 		}
; mes start address is: 0 (W0)
; anio start address is: 8 (W4)
; dia start address is: 4 (W2)
	MOV.D	W0, W6
; mes end address is: 0 (W0)
; anio end address is: 8 (W4)
; dia end address is: 4 (W2)
	MOV.D	W2, W8
	MOV.D	W4, W2
L_IncrementarFecha29:
;tiempo_rtc.c,245 :: 		}
; dia start address is: 16 (W8)
; anio start address is: 4 (W2)
; mes start address is: 12 (W6)
; mes end address is: 12 (W6)
; anio end address is: 4 (W2)
; dia end address is: 16 (W8)
L_IncrementarFecha23:
;tiempo_rtc.c,247 :: 		fechaInc = (anio*10000)+(mes*100)+(dia);                                   //10000*aa + 100*mm + dd
; mes start address is: 12 (W6)
; anio start address is: 4 (W2)
; dia start address is: 16 (W8)
	MOV	#10000, W0
	MOV	#0, W1
	CALL	__Multiply_32x32
; anio end address is: 4 (W2)
	MOV	W0, [W14+0]
	MOV	W1, [W14+2]
	MOV.D	W6, W0
	MOV	#100, W2
	MOV	#0, W3
	CALL	__Multiply_32x32
; mes end address is: 12 (W6)
	MOV	[W14+0], W2
	MOV	[W14+2], W3
	ADD	W2, W0, W0
	ADDC	W3, W1, W1
	ADD	W0, W8, W0
	ADDC	W1, W9, W1
; dia end address is: 16 (W8)
;tiempo_rtc.c,248 :: 		return fechaInc;
;tiempo_rtc.c,250 :: 		}
L_end_IncrementarFecha:
	ULNK
	RETURN
; end of _IncrementarFecha

_AjustarTiempoSistema:
	LNK	#14

;tiempo_rtc.c,253 :: 		void AjustarTiempoSistema(unsigned long longHora, unsigned long longFecha, unsigned short *tramaTiempoSistema){
	MOV	[W14-8], W0
	MOV	W0, [W14-8]
;tiempo_rtc.c,262 :: 		hora = (short)(longHora / 3600);
	PUSH.D	W12
	PUSH.D	W10
	MOV	#3600, W2
	MOV	#0, W3
	MOV.D	W10, W0
	CLR	W4
	CALL	__Divide_32x32
	POP.D	W10
	MOV.B	W0, [W14+0]
;tiempo_rtc.c,263 :: 		minuto = (short)((longHora%3600) / 60);
	MOV	#3600, W2
	MOV	#0, W3
	MOV.D	W10, W0
	CLR	W4
	CALL	__Modulus_32x32
	MOV	W0, [W14+10]
	MOV	W1, [W14+12]
	MOV	#60, W2
	MOV	#0, W3
	CLR	W4
	CALL	__Divide_32x32
	MOV.B	W0, [W14+1]
;tiempo_rtc.c,264 :: 		segundo = (short)((longHora%3600) % 60);
	MOV	[W14+10], W0
	MOV	[W14+12], W1
	MOV	#60, W2
	MOV	#0, W3
	CLR	W4
	CALL	__Modulus_32x32
	POP.D	W12
	MOV.B	W0, [W14+2]
;tiempo_rtc.c,266 :: 		anio = (short)(longFecha / 10000);
	PUSH.D	W12
	MOV	#10000, W2
	MOV	#0, W3
	MOV.D	W12, W0
	CLR	W4
	CALL	__Divide_32x32
	POP.D	W12
	MOV.B	W0, [W14+4]
;tiempo_rtc.c,267 :: 		mes = (short)((longFecha%10000) / 100);
	MOV	#10000, W2
	MOV	#0, W3
	MOV.D	W12, W0
	CLR	W4
	CALL	__Modulus_32x32
	MOV	W0, [W14+10]
	MOV	W1, [W14+12]
	MOV	#100, W2
	MOV	#0, W3
	CLR	W4
	CALL	__Divide_32x32
	MOV.B	W0, [W14+3]
;tiempo_rtc.c,268 :: 		dia = (short)((longFecha%10000) % 100);
	MOV	[W14+10], W0
	MOV	[W14+12], W1
	MOV	#100, W2
	MOV	#0, W3
	CLR	W4
	CALL	__Modulus_32x32
; dia start address is: 4 (W2)
	MOV.B	W0, W2
;tiempo_rtc.c,270 :: 		tramaTiempoSistema[0] = anio;
	MOV	[W14-8], W1
	MOV.B	[W14+4], W0
	MOV.B	W0, [W1]
;tiempo_rtc.c,271 :: 		tramaTiempoSistema[1] = mes;
	MOV	[W14-8], W0
	ADD	W0, #1, W1
	MOV.B	[W14+3], W0
	MOV.B	W0, [W1]
;tiempo_rtc.c,272 :: 		tramaTiempoSistema[2] = dia;
	MOV	[W14-8], W0
	INC2	W0
	MOV.B	W2, [W0]
; dia end address is: 4 (W2)
;tiempo_rtc.c,273 :: 		tramaTiempoSistema[3] = hora;
	MOV	[W14-8], W0
	ADD	W0, #3, W1
	MOV.B	[W14+0], W0
	MOV.B	W0, [W1]
;tiempo_rtc.c,274 :: 		tramaTiempoSistema[4] = minuto;
	MOV	[W14-8], W0
	ADD	W0, #4, W1
	MOV.B	[W14+1], W0
	MOV.B	W0, [W1]
;tiempo_rtc.c,275 :: 		tramaTiempoSistema[5] = segundo;
	MOV	[W14-8], W0
	ADD	W0, #5, W1
	MOV.B	[W14+2], W0
	MOV.B	W0, [W1]
;tiempo_rtc.c,277 :: 		}
L_end_AjustarTiempoSistema:
	ULNK
	RETURN
; end of _AjustarTiempoSistema

_RecuperarFechaRPI:
	LNK	#4

;tiempo_rpi.c,10 :: 		unsigned long RecuperarFechaRPI(unsigned short *tramaTiempoRpi){
;tiempo_rpi.c,14 :: 		fechaRPi = ((long)tramaTiempoRpi[0]*10000)+((long)tramaTiempoRpi[1]*100)+((long)tramaTiempoRpi[2]);      //10000*dd + 100*mm + aa
	ZE	[W10], W0
	CLR	W1
	MOV	#10000, W2
	MOV	#0, W3
	CALL	__Multiply_32x32
	MOV	W0, [W14+0]
	MOV	W1, [W14+2]
	ADD	W10, #1, W0
	ZE	[W0], W0
	CLR	W1
	MOV	#100, W2
	MOV	#0, W3
	CALL	__Multiply_32x32
	MOV	[W14+0], W2
	MOV	[W14+2], W3
	ADD	W2, W0, W2
	ADDC	W3, W1, W3
	ADD	W10, #2, W0
	ZE	[W0], W0
	CLR	W1
	ADD	W2, W0, W0
	ADDC	W3, W1, W1
;tiempo_rpi.c,16 :: 		return fechaRPi;
;tiempo_rpi.c,18 :: 		}
L_end_RecuperarFechaRPI:
	ULNK
	RETURN
; end of _RecuperarFechaRPI

_RecuperarHoraRPI:
	LNK	#4

;tiempo_rpi.c,21 :: 		unsigned long RecuperarHoraRPI(unsigned short *tramaTiempoRpi){
;tiempo_rpi.c,25 :: 		horaRPi = ((long)tramaTiempoRpi[3]*3600)+((long)tramaTiempoRpi[4]*60)+((long)tramaTiempoRpi[5]);      //Calcula el segundo actual = hh*3600 + mm*60 + ss
	ADD	W10, #3, W0
	ZE	[W0], W0
	CLR	W1
	MOV	#3600, W2
	MOV	#0, W3
	CALL	__Multiply_32x32
	MOV	W0, [W14+0]
	MOV	W1, [W14+2]
	ADD	W10, #4, W0
	ZE	[W0], W0
	CLR	W1
	MOV	#60, W2
	MOV	#0, W3
	CALL	__Multiply_32x32
	MOV	[W14+0], W2
	MOV	[W14+2], W3
	ADD	W2, W0, W2
	ADDC	W3, W1, W3
	ADD	W10, #5, W0
	ZE	[W0], W0
	CLR	W1
	ADD	W2, W0, W0
	ADDC	W3, W1, W1
;tiempo_rpi.c,27 :: 		return horaRPi;
;tiempo_rpi.c,29 :: 		}
L_end_RecuperarHoraRPI:
	ULNK
	RETURN
; end of _RecuperarHoraRPI

_main:
	MOV	#2048, W15
	MOV	#6142, W0
	MOV	WREG, 32
	MOV	#1, W0
	MOV	WREG, 50
	MOV	#4, W0
	IOR	68

;Acelerografo.c,83 :: 		void main() {
;Acelerografo.c,85 :: 		ConfiguracionPrincipal();
	PUSH	W10
	CALL	_ConfiguracionPrincipal
;Acelerografo.c,87 :: 		DS3234_init();                                                             //inicializa el RTC
	CALL	_DS3234_init
;Acelerografo.c,88 :: 		tasaMuestreo = 1;                                                          //1=250Hz, 2=125Hz, 4=62.5Hz, 8=31.25Hz
	MOV	#lo_addr(_tasaMuestreo), W1
	MOV.B	#1, W0
	MOV.B	W0, [W1]
;Acelerografo.c,89 :: 		ADXL355_init(tasaMuestreo);                                                //Inicializa el modulo ADXL con la tasa de muestreo requerida:
	MOV.B	#1, W10
	CALL	_ADXL355_init
;Acelerografo.c,90 :: 		numTMR1 = (tasaMuestreo*10)-1;                                             //Calcula el numero de veces que tienen que desbordarse el TMR1 para cada tasa de muestreo
	MOV	#lo_addr(_tasaMuestreo), W0
	ZE	[W0], W1
	MOV	#10, W0
	MUL.UU	W1, W0, W2
	MOV	#lo_addr(_numTMR1), W0
	SUB.B	W2, #1, [W0]
;Acelerografo.c,95 :: 		i = 0;
	CLR	W0
	MOV	W0, _i
;Acelerografo.c,96 :: 		j = 0;
	CLR	W0
	MOV	W0, _j
;Acelerografo.c,97 :: 		x = 0;
	CLR	W0
	MOV	W0, _x
;Acelerografo.c,98 :: 		y = 0;
	CLR	W0
	MOV	W0, _y
;Acelerografo.c,101 :: 		bufferSPI = 0; //**
	MOV	#lo_addr(_bufferSPI), W1
	CLR	W0
	MOV.B	W0, [W1]
;Acelerografo.c,102 :: 		banLec = 0;
	MOV	#lo_addr(_banLec), W1
	CLR	W0
	MOV.B	W0, [W1]
;Acelerografo.c,103 :: 		banEsc = 0;
	MOV	#lo_addr(_banEsc), W1
	CLR	W0
	MOV.B	W0, [W1]
;Acelerografo.c,104 :: 		banCiclo = 0;
	MOV	#lo_addr(_banCiclo), W1
	CLR	W0
	MOV.B	W0, [W1]
;Acelerografo.c,105 :: 		banInicio = 0;
	MOV	#lo_addr(_banInicio), W1
	CLR	W0
	MOV.B	W0, [W1]
;Acelerografo.c,106 :: 		banOperacion = 0;
	MOV	#lo_addr(_banOperacion), W1
	CLR	W0
	MOV.B	W0, [W1]
;Acelerografo.c,107 :: 		tipoOperacion = 0;
	MOV	#lo_addr(_tipoOperacion), W1
	CLR	W0
	MOV.B	W0, [W1]
;Acelerografo.c,108 :: 		banMuestrear = 0;                                                          //Inicia el programa con esta bandera en bajo para permitir que la RPi envie la peticion de inicio de muestreo
	MOV	#lo_addr(_banMuestrear), W1
	CLR	W0
	MOV.B	W0, [W1]
;Acelerografo.c,109 :: 		SPI1BUF = 0x00;
	CLR	SPI1BUF
;Acelerografo.c,112 :: 		banSPI0 = 0;
	MOV	#lo_addr(_banSPI0), W1
	CLR	W0
	MOV.B	W0, [W1]
;Acelerografo.c,113 :: 		banSPI1 = 0;
	MOV	#lo_addr(_banSPI1), W1
	CLR	W0
	MOV.B	W0, [W1]
;Acelerografo.c,114 :: 		banSPI2 = 0;
	MOV	#lo_addr(_banSPI2), W1
	CLR	W0
	MOV.B	W0, [W1]
;Acelerografo.c,115 :: 		banSPI3 = 0;
	MOV	#lo_addr(_banSPI3), W1
	CLR	W0
	MOV.B	W0, [W1]
;Acelerografo.c,116 :: 		banSPI4 = 0;
	MOV	#lo_addr(_banSPI4), W1
	CLR	W0
	MOV.B	W0, [W1]
;Acelerografo.c,117 :: 		banSPI5 = 0;
	MOV	#lo_addr(_banSPI5), W1
	CLR	W0
	MOV.B	W0, [W1]
;Acelerografo.c,118 :: 		banSPI6 = 0;
	MOV	#lo_addr(_banSPI6), W1
	CLR	W0
	MOV.B	W0, [W1]
;Acelerografo.c,119 :: 		banSPI7 = 0;
	MOV	#lo_addr(_banSPI7), W1
	CLR	W0
	MOV.B	W0, [W1]
;Acelerografo.c,120 :: 		banSPI8 = 0;
	MOV	#lo_addr(_banSPI8), W1
	CLR	W0
	MOV.B	W0, [W1]
;Acelerografo.c,121 :: 		banSPI9 = 0;
	MOV	#lo_addr(_banSPI9), W1
	CLR	W0
	MOV.B	W0, [W1]
;Acelerografo.c,122 :: 		banSPIA = 0;
	MOV	#lo_addr(_banSPIA), W1
	CLR	W0
	MOV.B	W0, [W1]
;Acelerografo.c,125 :: 		i_gps = 0;
	CLR	W0
	MOV	W0, _i_gps
;Acelerografo.c,126 :: 		byteGPS = 0;
	MOV	#lo_addr(_byteGPS), W1
	CLR	W0
	MOV.B	W0, [W1]
;Acelerografo.c,127 :: 		banGPSI = 0;
	MOV	#lo_addr(_banGPSI), W1
	CLR	W0
	MOV.B	W0, [W1]
;Acelerografo.c,128 :: 		banGPSC = 0;
	MOV	#lo_addr(_banGPSC), W1
	CLR	W0
	MOV.B	W0, [W1]
;Acelerografo.c,134 :: 		banSetReloj = 0;
	MOV	#lo_addr(_banSetReloj), W1
	CLR	W0
	MOV.B	W0, [W1]
;Acelerografo.c,135 :: 		banSyncReloj = 0;
	MOV	#lo_addr(_banSyncReloj), W1
	CLR	W0
	MOV.B	W0, [W1]
;Acelerografo.c,136 :: 		fuenteReloj = 0;
	MOV	#lo_addr(_fuenteReloj), W1
	CLR	W0
	MOV.B	W0, [W1]
;Acelerografo.c,137 :: 		horaSistema = 0;
	CLR	W0
	CLR	W1
	MOV	W0, _horaSistema
	MOV	W1, _horaSistema+2
;Acelerografo.c,138 :: 		fechaSistema = 0;
	CLR	W0
	CLR	W1
	MOV	W0, _fechaSistema
	MOV	W1, _fechaSistema+2
;Acelerografo.c,141 :: 		contMuestras = 0;
	MOV	#lo_addr(_contMuestras), W1
	CLR	W0
	MOV.B	W0, [W1]
;Acelerografo.c,142 :: 		contCiclos = 0;
	MOV	#lo_addr(_contCiclos), W1
	CLR	W0
	MOV.B	W0, [W1]
;Acelerografo.c,143 :: 		contFIFO = 0;
	CLR	W0
	MOV	W0, _contFIFO
;Acelerografo.c,144 :: 		numFIFO = 0;
	MOV	#lo_addr(_numFIFO), W1
	CLR	W0
	MOV.B	W0, [W1]
;Acelerografo.c,145 :: 		numSetsFIFO = 0;
	MOV	#lo_addr(_numSetsFIFO), W1
	CLR	W0
	MOV.B	W0, [W1]
;Acelerografo.c,146 :: 		contTimer1 = 0;
	MOV	#lo_addr(_contTimer1), W1
	CLR	W0
	MOV.B	W0, [W1]
;Acelerografo.c,149 :: 		RP1 = 0;
	BCLR	LATA4_bit, BitPos(LATA4_bit+0)
;Acelerografo.c,150 :: 		RP2 = 0;
	BCLR	LATB4_bit, BitPos(LATB4_bit+0)
;Acelerografo.c,151 :: 		TEST = 1;
	BSET	LATB12_bit, BitPos(LATB12_bit+0)
;Acelerografo.c,156 :: 		while(1){
L_main49:
;Acelerografo.c,157 :: 		Delay_ms(100);
	MOV	#13, W8
	MOV	#13575, W7
L_main51:
	DEC	W7
	BRA NZ	L_main51
	DEC	W8
	BRA NZ	L_main51
;Acelerografo.c,158 :: 		}
	GOTO	L_main49
;Acelerografo.c,160 :: 		}
L_end_main:
	POP	W10
L__main_end_loop:
	BRA	L__main_end_loop
; end of _main

_ConfiguracionPrincipal:

;Acelerografo.c,169 :: 		void ConfiguracionPrincipal(){
;Acelerografo.c,172 :: 		CLKDIVbits.FRCDIV = 0;                                                     //FIN=FRC/1
	PUSH	W10
	PUSH	W11
	PUSH	W12
	PUSH	W13
	MOV	CLKDIVbits, W1
	MOV	#63743, W0
	AND	W1, W0, W0
	MOV	WREG, CLKDIVbits
;Acelerografo.c,173 :: 		CLKDIVbits.PLLPOST = 0;                                                    //N2=2
	MOV	#lo_addr(CLKDIVbits), W0
	MOV.B	[W0], W1
	MOV.B	#63, W0
	AND.B	W1, W0, W1
	MOV	#lo_addr(CLKDIVbits), W0
	MOV.B	W1, [W0]
;Acelerografo.c,174 :: 		CLKDIVbits.PLLPRE = 5;                                                     //N1=7
	MOV.B	#5, W0
	MOV.B	W0, W1
	MOV	#lo_addr(CLKDIVbits), W0
	XOR.B	W1, [W0], W1
	AND.B	W1, #31, W1
	MOV	#lo_addr(CLKDIVbits), W0
	XOR.B	W1, [W0], W1
	MOV	#lo_addr(CLKDIVbits), W0
	MOV.B	W1, [W0]
;Acelerografo.c,175 :: 		PLLFBDbits.PLLDIV = 150;                                                   //M=152
	MOV	#150, W0
	MOV	W0, W1
	MOV	#lo_addr(PLLFBDbits), W0
	XOR	W1, [W0], W1
	MOV	#511, W0
	AND	W1, W0, W1
	MOV	#lo_addr(PLLFBDbits), W0
	XOR	W1, [W0], W1
	MOV	W1, PLLFBDbits
;Acelerografo.c,178 :: 		ANSELA = 0;                                                                //Configura PORTA como digital     *
	CLR	ANSELA
;Acelerografo.c,179 :: 		ANSELB = 0;                                                                //Configura PORTB como digital     *
	CLR	ANSELB
;Acelerografo.c,180 :: 		TRISA2_bit = 0;                                                            //Configura el pin A2 como salida  *
	BCLR	TRISA2_bit, BitPos(TRISA2_bit+0)
;Acelerografo.c,181 :: 		TRISA3_bit = 0;                                                            //Configura el pin A3 como salida  *
	BCLR	TRISA3_bit, BitPos(TRISA3_bit+0)
;Acelerografo.c,182 :: 		TRISA4_bit = 0;                                                            //Configura el pin A4 como salida  *
	BCLR	TRISA4_bit, BitPos(TRISA4_bit+0)
;Acelerografo.c,183 :: 		TRISB4_bit = 0;                                                            //Configura el pin B4 como salida  *
	BCLR	TRISB4_bit, BitPos(TRISB4_bit+0)
;Acelerografo.c,184 :: 		TRISB12_bit = 0;                                                           //Configura el pin B12 como salida *
	BCLR	TRISB12_bit, BitPos(TRISB12_bit+0)
;Acelerografo.c,186 :: 		TRISB10_bit = 1;                                                           //Configura el pin B10 como entrada *
	BSET	TRISB10_bit, BitPos(TRISB10_bit+0)
;Acelerografo.c,187 :: 		TRISB11_bit = 1;                                                           //Configura el pin B11 como entrada *
	BSET	TRISB11_bit, BitPos(TRISB11_bit+0)
;Acelerografo.c,188 :: 		TRISB13_bit = 1;                                                           //Configura el pin B13 como entrada *
	BSET	TRISB13_bit, BitPos(TRISB13_bit+0)
;Acelerografo.c,189 :: 		TRISB14_bit = 1;
	BSET	TRISB14_bit, BitPos(TRISB14_bit+0)
;Acelerografo.c,190 :: 		TRISB15_bit = 1;                                                           //Configura el pin B15 como entrada *
	BSET	TRISB15_bit, BitPos(TRISB15_bit+0)
;Acelerografo.c,192 :: 		INTCON2.GIE = 1;                                                           //Habilita las interrupciones globales *
	BSET	INTCON2, #15
;Acelerografo.c,195 :: 		RPINR18bits.U1RXR = 0x22;                                                  //Configura el pin RB2/RPI34 como Rx1 *
	MOV.B	#34, W0
	MOV.B	W0, W1
	MOV	#lo_addr(RPINR18bits), W0
	XOR.B	W1, [W0], W1
	MOV.B	#127, W0
	AND.B	W1, W0, W1
	MOV	#lo_addr(RPINR18bits), W0
	XOR.B	W1, [W0], W1
	MOV	#lo_addr(RPINR18bits), W0
	MOV.B	W1, [W0]
;Acelerografo.c,196 :: 		RPOR0bits.RP35R = 0x01;                                                    //Configura el Tx1 en el pin RB3/RP35 *
	MOV	#256, W0
	MOV	W0, W1
	MOV	#lo_addr(RPOR0bits), W0
	XOR	W1, [W0], W1
	MOV	#16128, W0
	AND	W1, W0, W1
	MOV	#lo_addr(RPOR0bits), W0
	XOR	W1, [W0], W1
	MOV	W1, RPOR0bits
;Acelerografo.c,197 :: 		U1RXIE_bit = 1;                                                            //Habilita la interrupcion por UART1 RX *
	BSET	U1RXIE_bit, BitPos(U1RXIE_bit+0)
;Acelerografo.c,199 :: 		IPC2bits.U1RXIP = 0x04;                                                    //Prioridad de la interrupcion UART1 RX
	MOV	#16384, W0
	MOV	W0, W1
	MOV	#lo_addr(IPC2bits), W0
	XOR	W1, [W0], W1
	MOV	#28672, W0
	AND	W1, W0, W1
	MOV	#lo_addr(IPC2bits), W0
	XOR	W1, [W0], W1
	MOV	W1, IPC2bits
;Acelerografo.c,200 :: 		U1STAbits.URXISEL = 0x00;
	MOV	#lo_addr(U1STAbits), W0
	MOV.B	[W0], W1
	MOV.B	#63, W0
	AND.B	W1, W0, W1
	MOV	#lo_addr(U1STAbits), W0
	MOV.B	W1, [W0]
;Acelerografo.c,201 :: 		UART1_Init(9600);                                                          //Inicializa el UART1 con una velocidad de 9600 baudios
	MOV	#9600, W10
	MOV	#0, W11
	CALL	_UART1_Init
;Acelerografo.c,204 :: 		SPI1STAT.SPIEN = 1;                                                        //Habilita el SPI1 *
	BSET	SPI1STAT, #15
;Acelerografo.c,205 :: 		SPI1_Init_Advanced(_SPI_SLAVE, _SPI_8_BIT, _SPI_PRESCALE_SEC_1, _SPI_PRESCALE_PRI_1, _SPI_SS_ENABLE, _SPI_DATA_SAMPLE_END, _SPI_CLK_IDLE_HIGH, _SPI_ACTIVE_2_IDLE);        //*
	MOV	#3, W13
	MOV	#28, W12
	CLR	W11
	CLR	W10
	CLR	W0
	PUSH	W0
	MOV	#64, W0
	PUSH	W0
	MOV	#512, W0
	PUSH	W0
	MOV	#128, W0
	PUSH	W0
	CALL	_SPI1_Init_Advanced
	SUB	#8, W15
;Acelerografo.c,206 :: 		SPI1IE_bit = 1;                                                            //Habilita la interrupcion por SPI1  *
	BSET	SPI1IE_bit, BitPos(SPI1IE_bit+0)
;Acelerografo.c,207 :: 		SPI1IF_bit = 0;                                                            //Limpia la bandera de interrupcion por SPI *
	BCLR	SPI1IF_bit, BitPos(SPI1IF_bit+0)
;Acelerografo.c,208 :: 		IPC2bits.SPI1IP = 0x03;                                                    //Prioridad de la interrupcion SPI1
	MOV	#768, W0
	MOV	W0, W1
	MOV	#lo_addr(IPC2bits), W0
	XOR	W1, [W0], W1
	MOV	#1792, W0
	AND	W1, W0, W1
	MOV	#lo_addr(IPC2bits), W0
	XOR	W1, [W0], W1
	MOV	W1, IPC2bits
;Acelerografo.c,211 :: 		RPINR22bits.SDI2R = 0x21;                                                  //Configura el pin RB1/RPI33 como SDI2 *
	MOV.B	#33, W0
	MOV.B	W0, W1
	MOV	#lo_addr(RPINR22bits), W0
	XOR.B	W1, [W0], W1
	MOV.B	#127, W0
	AND.B	W1, W0, W1
	MOV	#lo_addr(RPINR22bits), W0
	XOR.B	W1, [W0], W1
	MOV	#lo_addr(RPINR22bits), W0
	MOV.B	W1, [W0]
;Acelerografo.c,212 :: 		RPOR2bits.RP38R = 0x08;                                                    //Configura el SDO2 en el pin RB6/RP38 *
	MOV.B	#8, W0
	MOV.B	W0, W1
	MOV	#lo_addr(RPOR2bits), W0
	XOR.B	W1, [W0], W1
	MOV.B	#63, W0
	AND.B	W1, W0, W1
	MOV	#lo_addr(RPOR2bits), W0
	XOR.B	W1, [W0], W1
	MOV	#lo_addr(RPOR2bits), W0
	MOV.B	W1, [W0]
;Acelerografo.c,213 :: 		RPOR1bits.RP37R = 0x09;                                                    //Configura el SCK2 en el pin RB5/RP37 *
	MOV	#2304, W0
	MOV	W0, W1
	MOV	#lo_addr(RPOR1bits), W0
	XOR	W1, [W0], W1
	MOV	#16128, W0
	AND	W1, W0, W1
	MOV	#lo_addr(RPOR1bits), W0
	XOR	W1, [W0], W1
	MOV	W1, RPOR1bits
;Acelerografo.c,214 :: 		SPI2STAT.SPIEN = 1;                                                        //Habilita el SPI2 *
	BSET	SPI2STAT, #15
;Acelerografo.c,215 :: 		SPI2_Init();                                                               //Inicializa el modulo SPI2
	CALL	_SPI2_Init
;Acelerografo.c,216 :: 		CS_DS3234 = 1;                                                             //Pone en alto el CS del RTC
	BSET	LATA2_bit, BitPos(LATA2_bit+0)
;Acelerografo.c,217 :: 		CS_ADXL355 = 1;                                                            //Pone en alto el CS del acelerometro
	BSET	LATA3_bit, BitPos(LATA3_bit+0)
;Acelerografo.c,220 :: 		ADXL355_write_byte(POWER_CTL, DRDY_OFF|STANDBY);                           //Coloco el ADXL en modo STANDBY para pausar las conversiones y limpiar el FIFO
	MOV.B	#5, W11
	MOV.B	#45, W10
	CALL	_ADXL355_write_byte
;Acelerografo.c,224 :: 		RPINR0 = 0x2F00;                                                           //Asigna INT1 al RB15/RPI47 (SQW)
	MOV	#12032, W0
	MOV	WREG, RPINR0
;Acelerografo.c,225 :: 		INT1IE_bit = 0;                                                            //Habilita la interrupcion externa INT1
	BCLR	INT1IE_bit, BitPos(INT1IE_bit+0)
;Acelerografo.c,226 :: 		INT1IF_bit = 0;                                                            //Limpia la bandera de interrupcion externa INT1
	BCLR	INT1IF_bit, BitPos(INT1IF_bit+0)
;Acelerografo.c,227 :: 		IPC5bits.INT1IP = 0x01;                                                    //Prioridad en la interrupocion externa 1
	MOV.B	#1, W0
	MOV.B	W0, W1
	MOV	#lo_addr(IPC5bits), W0
	XOR.B	W1, [W0], W1
	AND.B	W1, #7, W1
	MOV	#lo_addr(IPC5bits), W0
	XOR.B	W1, [W0], W1
	MOV	#lo_addr(IPC5bits), W0
	MOV.B	W1, [W0]
;Acelerografo.c,230 :: 		T1CON = 0x0020;
	MOV	#32, W0
	MOV	WREG, T1CON
;Acelerografo.c,231 :: 		T1CON.TON = 0;                                                             //Apaga el Timer1
	BCLR	T1CON, #15
;Acelerografo.c,232 :: 		T1IE_bit = 1;                                                              //Habilita la interrupcion de desbordamiento TMR1
	BSET	T1IE_bit, BitPos(T1IE_bit+0)
;Acelerografo.c,233 :: 		T1IF_bit = 0;                                                              //Limpia la bandera de interrupcion del TMR1
	BCLR	T1IF_bit, BitPos(T1IF_bit+0)
;Acelerografo.c,234 :: 		PR1 = 62500;                                                               //Car ga el preload para un tiempo de 100ms
	MOV	#62500, W0
	MOV	WREG, PR1
;Acelerografo.c,235 :: 		IPC0bits.T1IP = 0x02;                                                      //Prioridad de la interrupcion por desbordamiento del TMR1
	MOV	#8192, W0
	MOV	W0, W1
	MOV	#lo_addr(IPC0bits), W0
	XOR	W1, [W0], W1
	MOV	#28672, W0
	AND	W1, W0, W1
	MOV	#lo_addr(IPC0bits), W0
	XOR	W1, [W0], W1
	MOV	W1, IPC0bits
;Acelerografo.c,237 :: 		Delay_ms(200);                                                             //Espera hasta que se estabilicen los cambios
	MOV	#25, W8
	MOV	#27150, W7
L_ConfiguracionPrincipal53:
	DEC	W7
	BRA NZ	L_ConfiguracionPrincipal53
	DEC	W8
	BRA NZ	L_ConfiguracionPrincipal53
	NOP
;Acelerografo.c,239 :: 		}
L_end_ConfiguracionPrincipal:
	POP	W13
	POP	W12
	POP	W11
	POP	W10
	RETURN
; end of _ConfiguracionPrincipal

_InterrupcionP1:

;Acelerografo.c,244 :: 		void InterrupcionP1(unsigned char operacion){
;Acelerografo.c,247 :: 		if (INT1IE_bit==0){
	BTSC	INT1IE_bit, BitPos(INT1IE_bit+0)
	GOTO	L_InterrupcionP155
;Acelerografo.c,248 :: 		INT1IE_bit = 1;
	BSET	INT1IE_bit, BitPos(INT1IE_bit+0)
;Acelerografo.c,249 :: 		}
L_InterrupcionP155:
;Acelerografo.c,256 :: 		banOperacion = 0;                                                          //Encera la bandera para permitir una nueva peticion de operacion
	MOV	#lo_addr(_banOperacion), W1
	CLR	W0
	MOV.B	W0, [W1]
;Acelerografo.c,257 :: 		tipoOperacion = operacion;                                                 //Carga en la variable el tipo de operacion requerido
	MOV	#lo_addr(_tipoOperacion), W0
	MOV.B	W10, [W0]
;Acelerografo.c,259 :: 		RP1 = 1;
	BSET	LATA4_bit, BitPos(LATA4_bit+0)
;Acelerografo.c,260 :: 		Delay_us(20);
	MOV	#160, W7
L_InterrupcionP156:
	DEC	W7
	BRA NZ	L_InterrupcionP156
	NOP
	NOP
;Acelerografo.c,261 :: 		RP1 = 0;
	BCLR	LATA4_bit, BitPos(LATA4_bit+0)
;Acelerografo.c,262 :: 		}
L_end_InterrupcionP1:
	RETURN
; end of _InterrupcionP1

_CambiarEstadoBandera:

;Acelerografo.c,267 :: 		void CambiarEstadoBandera(unsigned short bandera, unsigned short estado){
;Acelerografo.c,269 :: 		if (estado==1){
	CP.B	W11, #1
	BRA Z	L__CambiarEstadoBandera317
	GOTO	L_CambiarEstadoBandera58
L__CambiarEstadoBandera317:
;Acelerografo.c,271 :: 		banSPI0 = 3;
	MOV	#lo_addr(_banSPI0), W1
	MOV.B	#3, W0
	MOV.B	W0, [W1]
;Acelerografo.c,272 :: 		banSPI1 = 3;
	MOV	#lo_addr(_banSPI1), W1
	MOV.B	#3, W0
	MOV.B	W0, [W1]
;Acelerografo.c,273 :: 		banSPI2 = 3;
	MOV	#lo_addr(_banSPI2), W1
	MOV.B	#3, W0
	MOV.B	W0, [W1]
;Acelerografo.c,274 :: 		banSPI4 = 3;
	MOV	#lo_addr(_banSPI4), W1
	MOV.B	#3, W0
	MOV.B	W0, [W1]
;Acelerografo.c,275 :: 		banSPI5 = 3;
	MOV	#lo_addr(_banSPI5), W1
	MOV.B	#3, W0
	MOV.B	W0, [W1]
;Acelerografo.c,276 :: 		banSPI6 = 3;
	MOV	#lo_addr(_banSPI6), W1
	MOV.B	#3, W0
	MOV.B	W0, [W1]
;Acelerografo.c,277 :: 		banSPI7 = 3;
	MOV	#lo_addr(_banSPI7), W1
	MOV.B	#3, W0
	MOV.B	W0, [W1]
;Acelerografo.c,278 :: 		banSPI8 = 3;
	MOV	#lo_addr(_banSPI8), W1
	MOV.B	#3, W0
	MOV.B	W0, [W1]
;Acelerografo.c,279 :: 		banSPIA = 3;
	MOV	#lo_addr(_banSPIA), W1
	MOV.B	#3, W0
	MOV.B	W0, [W1]
;Acelerografo.c,281 :: 		switch (bandera){
	GOTO	L_CambiarEstadoBandera59
;Acelerografo.c,282 :: 		case 0:
L_CambiarEstadoBandera61:
;Acelerografo.c,283 :: 		banSPI0 = 1;
	MOV	#lo_addr(_banSPI0), W1
	MOV.B	#1, W0
	MOV.B	W0, [W1]
;Acelerografo.c,284 :: 		break;
	GOTO	L_CambiarEstadoBandera60
;Acelerografo.c,285 :: 		case 1:
L_CambiarEstadoBandera62:
;Acelerografo.c,286 :: 		banSPI1 = 1;
	MOV	#lo_addr(_banSPI1), W1
	MOV.B	#1, W0
	MOV.B	W0, [W1]
;Acelerografo.c,287 :: 		break;
	GOTO	L_CambiarEstadoBandera60
;Acelerografo.c,288 :: 		case 2:
L_CambiarEstadoBandera63:
;Acelerografo.c,289 :: 		banSPI2 = 1;
	MOV	#lo_addr(_banSPI2), W1
	MOV.B	#1, W0
	MOV.B	W0, [W1]
;Acelerografo.c,290 :: 		break;
	GOTO	L_CambiarEstadoBandera60
;Acelerografo.c,291 :: 		case 4:
L_CambiarEstadoBandera64:
;Acelerografo.c,292 :: 		banSPI4 = 1;
	MOV	#lo_addr(_banSPI4), W1
	MOV.B	#1, W0
	MOV.B	W0, [W1]
;Acelerografo.c,293 :: 		break;
	GOTO	L_CambiarEstadoBandera60
;Acelerografo.c,294 :: 		case 5:
L_CambiarEstadoBandera65:
;Acelerografo.c,295 :: 		banSPI5 = 1;
	MOV	#lo_addr(_banSPI5), W1
	MOV.B	#1, W0
	MOV.B	W0, [W1]
;Acelerografo.c,296 :: 		break;
	GOTO	L_CambiarEstadoBandera60
;Acelerografo.c,297 :: 		case 6:
L_CambiarEstadoBandera66:
;Acelerografo.c,298 :: 		banSPI6 = 1;
	MOV	#lo_addr(_banSPI6), W1
	MOV.B	#1, W0
	MOV.B	W0, [W1]
;Acelerografo.c,299 :: 		break;
	GOTO	L_CambiarEstadoBandera60
;Acelerografo.c,300 :: 		case 7:
L_CambiarEstadoBandera67:
;Acelerografo.c,301 :: 		banSPI7 = 1;
	MOV	#lo_addr(_banSPI7), W1
	MOV.B	#1, W0
	MOV.B	W0, [W1]
;Acelerografo.c,302 :: 		break;
	GOTO	L_CambiarEstadoBandera60
;Acelerografo.c,303 :: 		case 8:
L_CambiarEstadoBandera68:
;Acelerografo.c,304 :: 		banSPI8 = 1;
	MOV	#lo_addr(_banSPI8), W1
	MOV.B	#1, W0
	MOV.B	W0, [W1]
;Acelerografo.c,305 :: 		break;
	GOTO	L_CambiarEstadoBandera60
;Acelerografo.c,306 :: 		case 0x0A:
L_CambiarEstadoBandera69:
;Acelerografo.c,307 :: 		banSPIA = 1;
	MOV	#lo_addr(_banSPIA), W1
	MOV.B	#1, W0
	MOV.B	W0, [W1]
;Acelerografo.c,308 :: 		break;
	GOTO	L_CambiarEstadoBandera60
;Acelerografo.c,309 :: 		}
L_CambiarEstadoBandera59:
	CP.B	W10, #0
	BRA NZ	L__CambiarEstadoBandera318
	GOTO	L_CambiarEstadoBandera61
L__CambiarEstadoBandera318:
	CP.B	W10, #1
	BRA NZ	L__CambiarEstadoBandera319
	GOTO	L_CambiarEstadoBandera62
L__CambiarEstadoBandera319:
	CP.B	W10, #2
	BRA NZ	L__CambiarEstadoBandera320
	GOTO	L_CambiarEstadoBandera63
L__CambiarEstadoBandera320:
	CP.B	W10, #4
	BRA NZ	L__CambiarEstadoBandera321
	GOTO	L_CambiarEstadoBandera64
L__CambiarEstadoBandera321:
	CP.B	W10, #5
	BRA NZ	L__CambiarEstadoBandera322
	GOTO	L_CambiarEstadoBandera65
L__CambiarEstadoBandera322:
	CP.B	W10, #6
	BRA NZ	L__CambiarEstadoBandera323
	GOTO	L_CambiarEstadoBandera66
L__CambiarEstadoBandera323:
	CP.B	W10, #7
	BRA NZ	L__CambiarEstadoBandera324
	GOTO	L_CambiarEstadoBandera67
L__CambiarEstadoBandera324:
	CP.B	W10, #8
	BRA NZ	L__CambiarEstadoBandera325
	GOTO	L_CambiarEstadoBandera68
L__CambiarEstadoBandera325:
	CP.B	W10, #10
	BRA NZ	L__CambiarEstadoBandera326
	GOTO	L_CambiarEstadoBandera69
L__CambiarEstadoBandera326:
L_CambiarEstadoBandera60:
;Acelerografo.c,310 :: 		}
L_CambiarEstadoBandera58:
;Acelerografo.c,313 :: 		if (estado==0){
	CP.B	W11, #0
	BRA Z	L__CambiarEstadoBandera327
	GOTO	L_CambiarEstadoBandera70
L__CambiarEstadoBandera327:
;Acelerografo.c,314 :: 		banSPI0 = 0;
	MOV	#lo_addr(_banSPI0), W1
	CLR	W0
	MOV.B	W0, [W1]
;Acelerografo.c,315 :: 		banSPI1 = 0;
	MOV	#lo_addr(_banSPI1), W1
	CLR	W0
	MOV.B	W0, [W1]
;Acelerografo.c,316 :: 		banSPI2 = 0;
	MOV	#lo_addr(_banSPI2), W1
	CLR	W0
	MOV.B	W0, [W1]
;Acelerografo.c,317 :: 		banSPI4 = 0;
	MOV	#lo_addr(_banSPI4), W1
	CLR	W0
	MOV.B	W0, [W1]
;Acelerografo.c,318 :: 		banSPI5 = 0;
	MOV	#lo_addr(_banSPI5), W1
	CLR	W0
	MOV.B	W0, [W1]
;Acelerografo.c,319 :: 		banSPI6 = 0;
	MOV	#lo_addr(_banSPI6), W1
	CLR	W0
	MOV.B	W0, [W1]
;Acelerografo.c,320 :: 		banSPI7 = 0;
	MOV	#lo_addr(_banSPI7), W1
	CLR	W0
	MOV.B	W0, [W1]
;Acelerografo.c,321 :: 		banSPI8 = 0;
	MOV	#lo_addr(_banSPI8), W1
	CLR	W0
	MOV.B	W0, [W1]
;Acelerografo.c,322 :: 		banSPIA = 0;
	MOV	#lo_addr(_banSPIA), W1
	CLR	W0
	MOV.B	W0, [W1]
;Acelerografo.c,323 :: 		}
L_CambiarEstadoBandera70:
;Acelerografo.c,324 :: 		}
L_end_CambiarEstadoBandera:
	RETURN
; end of _CambiarEstadoBandera

_Muestrear:

;Acelerografo.c,329 :: 		void Muestrear(){
;Acelerografo.c,331 :: 		if (banCiclo==0){
	PUSH	W10
	PUSH	W11
	PUSH	W12
	PUSH	W13
	MOV	#lo_addr(_banCiclo), W0
	MOV.B	[W0], W0
	CP.B	W0, #0
	BRA Z	L__Muestrear329
	GOTO	L_Muestrear71
L__Muestrear329:
;Acelerografo.c,333 :: 		ADXL355_write_byte(POWER_CTL, DRDY_OFF|MEASURING);                     //Coloca el ADXL en modo medicion
	MOV.B	#4, W11
	MOV.B	#45, W10
	CALL	_ADXL355_write_byte
;Acelerografo.c,334 :: 		T1CON.TON = 1;                                                         //Enciende el Timer1
	BSET	T1CON, #15
;Acelerografo.c,336 :: 		} else if (banCiclo==1) {
	GOTO	L_Muestrear72
L_Muestrear71:
	MOV	#lo_addr(_banCiclo), W0
	MOV.B	[W0], W0
	CP.B	W0, #1
	BRA Z	L__Muestrear330
	GOTO	L_Muestrear73
L__Muestrear330:
;Acelerografo.c,338 :: 		banCiclo = 2;                                                          //Limpia la bandera de ciclo completo
	MOV	#lo_addr(_banCiclo), W1
	MOV.B	#2, W0
	MOV.B	W0, [W1]
;Acelerografo.c,340 :: 		tramaCompleta[0] = contCiclos;                                         //LLena el primer elemento de la tramaCompleta con el contador de ciclos
	MOV	#lo_addr(_tramaCompleta), W1
	MOV	#lo_addr(_contCiclos), W0
	MOV.B	[W0], [W1]
;Acelerografo.c,341 :: 		numFIFO = ADXL355_read_byte(FIFO_ENTRIES);
	MOV.B	#5, W10
	CALL	_ADXL355_read_byte
	MOV	#lo_addr(_numFIFO), W1
	MOV.B	W0, [W1]
;Acelerografo.c,342 :: 		numSetsFIFO = (numFIFO)/3;                                             //Lee el numero de sets disponibles en el FIFO
	ZE	W0, W0
	MOV	#3, W2
	REPEAT	#17
	DIV.S	W0, W2
	MOV	W0, W1
	MOV	#lo_addr(_numSetsFIFO), W0
	MOV.B	W1, [W0]
;Acelerografo.c,345 :: 		for (x=0;x<numSetsFIFO;x++){
	CLR	W0
	MOV	W0, _x
L_Muestrear74:
	MOV	#lo_addr(_numSetsFIFO), W0
	ZE	[W0], W1
	MOV	#lo_addr(_x), W0
	CP	W1, [W0]
	BRA GTU	L__Muestrear331
	GOTO	L_Muestrear75
L__Muestrear331:
;Acelerografo.c,346 :: 		ADXL355_read_FIFO(datosLeidos);                                    //Lee una sola posicion del FIFO
	MOV	#lo_addr(_datosLeidos), W10
	CALL	_ADXL355_read_FIFO
;Acelerografo.c,347 :: 		for (y=0;y<9;y++){
	CLR	W0
	MOV	W0, _y
L_Muestrear77:
	MOV	_y, W0
	CP	W0, #9
	BRA LTU	L__Muestrear332
	GOTO	L_Muestrear78
L__Muestrear332:
;Acelerografo.c,348 :: 		datosFIFO[y+(x*9)] = datosLeidos[y];                           //LLena la trama datosFIFO
	MOV	_x, W1
	MOV	#9, W0
	MUL.UU	W1, W0, W2
	MOV	#lo_addr(_y), W0
	ADD	W2, [W0], W1
	MOV	#lo_addr(_datosFIFO), W0
	ADD	W0, W1, W2
	MOV	#lo_addr(_datosLeidos), W1
	MOV	#lo_addr(_y), W0
	ADD	W1, [W0], W0
	MOV.B	[W0], [W2]
;Acelerografo.c,347 :: 		for (y=0;y<9;y++){
	MOV	#1, W1
	MOV	#lo_addr(_y), W0
	ADD	W1, [W0], [W0]
;Acelerografo.c,349 :: 		}
	GOTO	L_Muestrear77
L_Muestrear78:
;Acelerografo.c,345 :: 		for (x=0;x<numSetsFIFO;x++){
	MOV	#1, W1
	MOV	#lo_addr(_x), W0
	ADD	W1, [W0], [W0]
;Acelerografo.c,350 :: 		}
	GOTO	L_Muestrear74
L_Muestrear75:
;Acelerografo.c,353 :: 		for (x=0;x<(numSetsFIFO*9);x++){
	CLR	W0
	MOV	W0, _x
L_Muestrear80:
	MOV	#lo_addr(_numSetsFIFO), W0
	ZE	[W0], W1
	MOV	#9, W0
	MUL.SS	W1, W0, W2
	MOV	#lo_addr(_x), W0
	CP	W2, [W0]
	BRA GTU	L__Muestrear333
	GOTO	L_Muestrear81
L__Muestrear333:
;Acelerografo.c,354 :: 		if ((x==0)||(x%9==0)){
	MOV	_x, W0
	CP	W0, #0
	BRA NZ	L__Muestrear334
	GOTO	L__Muestrear202
L__Muestrear334:
	MOV	_x, W0
	MOV	#9, W2
	REPEAT	#17
	DIV.U	W0, W2
	MOV	W1, W0
	CP	W0, #0
	BRA NZ	L__Muestrear335
	GOTO	L__Muestrear201
L__Muestrear335:
	GOTO	L_Muestrear85
L__Muestrear202:
L__Muestrear201:
;Acelerografo.c,355 :: 		tramaCompleta[contFIFO+contMuestras+x] = contMuestras;          //Funciona bien
	MOV	#lo_addr(_contMuestras), W0
	ZE	[W0], W1
	MOV	#lo_addr(_contFIFO), W0
	ADD	W1, [W0], W1
	MOV	#lo_addr(_x), W0
	ADD	W1, [W0], W1
	MOV	#lo_addr(_tramaCompleta), W0
	ADD	W0, W1, W1
	MOV	#lo_addr(_contMuestras), W0
	MOV.B	[W0], [W1]
;Acelerografo.c,356 :: 		tramaCompleta[contFIFO+contMuestras+x+1] = datosFIFO[x];
	MOV	#lo_addr(_contMuestras), W0
	ZE	[W0], W1
	MOV	#lo_addr(_contFIFO), W0
	ADD	W1, [W0], W1
	MOV	#lo_addr(_x), W0
	ADD	W1, [W0], W0
	ADD	W0, #1, W1
	MOV	#lo_addr(_tramaCompleta), W0
	ADD	W0, W1, W2
	MOV	#lo_addr(_datosFIFO), W1
	MOV	#lo_addr(_x), W0
	ADD	W1, [W0], W0
	MOV.B	[W0], [W2]
;Acelerografo.c,357 :: 		contMuestras++;
	MOV.B	#1, W1
	MOV	#lo_addr(_contMuestras), W0
	ADD.B	W1, [W0], [W0]
;Acelerografo.c,358 :: 		} else {
	GOTO	L_Muestrear86
L_Muestrear85:
;Acelerografo.c,359 :: 		tramaCompleta[contFIFO+contMuestras+x] = datosFIFO[x];
	MOV	#lo_addr(_contMuestras), W0
	ZE	[W0], W1
	MOV	#lo_addr(_contFIFO), W0
	ADD	W1, [W0], W1
	MOV	#lo_addr(_x), W0
	ADD	W1, [W0], W1
	MOV	#lo_addr(_tramaCompleta), W0
	ADD	W0, W1, W2
	MOV	#lo_addr(_datosFIFO), W1
	MOV	#lo_addr(_x), W0
	ADD	W1, [W0], W0
	MOV.B	[W0], [W2]
;Acelerografo.c,360 :: 		}
L_Muestrear86:
;Acelerografo.c,353 :: 		for (x=0;x<(numSetsFIFO*9);x++){
	MOV	#1, W1
	MOV	#lo_addr(_x), W0
	ADD	W1, [W0], [W0]
;Acelerografo.c,361 :: 		}
	GOTO	L_Muestrear80
L_Muestrear81:
;Acelerografo.c,364 :: 		AjustarTiempoSistema(horaSistema, fechaSistema, tiempo);
	MOV	_fechaSistema, W12
	MOV	_fechaSistema+2, W13
	MOV	_horaSistema, W10
	MOV	_horaSistema+2, W11
	MOV	#lo_addr(_tiempo), W0
	PUSH	W0
	CALL	_AjustarTiempoSistema
	SUB	#2, W15
;Acelerografo.c,365 :: 		for (x=0;x<6;x++){
	CLR	W0
	MOV	W0, _x
L_Muestrear87:
	MOV	_x, W0
	CP	W0, #6
	BRA LTU	L__Muestrear336
	GOTO	L_Muestrear88
L__Muestrear336:
;Acelerografo.c,366 :: 		tramaCompleta[2500+x] = tiempo[x];
	MOV	#2500, W1
	MOV	#lo_addr(_x), W0
	ADD	W1, [W0], W1
	MOV	#lo_addr(_tramaCompleta), W0
	ADD	W0, W1, W2
	MOV	#lo_addr(_tiempo), W1
	MOV	#lo_addr(_x), W0
	ADD	W1, [W0], W0
	MOV.B	[W0], [W2]
;Acelerografo.c,365 :: 		for (x=0;x<6;x++){
	MOV	#1, W1
	MOV	#lo_addr(_x), W0
	ADD	W1, [W0], [W0]
;Acelerografo.c,367 :: 		}
	GOTO	L_Muestrear87
L_Muestrear88:
;Acelerografo.c,369 :: 		contMuestras = 0;                                                      //Limpia el contador de muestras
	MOV	#lo_addr(_contMuestras), W1
	CLR	W0
	MOV.B	W0, [W1]
;Acelerografo.c,370 :: 		contFIFO = 0;                                                          //Limpia el contador de FIFOs
	CLR	W0
	MOV	W0, _contFIFO
;Acelerografo.c,371 :: 		T1CON.TON = 1;                                                         //Enciende el Timer1
	BSET	T1CON, #15
;Acelerografo.c,373 :: 		banLec = 1;                                                            //Activa la bandera de lectura para enviar la trama
	MOV	#lo_addr(_banLec), W1
	MOV.B	#1, W0
	MOV.B	W0, [W1]
;Acelerografo.c,374 :: 		InterrupcionP1(0XB1);
	MOV.B	#177, W10
	CALL	_InterrupcionP1
;Acelerografo.c,376 :: 		TEST = 0;
	BCLR	LATB12_bit, BitPos(LATB12_bit+0)
;Acelerografo.c,378 :: 		}
L_Muestrear73:
L_Muestrear72:
;Acelerografo.c,380 :: 		contCiclos++;                                                              //Incrementa el contador de ciclos
	MOV.B	#1, W1
	MOV	#lo_addr(_contCiclos), W0
	ADD.B	W1, [W0], [W0]
;Acelerografo.c,382 :: 		}
L_end_Muestrear:
	POP	W13
	POP	W12
	POP	W11
	POP	W10
	RETURN
; end of _Muestrear

_spi_1:
	PUSH	DSWPAG
	PUSH	50
	PUSH	RCOUNT
	PUSH	W0
	MOV	#2, W0
	REPEAT	#12
	PUSH	[W0++]

;Acelerografo.c,391 :: 		void spi_1() org  IVT_ADDR_SPI1INTERRUPT {
;Acelerografo.c,393 :: 		SPI1IF_bit = 0;                                                            //Limpia la bandera de interrupcion por SPI
	PUSH	W10
	PUSH	W11
	PUSH	W12
	PUSH	W13
	BCLR	SPI1IF_bit, BitPos(SPI1IF_bit+0)
;Acelerografo.c,394 :: 		bufferSPI = SPI1BUF;                                                       //Guarda el contenido del bufeer (lectura)
	MOV	#lo_addr(_bufferSPI), W1
	MOV.B	SPI1BUF, WREG
	MOV.B	W0, [W1]
;Acelerografo.c,398 :: 		if ((banSPI0==0)&&(bufferSPI==0xA0)) {
	MOV	#lo_addr(_banSPI0), W0
	MOV.B	[W0], W0
	CP.B	W0, #0
	BRA Z	L__spi_1338
	GOTO	L__spi_1219
L__spi_1338:
	MOV	#lo_addr(_bufferSPI), W0
	MOV.B	[W0], W1
	MOV.B	#160, W0
	CP.B	W1, W0
	BRA Z	L__spi_1339
	GOTO	L__spi_1218
L__spi_1339:
L__spi_1217:
;Acelerografo.c,400 :: 		CambiarEstadoBandera(0,1);
	MOV.B	#1, W11
	CLR	W10
	CALL	_CambiarEstadoBandera
;Acelerografo.c,401 :: 		SPI1BUF = tipoOperacion;                                                //Carga en el buffer el tipo de operacion requerido
	MOV	#lo_addr(_tipoOperacion), W0
	ZE	[W0], W0
	MOV	WREG, SPI1BUF
;Acelerografo.c,398 :: 		if ((banSPI0==0)&&(bufferSPI==0xA0)) {
L__spi_1219:
L__spi_1218:
;Acelerografo.c,403 :: 		if ((banSPI0==1)&&(bufferSPI!=0xA0)&&(bufferSPI==0xF0)){
	MOV	#lo_addr(_banSPI0), W0
	MOV.B	[W0], W0
	CP.B	W0, #1
	BRA Z	L__spi_1340
	GOTO	L__spi_1222
L__spi_1340:
	MOV	#lo_addr(_bufferSPI), W0
	MOV.B	[W0], W1
	MOV.B	#160, W0
	CP.B	W1, W0
	BRA NZ	L__spi_1341
	GOTO	L__spi_1221
L__spi_1341:
	MOV	#lo_addr(_bufferSPI), W0
	MOV.B	[W0], W1
	MOV.B	#240, W0
	CP.B	W1, W0
	BRA Z	L__spi_1342
	GOTO	L__spi_1220
L__spi_1342:
L__spi_1216:
;Acelerografo.c,404 :: 		CambiarEstadoBandera(0,0);                                              //Limpia la bandera
	CLR	W11
	CLR	W10
	CALL	_CambiarEstadoBandera
;Acelerografo.c,405 :: 		tipoOperacion = 0;                                                      //Limpia la variable de tipo de operacion
	MOV	#lo_addr(_tipoOperacion), W1
	CLR	W0
	MOV.B	W0, [W1]
;Acelerografo.c,403 :: 		if ((banSPI0==1)&&(bufferSPI!=0xA0)&&(bufferSPI==0xF0)){
L__spi_1222:
L__spi_1221:
L__spi_1220:
;Acelerografo.c,411 :: 		if ((banSPI1==0)&&(bufferSPI==0xA1)){
	MOV	#lo_addr(_banSPI1), W0
	MOV.B	[W0], W0
	CP.B	W0, #0
	BRA Z	L__spi_1343
	GOTO	L__spi_1224
L__spi_1343:
	MOV	#lo_addr(_bufferSPI), W0
	MOV.B	[W0], W1
	MOV.B	#161, W0
	CP.B	W1, W0
	BRA Z	L__spi_1344
	GOTO	L__spi_1223
L__spi_1344:
L__spi_1215:
;Acelerografo.c,413 :: 		CambiarEstadoBandera(1,1);
	MOV.B	#1, W11
	MOV.B	#1, W10
	CALL	_CambiarEstadoBandera
;Acelerografo.c,414 :: 		banCiclo = 0;
	MOV	#lo_addr(_banCiclo), W1
	CLR	W0
	MOV.B	W0, [W1]
;Acelerografo.c,415 :: 		contMuestras = 0;
	MOV	#lo_addr(_contMuestras), W1
	CLR	W0
	MOV.B	W0, [W1]
;Acelerografo.c,416 :: 		contCiclos = 0;
	MOV	#lo_addr(_contCiclos), W1
	CLR	W0
	MOV.B	W0, [W1]
;Acelerografo.c,417 :: 		contFIFO = 0;
	CLR	W0
	MOV	W0, _contFIFO
;Acelerografo.c,418 :: 		numFIFO = 0;
	MOV	#lo_addr(_numFIFO), W1
	CLR	W0
	MOV.B	W0, [W1]
;Acelerografo.c,419 :: 		numSetsFIFO = 0;
	MOV	#lo_addr(_numSetsFIFO), W1
	CLR	W0
	MOV.B	W0, [W1]
;Acelerografo.c,420 :: 		contTimer1 = 0;
	MOV	#lo_addr(_contTimer1), W1
	CLR	W0
	MOV.B	W0, [W1]
;Acelerografo.c,421 :: 		banInicio = 1;                                                          //Bandera que permite el inicio del muestreo dentro de la interrupcion INT1
	MOV	#lo_addr(_banInicio), W1
	MOV.B	#1, W0
	MOV.B	W0, [W1]
;Acelerografo.c,422 :: 		if (INT1IE_bit==0){
	BTSC	INT1IE_bit, BitPos(INT1IE_bit+0)
	GOTO	L_spi_199
;Acelerografo.c,423 :: 		INT1IE_bit = 1;
	BSET	INT1IE_bit, BitPos(INT1IE_bit+0)
;Acelerografo.c,424 :: 		}
L_spi_199:
;Acelerografo.c,411 :: 		if ((banSPI1==0)&&(bufferSPI==0xA1)){
L__spi_1224:
L__spi_1223:
;Acelerografo.c,426 :: 		if ((banSPI1==1)&&(bufferSPI==0xF1)){
	MOV	#lo_addr(_banSPI1), W0
	MOV.B	[W0], W0
	CP.B	W0, #1
	BRA Z	L__spi_1345
	GOTO	L__spi_1226
L__spi_1345:
	MOV	#lo_addr(_bufferSPI), W0
	MOV.B	[W0], W1
	MOV.B	#241, W0
	CP.B	W1, W0
	BRA Z	L__spi_1346
	GOTO	L__spi_1225
L__spi_1346:
L__spi_1214:
;Acelerografo.c,427 :: 		CambiarEstadoBandera(1,0);
	CLR	W11
	MOV.B	#1, W10
	CALL	_CambiarEstadoBandera
;Acelerografo.c,426 :: 		if ((banSPI1==1)&&(bufferSPI==0xF1)){
L__spi_1226:
L__spi_1225:
;Acelerografo.c,466 :: 		if ((banLec==1)&&(bufferSPI==0xA3)){                                          //Verifica si la bandera de inicio de trama esta activa
	MOV	#lo_addr(_banLec), W0
	MOV.B	[W0], W0
	CP.B	W0, #1
	BRA Z	L__spi_1347
	GOTO	L__spi_1228
L__spi_1347:
	MOV	#lo_addr(_bufferSPI), W0
	MOV.B	[W0], W1
	MOV.B	#163, W0
	CP.B	W1, W0
	BRA Z	L__spi_1348
	GOTO	L__spi_1227
L__spi_1348:
L__spi_1213:
;Acelerografo.c,467 :: 		banLec = 2;                                                             //Activa la bandera de lectura
	MOV	#lo_addr(_banLec), W1
	MOV.B	#2, W0
	MOV.B	W0, [W1]
;Acelerografo.c,468 :: 		i = 0;
	CLR	W0
	MOV	W0, _i
;Acelerografo.c,469 :: 		SPI1BUF = tramaCompleta[i];
	MOV	#lo_addr(_tramaCompleta), W1
	MOV	#lo_addr(_i), W0
	ADD	W1, [W0], W0
	MOV.B	[W0], W0
	ZE	W0, W0
	MOV	WREG, SPI1BUF
;Acelerografo.c,466 :: 		if ((banLec==1)&&(bufferSPI==0xA3)){                                          //Verifica si la bandera de inicio de trama esta activa
L__spi_1228:
L__spi_1227:
;Acelerografo.c,471 :: 		if ((banLec==2)&&(bufferSPI!=0xF3)){
	MOV	#lo_addr(_banLec), W0
	MOV.B	[W0], W0
	CP.B	W0, #2
	BRA Z	L__spi_1349
	GOTO	L__spi_1230
L__spi_1349:
	MOV	#lo_addr(_bufferSPI), W0
	MOV.B	[W0], W1
	MOV.B	#243, W0
	CP.B	W1, W0
	BRA NZ	L__spi_1350
	GOTO	L__spi_1229
L__spi_1350:
L__spi_1212:
;Acelerografo.c,472 :: 		SPI1BUF = tramaCompleta[i];
	MOV	#lo_addr(_tramaCompleta), W1
	MOV	#lo_addr(_i), W0
	ADD	W1, [W0], W0
	MOV.B	[W0], W0
	ZE	W0, W0
	MOV	WREG, SPI1BUF
;Acelerografo.c,473 :: 		i++;
	MOV	#1, W1
	MOV	#lo_addr(_i), W0
	ADD	W1, [W0], [W0]
;Acelerografo.c,471 :: 		if ((banLec==2)&&(bufferSPI!=0xF3)){
L__spi_1230:
L__spi_1229:
;Acelerografo.c,475 :: 		if ((banLec==2)&&(bufferSPI==0xF3)){                                          //Si detecta el delimitador de final de trama:
	MOV	#lo_addr(_banLec), W0
	MOV.B	[W0], W0
	CP.B	W0, #2
	BRA Z	L__spi_1351
	GOTO	L__spi_1232
L__spi_1351:
	MOV	#lo_addr(_bufferSPI), W0
	MOV.B	[W0], W1
	MOV.B	#243, W0
	CP.B	W1, W0
	BRA Z	L__spi_1352
	GOTO	L__spi_1231
L__spi_1352:
L__spi_1211:
;Acelerografo.c,476 :: 		banLec = 0;                                                             //Limpia la bandera de lectura                        ****AQUI Me QUEDE
	MOV	#lo_addr(_banLec), W1
	CLR	W0
	MOV.B	W0, [W1]
;Acelerografo.c,477 :: 		SPI1BUF = 0xFF;
	MOV	#255, W0
	MOV	WREG, SPI1BUF
;Acelerografo.c,475 :: 		if ((banLec==2)&&(bufferSPI==0xF3)){                                          //Si detecta el delimitador de final de trama:
L__spi_1232:
L__spi_1231:
;Acelerografo.c,483 :: 		if ((banSetReloj==0)&&(bufferSPI==0xA4)){
	MOV	#lo_addr(_banSetReloj), W0
	MOV.B	[W0], W0
	CP.B	W0, #0
	BRA Z	L__spi_1353
	GOTO	L__spi_1234
L__spi_1353:
	MOV	#lo_addr(_bufferSPI), W0
	MOV.B	[W0], W1
	MOV.B	#164, W0
	CP.B	W1, W0
	BRA Z	L__spi_1354
	GOTO	L__spi_1233
L__spi_1354:
L__spi_1210:
;Acelerografo.c,484 :: 		banEsc = 1;
	MOV	#lo_addr(_banEsc), W1
	MOV.B	#1, W0
	MOV.B	W0, [W1]
;Acelerografo.c,485 :: 		j = 0;
	CLR	W0
	MOV	W0, _j
;Acelerografo.c,483 :: 		if ((banSetReloj==0)&&(bufferSPI==0xA4)){
L__spi_1234:
L__spi_1233:
;Acelerografo.c,487 :: 		if ((banEsc==1)&&(bufferSPI!=0xA4)&&(bufferSPI!=0xF4)){
	MOV	#lo_addr(_banEsc), W0
	MOV.B	[W0], W0
	CP.B	W0, #1
	BRA Z	L__spi_1355
	GOTO	L__spi_1237
L__spi_1355:
	MOV	#lo_addr(_bufferSPI), W0
	MOV.B	[W0], W1
	MOV.B	#164, W0
	CP.B	W1, W0
	BRA NZ	L__spi_1356
	GOTO	L__spi_1236
L__spi_1356:
	MOV	#lo_addr(_bufferSPI), W0
	MOV.B	[W0], W1
	MOV.B	#244, W0
	CP.B	W1, W0
	BRA NZ	L__spi_1357
	GOTO	L__spi_1235
L__spi_1357:
L__spi_1209:
;Acelerografo.c,488 :: 		tiempoRPI[j] = bufferSPI;
	MOV	#lo_addr(_tiempoRPI), W1
	MOV	#lo_addr(_j), W0
	ADD	W1, [W0], W1
	MOV	#lo_addr(_bufferSPI), W0
	MOV.B	[W0], [W1]
;Acelerografo.c,489 :: 		j++;
	MOV	#1, W1
	MOV	#lo_addr(_j), W0
	ADD	W1, [W0], [W0]
;Acelerografo.c,487 :: 		if ((banEsc==1)&&(bufferSPI!=0xA4)&&(bufferSPI!=0xF4)){
L__spi_1237:
L__spi_1236:
L__spi_1235:
;Acelerografo.c,491 :: 		if ((banEsc==1)&&(bufferSPI==0xF4)){
	MOV	#lo_addr(_banEsc), W0
	MOV.B	[W0], W0
	CP.B	W0, #1
	BRA Z	L__spi_1358
	GOTO	L__spi_1239
L__spi_1358:
	MOV	#lo_addr(_bufferSPI), W0
	MOV.B	[W0], W1
	MOV.B	#244, W0
	CP.B	W1, W0
	BRA Z	L__spi_1359
	GOTO	L__spi_1238
L__spi_1359:
L__spi_1208:
;Acelerografo.c,492 :: 		horaSistema = RecuperarHoraRPI(tiempoRPI);                              //Recupera la hora de la RPi
	MOV	#lo_addr(_tiempoRPI), W10
	CALL	_RecuperarHoraRPI
	MOV	W0, _horaSistema
	MOV	W1, _horaSistema+2
;Acelerografo.c,493 :: 		fechaSistema = RecuperarFechaRPI(tiempoRPI);                            //Recupera la fecha de la RPi
	MOV	#lo_addr(_tiempoRPI), W10
	CALL	_RecuperarFechaRPI
	MOV	W0, _fechaSistema
	MOV	W1, _fechaSistema+2
;Acelerografo.c,494 :: 		DS3234_setDate(horaSistema, fechaSistema);                              //Configura la hora en el RTC
	MOV.D	W0, W12
	MOV	_horaSistema, W10
	MOV	_horaSistema+2, W11
	CALL	_DS3234_setDate
;Acelerografo.c,495 :: 		horaSistema = RecuperarHoraRTC();                                       //Recupera la hora del RTC
	CALL	_RecuperarHoraRTC
	MOV	W0, _horaSistema
	MOV	W1, _horaSistema+2
;Acelerografo.c,496 :: 		fechaSistema = RecuperarFechaRTC();                                     //Recupera la fecha del RTC
	CALL	_RecuperarFechaRTC
	MOV	W0, _fechaSistema
	MOV	W1, _fechaSistema+2
;Acelerografo.c,497 :: 		AjustarTiempoSistema(horaSistema, fechaSistema, tiempo);                //Actualiza los datos de la trama tiempo con la hora y fecha recuperadas
	MOV.D	W0, W12
	MOV	_horaSistema, W10
	MOV	_horaSistema+2, W11
	MOV	#lo_addr(_tiempo), W0
	PUSH	W0
	CALL	_AjustarTiempoSistema
	SUB	#2, W15
;Acelerografo.c,498 :: 		banEsc = 0;
	MOV	#lo_addr(_banEsc), W1
	CLR	W0
	MOV.B	W0, [W1]
;Acelerografo.c,499 :: 		banSetReloj = 1;
	MOV	#lo_addr(_banSetReloj), W1
	MOV.B	#1, W0
	MOV.B	W0, [W1]
;Acelerografo.c,500 :: 		InterrupcionP1(0XB2);
	MOV.B	#178, W10
	CALL	_InterrupcionP1
;Acelerografo.c,491 :: 		if ((banEsc==1)&&(bufferSPI==0xF4)){
L__spi_1239:
L__spi_1238:
;Acelerografo.c,504 :: 		if ((banSetReloj==1)&&(bufferSPI==0xA5)){
	MOV	#lo_addr(_banSetReloj), W0
	MOV.B	[W0], W0
	CP.B	W0, #1
	BRA Z	L__spi_1360
	GOTO	L__spi_1241
L__spi_1360:
	MOV	#lo_addr(_bufferSPI), W0
	MOV.B	[W0], W1
	MOV.B	#165, W0
	CP.B	W1, W0
	BRA Z	L__spi_1361
	GOTO	L__spi_1240
L__spi_1361:
L__spi_1207:
;Acelerografo.c,505 :: 		banSetReloj = 2;
	MOV	#lo_addr(_banSetReloj), W1
	MOV.B	#2, W0
	MOV.B	W0, [W1]
;Acelerografo.c,506 :: 		j = 0;
	CLR	W0
	MOV	W0, _j
;Acelerografo.c,507 :: 		SPI1BUF = fuenteReloj;                                                  //Envia el indicador de fuente de reloj (0:RTC, 1:GPS)
	MOV	#lo_addr(_fuenteReloj), W0
	ZE	[W0], W0
	MOV	WREG, SPI1BUF
;Acelerografo.c,504 :: 		if ((banSetReloj==1)&&(bufferSPI==0xA5)){
L__spi_1241:
L__spi_1240:
;Acelerografo.c,509 :: 		if ((banSetReloj==2)&&(bufferSPI!=0xA5)&&(bufferSPI!=0xF5)){
	MOV	#lo_addr(_banSetReloj), W0
	MOV.B	[W0], W0
	CP.B	W0, #2
	BRA Z	L__spi_1362
	GOTO	L__spi_1244
L__spi_1362:
	MOV	#lo_addr(_bufferSPI), W0
	MOV.B	[W0], W1
	MOV.B	#165, W0
	CP.B	W1, W0
	BRA NZ	L__spi_1363
	GOTO	L__spi_1243
L__spi_1363:
	MOV	#lo_addr(_bufferSPI), W0
	MOV.B	[W0], W1
	MOV.B	#245, W0
	CP.B	W1, W0
	BRA NZ	L__spi_1364
	GOTO	L__spi_1242
L__spi_1364:
L__spi_1206:
;Acelerografo.c,510 :: 		SPI1BUF = tiempo[j];
	MOV	#lo_addr(_tiempo), W1
	MOV	#lo_addr(_j), W0
	ADD	W1, [W0], W0
	MOV.B	[W0], W0
	ZE	W0, W0
	MOV	WREG, SPI1BUF
;Acelerografo.c,511 :: 		j++;
	MOV	#1, W1
	MOV	#lo_addr(_j), W0
	ADD	W1, [W0], [W0]
;Acelerografo.c,509 :: 		if ((banSetReloj==2)&&(bufferSPI!=0xA5)&&(bufferSPI!=0xF5)){
L__spi_1244:
L__spi_1243:
L__spi_1242:
;Acelerografo.c,513 :: 		if ((banSetReloj==2)&&(bufferSPI==0xF5)){                                     //Si detecta el delimitador de final de trama:
	MOV	#lo_addr(_banSetReloj), W0
	MOV.B	[W0], W0
	CP.B	W0, #2
	BRA Z	L__spi_1365
	GOTO	L__spi_1246
L__spi_1365:
	MOV	#lo_addr(_bufferSPI), W0
	MOV.B	[W0], W1
	MOV.B	#245, W0
	CP.B	W1, W0
	BRA Z	L__spi_1366
	GOTO	L__spi_1245
L__spi_1366:
L__spi_1205:
;Acelerografo.c,514 :: 		banSetReloj = 0;                                                        //Limpia la bandera de lectura
	MOV	#lo_addr(_banSetReloj), W1
	CLR	W0
	MOV.B	W0, [W1]
;Acelerografo.c,515 :: 		SPI1BUF = 0xFF;
	MOV	#255, W0
	MOV	WREG, SPI1BUF
;Acelerografo.c,513 :: 		if ((banSetReloj==2)&&(bufferSPI==0xF5)){                                     //Si detecta el delimitador de final de trama:
L__spi_1246:
L__spi_1245:
;Acelerografo.c,519 :: 		if ((banSetReloj==0)&&(bufferSPI==0xA6)){
	MOV	#lo_addr(_banSetReloj), W0
	MOV.B	[W0], W0
	CP.B	W0, #0
	BRA Z	L__spi_1367
	GOTO	L__spi_1248
L__spi_1367:
	MOV	#lo_addr(_bufferSPI), W0
	MOV.B	[W0], W1
	MOV.B	#166, W0
	CP.B	W1, W0
	BRA Z	L__spi_1368
	GOTO	L__spi_1247
L__spi_1368:
L__spi_1204:
;Acelerografo.c,520 :: 		banGPSI = 1;                                                            //Inicia la bandera de inicio de trama  del GPS
	MOV	#lo_addr(_banGPSI), W1
	MOV.B	#1, W0
	MOV.B	W0, [W1]
;Acelerografo.c,521 :: 		banGPSC = 0;                                                            //Limpia la bandera de trama completa
	MOV	#lo_addr(_banGPSC), W1
	CLR	W0
	MOV.B	W0, [W1]
;Acelerografo.c,522 :: 		U1MODE.UARTEN = 1;                                                      //Inicializa el UART1
	BSET	U1MODE, #15
;Acelerografo.c,519 :: 		if ((banSetReloj==0)&&(bufferSPI==0xA6)){
L__spi_1248:
L__spi_1247:
;Acelerografo.c,526 :: 		if ((banSetReloj==0)&&(bufferSPI==0xA7)){
	MOV	#lo_addr(_banSetReloj), W0
	MOV.B	[W0], W0
	CP.B	W0, #0
	BRA Z	L__spi_1369
	GOTO	L__spi_1250
L__spi_1369:
	MOV	#lo_addr(_bufferSPI), W0
	MOV.B	[W0], W1
	MOV.B	#167, W0
	CP.B	W1, W0
	BRA Z	L__spi_1370
	GOTO	L__spi_1249
L__spi_1370:
L__spi_1203:
;Acelerografo.c,527 :: 		horaSistema = RecuperarHoraRTC();                                       //Recupera la hora del RTC
	CALL	_RecuperarHoraRTC
	MOV	W0, _horaSistema
	MOV	W1, _horaSistema+2
;Acelerografo.c,528 :: 		fechaSistema = RecuperarFechaRTC();                                     //Recupera la fecha del RTC
	CALL	_RecuperarFechaRTC
	MOV	W0, _fechaSistema
	MOV	W1, _fechaSistema+2
;Acelerografo.c,529 :: 		AjustarTiempoSistema(horaSistema, fechaSistema, tiempo);                //Actualiza los datos de la trama tiempo con la hora y fecha recuperadas
	MOV.D	W0, W12
	MOV	_horaSistema, W10
	MOV	_horaSistema+2, W11
	MOV	#lo_addr(_tiempo), W0
	PUSH	W0
	CALL	_AjustarTiempoSistema
	SUB	#2, W15
;Acelerografo.c,530 :: 		fuenteReloj = 0;                                                        //Indica que la fuente de reloj es el RTC
	MOV	#lo_addr(_fuenteReloj), W1
	CLR	W0
	MOV.B	W0, [W1]
;Acelerografo.c,531 :: 		banSetReloj = 1;
	MOV	#lo_addr(_banSetReloj), W1
	MOV.B	#1, W0
	MOV.B	W0, [W1]
;Acelerografo.c,532 :: 		InterrupcionP1(0XB2);
	MOV.B	#178, W10
	CALL	_InterrupcionP1
;Acelerografo.c,526 :: 		if ((banSetReloj==0)&&(bufferSPI==0xA7)){
L__spi_1250:
L__spi_1249:
;Acelerografo.c,535 :: 		}
L_end_spi_1:
	POP	W13
	POP	W12
	POP	W11
	POP	W10
	MOV	#26, W0
	REPEAT	#12
	POP	[W0--]
	POP	W0
	POP	RCOUNT
	POP	50
	POP	DSWPAG
	RETFIE
; end of _spi_1

_int_1:
	PUSH	DSWPAG
	PUSH	50
	PUSH	RCOUNT
	PUSH	W0
	MOV	#2, W0
	REPEAT	#12
	PUSH	[W0++]

;Acelerografo.c,540 :: 		void int_1() org IVT_ADDR_INT1INTERRUPT {
;Acelerografo.c,542 :: 		INT1IF_bit = 0;                                                            //Limpia la bandera de interrupcion externa INT1
	BCLR	INT1IF_bit, BitPos(INT1IF_bit+0)
;Acelerografo.c,544 :: 		TEST = ~TEST;
	BTG	LATB12_bit, BitPos(LATB12_bit+0)
;Acelerografo.c,545 :: 		horaSistema++;                                                             //Incrementa el reloj del sistema
	MOV	#1, W1
	MOV	#0, W2
	MOV	#lo_addr(_horaSistema), W0
	ADD	W1, [W0], [W0++]
	ADDC	W2, [W0], [W0--]
;Acelerografo.c,547 :: 		if (horaSistema==86400){                                                   //(24*3600)+(0*60)+(0) = 86400
	MOV	_horaSistema, W2
	MOV	_horaSistema+2, W3
	MOV	#20864, W0
	MOV	#1, W1
	CP	W2, W0
	CPB	W3, W1
	BRA Z	L__int_1372
	GOTO	L_int_1136
L__int_1372:
;Acelerografo.c,548 :: 		horaSistema = 0;                                                        //Reinicia el reloj al llegar a las 24:00:00 horas
	CLR	W0
	CLR	W1
	MOV	W0, _horaSistema
	MOV	W1, _horaSistema+2
;Acelerografo.c,549 :: 		}
L_int_1136:
;Acelerografo.c,551 :: 		if (banInicio==1){
	MOV	#lo_addr(_banInicio), W0
	MOV.B	[W0], W0
	CP.B	W0, #1
	BRA Z	L__int_1373
	GOTO	L_int_1137
L__int_1373:
;Acelerografo.c,553 :: 		Muestrear();
	CALL	_Muestrear
;Acelerografo.c,554 :: 		}
L_int_1137:
;Acelerografo.c,556 :: 		}
L_end_int_1:
	MOV	#26, W0
	REPEAT	#12
	POP	[W0--]
	POP	W0
	POP	RCOUNT
	POP	50
	POP	DSWPAG
	RETFIE
; end of _int_1

_Timer1Int:
	PUSH	DSWPAG
	PUSH	50
	PUSH	RCOUNT
	PUSH	W0
	MOV	#2, W0
	REPEAT	#12
	PUSH	[W0++]

;Acelerografo.c,561 :: 		void Timer1Int() org IVT_ADDR_T1INTERRUPT{
;Acelerografo.c,563 :: 		T1IF_bit = 0;                                                              //Limpia la bandera de interrupcion por desbordamiento del Timer1
	PUSH	W10
	BCLR	T1IF_bit, BitPos(T1IF_bit+0)
;Acelerografo.c,565 :: 		numFIFO = ADXL355_read_byte(FIFO_ENTRIES); //75                            //Lee el numero de muestras disponibles en el FIFO
	MOV.B	#5, W10
	CALL	_ADXL355_read_byte
	MOV	#lo_addr(_numFIFO), W1
	MOV.B	W0, [W1]
;Acelerografo.c,566 :: 		numSetsFIFO = (numFIFO)/3;                 //25                            //Lee el numero de sets disponibles en el FIFO
	ZE	W0, W0
	MOV	#3, W2
	REPEAT	#17
	DIV.S	W0, W2
	MOV	W0, W1
	MOV	#lo_addr(_numSetsFIFO), W0
	MOV.B	W1, [W0]
;Acelerografo.c,569 :: 		for (x=0;x<numSetsFIFO;x++){
	CLR	W0
	MOV	W0, _x
L_Timer1Int138:
	MOV	#lo_addr(_numSetsFIFO), W0
	ZE	[W0], W1
	MOV	#lo_addr(_x), W0
	CP	W1, [W0]
	BRA GTU	L__Timer1Int375
	GOTO	L_Timer1Int139
L__Timer1Int375:
;Acelerografo.c,570 :: 		ADXL355_read_FIFO(datosLeidos);                                        //Lee una sola posicion del FIFO
	MOV	#lo_addr(_datosLeidos), W10
	CALL	_ADXL355_read_FIFO
;Acelerografo.c,571 :: 		for (y=0;y<9;y++){
	CLR	W0
	MOV	W0, _y
L_Timer1Int141:
	MOV	_y, W0
	CP	W0, #9
	BRA LTU	L__Timer1Int376
	GOTO	L_Timer1Int142
L__Timer1Int376:
;Acelerografo.c,572 :: 		datosFIFO[y+(x*9)] = datosLeidos[y];                               //LLena la trama datosFIFO
	MOV	_x, W1
	MOV	#9, W0
	MUL.UU	W1, W0, W2
	MOV	#lo_addr(_y), W0
	ADD	W2, [W0], W1
	MOV	#lo_addr(_datosFIFO), W0
	ADD	W0, W1, W2
	MOV	#lo_addr(_datosLeidos), W1
	MOV	#lo_addr(_y), W0
	ADD	W1, [W0], W0
	MOV.B	[W0], [W2]
;Acelerografo.c,571 :: 		for (y=0;y<9;y++){
	MOV	#1, W1
	MOV	#lo_addr(_y), W0
	ADD	W1, [W0], [W0]
;Acelerografo.c,573 :: 		}
	GOTO	L_Timer1Int141
L_Timer1Int142:
;Acelerografo.c,569 :: 		for (x=0;x<numSetsFIFO;x++){
	MOV	#1, W1
	MOV	#lo_addr(_x), W0
	ADD	W1, [W0], [W0]
;Acelerografo.c,574 :: 		}
	GOTO	L_Timer1Int138
L_Timer1Int139:
;Acelerografo.c,577 :: 		for (x=0;x<(numSetsFIFO*9);x++){      //0-224
	CLR	W0
	MOV	W0, _x
L_Timer1Int144:
	MOV	#lo_addr(_numSetsFIFO), W0
	ZE	[W0], W1
	MOV	#9, W0
	MUL.SS	W1, W0, W2
	MOV	#lo_addr(_x), W0
	CP	W2, [W0]
	BRA GTU	L__Timer1Int377
	GOTO	L_Timer1Int145
L__Timer1Int377:
;Acelerografo.c,578 :: 		if ((x==0)||(x%9==0)){
	MOV	_x, W0
	CP	W0, #0
	BRA NZ	L__Timer1Int378
	GOTO	L__Timer1Int253
L__Timer1Int378:
	MOV	_x, W0
	MOV	#9, W2
	REPEAT	#17
	DIV.U	W0, W2
	MOV	W1, W0
	CP	W0, #0
	BRA NZ	L__Timer1Int379
	GOTO	L__Timer1Int252
L__Timer1Int379:
	GOTO	L_Timer1Int149
L__Timer1Int253:
L__Timer1Int252:
;Acelerografo.c,579 :: 		tramaCompleta[contFIFO+contMuestras+x] = contMuestras;
	MOV	#lo_addr(_contMuestras), W0
	ZE	[W0], W1
	MOV	#lo_addr(_contFIFO), W0
	ADD	W1, [W0], W1
	MOV	#lo_addr(_x), W0
	ADD	W1, [W0], W1
	MOV	#lo_addr(_tramaCompleta), W0
	ADD	W0, W1, W1
	MOV	#lo_addr(_contMuestras), W0
	MOV.B	[W0], [W1]
;Acelerografo.c,580 :: 		tramaCompleta[contFIFO+contMuestras+x+1] = datosFIFO[x];
	MOV	#lo_addr(_contMuestras), W0
	ZE	[W0], W1
	MOV	#lo_addr(_contFIFO), W0
	ADD	W1, [W0], W1
	MOV	#lo_addr(_x), W0
	ADD	W1, [W0], W0
	ADD	W0, #1, W1
	MOV	#lo_addr(_tramaCompleta), W0
	ADD	W0, W1, W2
	MOV	#lo_addr(_datosFIFO), W1
	MOV	#lo_addr(_x), W0
	ADD	W1, [W0], W0
	MOV.B	[W0], [W2]
;Acelerografo.c,581 :: 		contMuestras++;
	MOV.B	#1, W1
	MOV	#lo_addr(_contMuestras), W0
	ADD.B	W1, [W0], [W0]
;Acelerografo.c,582 :: 		} else {
	GOTO	L_Timer1Int150
L_Timer1Int149:
;Acelerografo.c,583 :: 		tramaCompleta[contFIFO+contMuestras+x] = datosFIFO[x];
	MOV	#lo_addr(_contMuestras), W0
	ZE	[W0], W1
	MOV	#lo_addr(_contFIFO), W0
	ADD	W1, [W0], W1
	MOV	#lo_addr(_x), W0
	ADD	W1, [W0], W1
	MOV	#lo_addr(_tramaCompleta), W0
	ADD	W0, W1, W2
	MOV	#lo_addr(_datosFIFO), W1
	MOV	#lo_addr(_x), W0
	ADD	W1, [W0], W0
	MOV.B	[W0], [W2]
;Acelerografo.c,584 :: 		}
L_Timer1Int150:
;Acelerografo.c,577 :: 		for (x=0;x<(numSetsFIFO*9);x++){      //0-224
	MOV	#1, W1
	MOV	#lo_addr(_x), W0
	ADD	W1, [W0], [W0]
;Acelerografo.c,585 :: 		}
	GOTO	L_Timer1Int144
L_Timer1Int145:
;Acelerografo.c,587 :: 		contFIFO = (contMuestras*9);                                               //Incrementa el contador de FIFOs
	MOV	#lo_addr(_contMuestras), W0
	ZE	[W0], W1
	MOV	#9, W0
	MUL.SS	W1, W0, W0
	MOV	W0, _contFIFO
;Acelerografo.c,589 :: 		contTimer1++;                                                              //Incrementa una unidad cada vez que entra a la interrupcion por Timer1
	MOV.B	#1, W1
	MOV	#lo_addr(_contTimer1), W0
	ADD.B	W1, [W0], [W0]
;Acelerografo.c,591 :: 		if (contTimer1==numTMR1){                                                  //Verifica si se cumplio el numero de interrupciones por TMR1 para la tasa de muestreo seleccionada
	MOV	#lo_addr(_contTimer1), W0
	MOV.B	[W0], W1
	MOV	#lo_addr(_numTMR1), W0
	CP.B	W1, [W0]
	BRA Z	L__Timer1Int380
	GOTO	L_Timer1Int151
L__Timer1Int380:
;Acelerografo.c,592 :: 		T1CON.TON = 0;                                                          //Apaga el Timer1
	BCLR	T1CON, #15
;Acelerografo.c,593 :: 		banCiclo = 1;                                                           //Activa la bandera que indica que se completo un ciclo de medicion
	MOV	#lo_addr(_banCiclo), W1
	MOV.B	#1, W0
	MOV.B	W0, [W1]
;Acelerografo.c,594 :: 		contTimer1 = 0;                                                         //Limpia el contador de interrupciones por Timer1
	MOV	#lo_addr(_contTimer1), W1
	CLR	W0
	MOV.B	W0, [W1]
;Acelerografo.c,595 :: 		}
L_Timer1Int151:
;Acelerografo.c,597 :: 		}
L_end_Timer1Int:
	POP	W10
	MOV	#26, W0
	REPEAT	#12
	POP	[W0--]
	POP	W0
	POP	RCOUNT
	POP	50
	POP	DSWPAG
	RETFIE
; end of _Timer1Int

_urx_1:
	PUSH	DSWPAG
	PUSH	50
	PUSH	RCOUNT
	PUSH	W0
	MOV	#2, W0
	REPEAT	#12
	PUSH	[W0++]

;Acelerografo.c,602 :: 		void urx_1() org  IVT_ADDR_U1RXINTERRUPT {
;Acelerografo.c,605 :: 		U1RXIF_bit = 0;                                                            //Limpia la bandera de interrupcion por UART
	PUSH	W10
	PUSH	W11
	PUSH	W12
	PUSH	W13
	BCLR	U1RXIF_bit, BitPos(U1RXIF_bit+0)
;Acelerografo.c,606 :: 		byteGPS = U1RXREG;                                                         //Lee el byte de la trama enviada por el GPS
	MOV	#lo_addr(_byteGPS), W1
	MOV.B	U1RXREG, WREG
	MOV.B	W0, [W1]
;Acelerografo.c,607 :: 		U1STA.OERR = 0;                                                            //Limpia este bit para limpiar el FIFO UART1
	BCLR	U1STA, #1
;Acelerografo.c,610 :: 		if (banGPSI==3){
	MOV	#lo_addr(_banGPSI), W0
	MOV.B	[W0], W0
	CP.B	W0, #3
	BRA Z	L__urx_1382
	GOTO	L_urx_1152
L__urx_1382:
;Acelerografo.c,611 :: 		if (byteGPS!=0x2A){
	MOV	#lo_addr(_byteGPS), W0
	MOV.B	[W0], W1
	MOV.B	#42, W0
	CP.B	W1, W0
	BRA NZ	L__urx_1383
	GOTO	L_urx_1153
L__urx_1383:
;Acelerografo.c,612 :: 		tramaGPS[i_gps] = byteGPS;                                           //LLena la tramaGPS hasta recibir el ultimo simbolo ("*") de la trama GPS
	MOV	#lo_addr(_tramaGPS), W1
	MOV	#lo_addr(_i_gps), W0
	ADD	W1, [W0], W1
	MOV	#lo_addr(_byteGPS), W0
	MOV.B	[W0], [W1]
;Acelerografo.c,613 :: 		i_gps++;
	MOV	#1, W1
	MOV	#lo_addr(_i_gps), W0
	ADD	W1, [W0], [W0]
;Acelerografo.c,614 :: 		} else {
	GOTO	L_urx_1154
L_urx_1153:
;Acelerografo.c,615 :: 		banGPSI = 0;                                                         //Limpia la bandera de inicio de trama
	MOV	#lo_addr(_banGPSI), W1
	CLR	W0
	MOV.B	W0, [W1]
;Acelerografo.c,616 :: 		banGPSC = 1;                                                         //Activa la bandera de trama completa
	MOV	#lo_addr(_banGPSC), W1
	MOV.B	#1, W0
	MOV.B	W0, [W1]
;Acelerografo.c,617 :: 		}
L_urx_1154:
;Acelerografo.c,618 :: 		}
L_urx_1152:
;Acelerografo.c,621 :: 		if ((banGPSI==1)){
	MOV	#lo_addr(_banGPSI), W0
	MOV.B	[W0], W0
	CP.B	W0, #1
	BRA Z	L__urx_1384
	GOTO	L_urx_1155
L__urx_1384:
;Acelerografo.c,622 :: 		if (byteGPS==0x24){                                                     //Verifica si el primer byte recibido sea la cabecera de trama "$"
	MOV	#lo_addr(_byteGPS), W0
	MOV.B	[W0], W1
	MOV.B	#36, W0
	CP.B	W1, W0
	BRA Z	L__urx_1385
	GOTO	L_urx_1156
L__urx_1385:
;Acelerografo.c,623 :: 		banGPSI = 2;
	MOV	#lo_addr(_banGPSI), W1
	MOV.B	#2, W0
	MOV.B	W0, [W1]
;Acelerografo.c,624 :: 		i_gps = 0;
	CLR	W0
	MOV	W0, _i_gps
;Acelerografo.c,625 :: 		}
L_urx_1156:
;Acelerografo.c,626 :: 		}
L_urx_1155:
;Acelerografo.c,627 :: 		if ((banGPSI==2)&&(i_gps<6)){
	MOV	#lo_addr(_banGPSI), W0
	MOV.B	[W0], W0
	CP.B	W0, #2
	BRA Z	L__urx_1386
	GOTO	L__urx_1258
L__urx_1386:
	MOV	_i_gps, W0
	CP	W0, #6
	BRA LTU	L__urx_1387
	GOTO	L__urx_1257
L__urx_1387:
L__urx_1256:
;Acelerografo.c,628 :: 		tramaGPS[i_gps] = byteGPS;                                              //Recupera los datos de cabecera de la trama GPS: ["$", "G", "P", "R", "M", "C"]
	MOV	#lo_addr(_tramaGPS), W1
	MOV	#lo_addr(_i_gps), W0
	ADD	W1, [W0], W1
	MOV	#lo_addr(_byteGPS), W0
	MOV.B	[W0], [W1]
;Acelerografo.c,629 :: 		i_gps++;
	MOV	#1, W1
	MOV	#lo_addr(_i_gps), W0
	ADD	W1, [W0], [W0]
;Acelerografo.c,627 :: 		if ((banGPSI==2)&&(i_gps<6)){
L__urx_1258:
L__urx_1257:
;Acelerografo.c,631 :: 		if ((banGPSI==2)&&(i_gps==6)){
	MOV	#lo_addr(_banGPSI), W0
	MOV.B	[W0], W0
	CP.B	W0, #2
	BRA Z	L__urx_1388
	GOTO	L__urx_1265
L__urx_1388:
	MOV	_i_gps, W0
	CP	W0, #6
	BRA Z	L__urx_1389
	GOTO	L__urx_1264
L__urx_1389:
L__urx_1255:
;Acelerografo.c,633 :: 		T2CON.TON = 0;
	BCLR	T2CON, #15
;Acelerografo.c,634 :: 		TMR2 = 0;
	CLR	TMR2
;Acelerografo.c,636 :: 		if (tramaGPS[1]=='G'&&tramaGPS[2]=='P'&&tramaGPS[3]=='R'&&tramaGPS[4]=='M'&&tramaGPS[5]=='C'){
	MOV	#lo_addr(_tramaGPS+1), W0
	MOV.B	[W0], W1
	MOV.B	#71, W0
	CP.B	W1, W0
	BRA Z	L__urx_1390
	GOTO	L__urx_1263
L__urx_1390:
	MOV	#lo_addr(_tramaGPS+2), W0
	MOV.B	[W0], W1
	MOV.B	#80, W0
	CP.B	W1, W0
	BRA Z	L__urx_1391
	GOTO	L__urx_1262
L__urx_1391:
	MOV	#lo_addr(_tramaGPS+3), W0
	MOV.B	[W0], W1
	MOV.B	#82, W0
	CP.B	W1, W0
	BRA Z	L__urx_1392
	GOTO	L__urx_1261
L__urx_1392:
	MOV	#lo_addr(_tramaGPS+4), W0
	MOV.B	[W0], W1
	MOV.B	#77, W0
	CP.B	W1, W0
	BRA Z	L__urx_1393
	GOTO	L__urx_1260
L__urx_1393:
	MOV	#lo_addr(_tramaGPS+5), W0
	MOV.B	[W0], W1
	MOV.B	#67, W0
	CP.B	W1, W0
	BRA Z	L__urx_1394
	GOTO	L__urx_1259
L__urx_1394:
L__urx_1254:
;Acelerografo.c,637 :: 		banGPSI = 3;
	MOV	#lo_addr(_banGPSI), W1
	MOV.B	#3, W0
	MOV.B	W0, [W1]
;Acelerografo.c,638 :: 		i_gps = 0;
	CLR	W0
	MOV	W0, _i_gps
;Acelerografo.c,639 :: 		} else {
	GOTO	L_urx_1166
;Acelerografo.c,636 :: 		if (tramaGPS[1]=='G'&&tramaGPS[2]=='P'&&tramaGPS[3]=='R'&&tramaGPS[4]=='M'&&tramaGPS[5]=='C'){
L__urx_1263:
L__urx_1262:
L__urx_1261:
L__urx_1260:
L__urx_1259:
;Acelerografo.c,640 :: 		banGPSI = 0;
	MOV	#lo_addr(_banGPSI), W1
	CLR	W0
	MOV.B	W0, [W1]
;Acelerografo.c,641 :: 		banGPSC = 0;
	MOV	#lo_addr(_banGPSC), W1
	CLR	W0
	MOV.B	W0, [W1]
;Acelerografo.c,642 :: 		i_gps = 0;
	CLR	W0
	MOV	W0, _i_gps
;Acelerografo.c,644 :: 		horaSistema = RecuperarHoraRTC();                                    //Recupera la hora del RTC
	CALL	_RecuperarHoraRTC
	MOV	W0, _horaSistema
	MOV	W1, _horaSistema+2
;Acelerografo.c,645 :: 		fechaSistema = RecuperarFechaRTC();                                  //Recupera la fecha del RTC
	CALL	_RecuperarFechaRTC
	MOV	W0, _fechaSistema
	MOV	W1, _fechaSistema+2
;Acelerografo.c,646 :: 		AjustarTiempoSistema(horaSistema, fechaSistema, tiempo);             //Actualiza los datos de la trama tiempo con la hora y fecha recuperadas del RTC
	MOV.D	W0, W12
	MOV	_horaSistema, W10
	MOV	_horaSistema+2, W11
	MOV	#lo_addr(_tiempo), W0
	PUSH	W0
	CALL	_AjustarTiempoSistema
	SUB	#2, W15
;Acelerografo.c,647 :: 		fuenteReloj = 4;                                                     //Fuente reloj: RTC/E4
	MOV	#lo_addr(_fuenteReloj), W1
	MOV.B	#4, W0
	MOV.B	W0, [W1]
;Acelerografo.c,648 :: 		banSetReloj = 1;
	MOV	#lo_addr(_banSetReloj), W1
	MOV.B	#1, W0
	MOV.B	W0, [W1]
;Acelerografo.c,649 :: 		InterrupcionP1(0xB2);                                                //Envia la hora local a la RPi y a los nodos                                                   //Envia la hora local a la RPi
	MOV.B	#178, W10
	CALL	_InterrupcionP1
;Acelerografo.c,650 :: 		banGPSI = 0;
	MOV	#lo_addr(_banGPSI), W1
	CLR	W0
	MOV.B	W0, [W1]
;Acelerografo.c,651 :: 		banGPSC = 0;
	MOV	#lo_addr(_banGPSC), W1
	CLR	W0
	MOV.B	W0, [W1]
;Acelerografo.c,652 :: 		i_gps = 0;
	CLR	W0
	MOV	W0, _i_gps
;Acelerografo.c,653 :: 		U1MODE.UARTEN = 0;                                                   //Desactiva el UART1
	BCLR	U1MODE, #15
;Acelerografo.c,654 :: 		}
L_urx_1166:
;Acelerografo.c,631 :: 		if ((banGPSI==2)&&(i_gps==6)){
L__urx_1265:
L__urx_1264:
;Acelerografo.c,658 :: 		if (banGPSC==1){
	MOV	#lo_addr(_banGPSC), W0
	MOV.B	[W0], W0
	CP.B	W0, #1
	BRA Z	L__urx_1395
	GOTO	L_urx_1167
L__urx_1395:
;Acelerografo.c,660 :: 		for (x=0;x<6;x++){
	CLR	W0
	MOV	W0, _x
L_urx_1168:
	MOV	_x, W0
	CP	W0, #6
	BRA LTU	L__urx_1396
	GOTO	L_urx_1169
L__urx_1396:
;Acelerografo.c,661 :: 		datosGPS[x] = tramaGPS[x+1];                                    //Guarda los datos de hhmmss
	MOV	#lo_addr(_datosGPS), W1
	MOV	#lo_addr(_x), W0
	ADD	W1, [W0], W2
	MOV	_x, W0
	ADD	W0, #1, W1
	MOV	#lo_addr(_tramaGPS), W0
	ADD	W0, W1, W0
	MOV.B	[W0], [W2]
;Acelerografo.c,660 :: 		for (x=0;x<6;x++){
	MOV	#1, W1
	MOV	#lo_addr(_x), W0
	ADD	W1, [W0], [W0]
;Acelerografo.c,662 :: 		}
	GOTO	L_urx_1168
L_urx_1169:
;Acelerografo.c,664 :: 		for (x=44;x<54;x++){
	MOV	#44, W0
	MOV	W0, _x
L_urx_1171:
	MOV	#54, W1
	MOV	#lo_addr(_x), W0
	CP	W1, [W0]
	BRA GTU	L__urx_1397
	GOTO	L_urx_1172
L__urx_1397:
;Acelerografo.c,665 :: 		if (tramaGPS[x]==0x2C){
	MOV	#lo_addr(_tramaGPS), W1
	MOV	#lo_addr(_x), W0
	ADD	W1, [W0], W0
	MOV.B	[W0], W1
	MOV.B	#44, W0
	CP.B	W1, W0
	BRA Z	L__urx_1398
	GOTO	L_urx_1174
L__urx_1398:
;Acelerografo.c,666 :: 		for (y=0;y<6;y++){
	CLR	W0
	MOV	W0, _y
L_urx_1175:
	MOV	_y, W0
	CP	W0, #6
	BRA LTU	L__urx_1399
	GOTO	L_urx_1176
L__urx_1399:
;Acelerografo.c,667 :: 		datosGPS[6+y] = tramaGPS[x+y+1];                             //Guarda los datos de DDMMAA en la trama datosGPS
	MOV	_y, W0
	ADD	W0, #6, W1
	MOV	#lo_addr(_datosGPS), W0
	ADD	W0, W1, W2
	MOV	_x, W1
	MOV	#lo_addr(_y), W0
	ADD	W1, [W0], W0
	ADD	W0, #1, W1
	MOV	#lo_addr(_tramaGPS), W0
	ADD	W0, W1, W0
	MOV.B	[W0], [W2]
;Acelerografo.c,666 :: 		for (y=0;y<6;y++){
	MOV	#1, W1
	MOV	#lo_addr(_y), W0
	ADD	W1, [W0], [W0]
;Acelerografo.c,668 :: 		}
	GOTO	L_urx_1175
L_urx_1176:
;Acelerografo.c,669 :: 		}
L_urx_1174:
;Acelerografo.c,664 :: 		for (x=44;x<54;x++){
	MOV	#1, W1
	MOV	#lo_addr(_x), W0
	ADD	W1, [W0], [W0]
;Acelerografo.c,670 :: 		}
	GOTO	L_urx_1171
L_urx_1172:
;Acelerografo.c,671 :: 		horaSistema = RecuperarHoraGPS(datosGPS);                               //Recupera la hora del GPS
	MOV	#lo_addr(_datosGPS), W10
	CALL	_RecuperarHoraGPS
	MOV	W0, _horaSistema
	MOV	W1, _horaSistema+2
;Acelerografo.c,672 :: 		fechaSistema = RecuperarFechaGPS(datosGPS);                             //Recupera la fecha del GPS
	MOV	#lo_addr(_datosGPS), W10
	CALL	_RecuperarFechaGPS
	MOV	W0, _fechaSistema
	MOV	W1, _fechaSistema+2
;Acelerografo.c,673 :: 		AjustarTiempoSistema(horaSistema, fechaSistema, tiempo);                //Actualiza los datos de la trama tiempo con la hora y fecha recuperadas del gps
	MOV.D	W0, W12
	MOV	_horaSistema, W10
	MOV	_horaSistema+2, W11
	MOV	#lo_addr(_tiempo), W0
	PUSH	W0
	CALL	_AjustarTiempoSistema
	SUB	#2, W15
;Acelerografo.c,688 :: 		if (tramaGPS[12]==0x41) {
	MOV	#lo_addr(_tramaGPS+12), W0
	MOV.B	[W0], W1
	MOV.B	#65, W0
	CP.B	W1, W0
	BRA Z	L__urx_1400
	GOTO	L_urx_1178
L__urx_1400:
;Acelerografo.c,689 :: 		fuenteReloj = 1;                                                     //Fuente reloj: GPS
	MOV	#lo_addr(_fuenteReloj), W1
	MOV.B	#1, W0
	MOV.B	W0, [W1]
;Acelerografo.c,690 :: 		banSyncReloj = 1;
	MOV	#lo_addr(_banSyncReloj), W1
	MOV.B	#1, W0
	MOV.B	W0, [W1]
;Acelerografo.c,691 :: 		banSetReloj = 1;
	MOV	#lo_addr(_banSetReloj), W1
	MOV.B	#1, W0
	MOV.B	W0, [W1]
;Acelerografo.c,693 :: 		InterrupcionP1(0xB2);
	MOV.B	#178, W10
	CALL	_InterrupcionP1
;Acelerografo.c,695 :: 		} else {
	GOTO	L_urx_1179
L_urx_1178:
;Acelerografo.c,696 :: 		fuenteReloj = 3;                                                    //Fuente reloj: GPS/E3
	MOV	#lo_addr(_fuenteReloj), W1
	MOV.B	#3, W0
	MOV.B	W0, [W1]
;Acelerografo.c,697 :: 		banSyncReloj = 1;
	MOV	#lo_addr(_banSyncReloj), W1
	MOV.B	#1, W0
	MOV.B	W0, [W1]
;Acelerografo.c,698 :: 		banSetReloj = 1;
	MOV	#lo_addr(_banSetReloj), W1
	MOV.B	#1, W0
	MOV.B	W0, [W1]
;Acelerografo.c,699 :: 		InterrupcionP1(0xB2);                                               //Envia la hora local a la RPi
	MOV.B	#178, W10
	CALL	_InterrupcionP1
;Acelerografo.c,700 :: 		}
L_urx_1179:
;Acelerografo.c,702 :: 		banGPSI = 0;
	MOV	#lo_addr(_banGPSI), W1
	CLR	W0
	MOV.B	W0, [W1]
;Acelerografo.c,703 :: 		banGPSC = 0;
	MOV	#lo_addr(_banGPSC), W1
	CLR	W0
	MOV.B	W0, [W1]
;Acelerografo.c,704 :: 		i_gps = 0;
	CLR	W0
	MOV	W0, _i_gps
;Acelerografo.c,705 :: 		U1MODE.UARTEN = 0;                                                      //Desactiva el UART1
	BCLR	U1MODE, #15
;Acelerografo.c,707 :: 		}
L_urx_1167:
;Acelerografo.c,709 :: 		}
L_end_urx_1:
	POP	W13
	POP	W12
	POP	W11
	POP	W10
	MOV	#26, W0
	REPEAT	#12
	POP	[W0--]
	POP	W0
	POP	RCOUNT
	POP	50
	POP	DSWPAG
	RETFIE
; end of _urx_1
