
_GPS_init:

;TIEMPO_GPS.c,9 :: 		void GPS_init()
;TIEMPO_GPS.c,11 :: 		UART1_Write_Text("$PMTK220,1000*1F\r\n");
	PUSH	W10
	MOV	#lo_addr(?lstr1_TIEMPO_GPS), W10
	CALL	_UART1_Write_Text
;TIEMPO_GPS.c,12 :: 		UART1_Write_Text("$PMTK313,1*2E\r\n");
	MOV	#lo_addr(?lstr2_TIEMPO_GPS), W10
	CALL	_UART1_Write_Text
;TIEMPO_GPS.c,13 :: 		UART1_Write_Text("$PMTK314,0,1,0,0,0,0,0,0,0,0,0,0,0,0,0,0,0*29\r\n");
	MOV	#lo_addr(?lstr3_TIEMPO_GPS), W10
	CALL	_UART1_Write_Text
;TIEMPO_GPS.c,14 :: 		UART1_Write_Text("$PMTK319,1*24\r\n");
	MOV	#lo_addr(?lstr4_TIEMPO_GPS), W10
	CALL	_UART1_Write_Text
;TIEMPO_GPS.c,15 :: 		UART1_Write_Text("$PMTK413*34\r\n");
	MOV	#lo_addr(?lstr5_TIEMPO_GPS), W10
	CALL	_UART1_Write_Text
;TIEMPO_GPS.c,16 :: 		UART1_Write_Text("$PMTK513,1*28\r\n");
	MOV	#lo_addr(?lstr6_TIEMPO_GPS), W10
	CALL	_UART1_Write_Text
;TIEMPO_GPS.c,17 :: 		Delay_ms(1000);
	MOV	#123, W8
	MOV	#4681, W7
L_GPS_init0:
	DEC	W7
	BRA NZ	L_GPS_init0
	DEC	W8
	BRA NZ	L_GPS_init0
;TIEMPO_GPS.c,19 :: 		}
L_end_GPS_init:
	POP	W10
	RETURN
; end of _GPS_init

_RecuperarFechaGPS:
	LNK	#28

;TIEMPO_GPS.c,23 :: 		unsigned long RecuperarFechaGPS(unsigned char *tramaDatosGPS)
;TIEMPO_GPS.c,29 :: 		char *ptrDatoStringF = &datoStringF;
	PUSH	W10
	ADD	W14, #16, W4
	MOV	W4, [W14+26]
; ptrDatoStringF start address is: 12 (W6)
	MOV	W4, W6
;TIEMPO_GPS.c,30 :: 		datoStringF[2] = '\0';
	ADD	W4, #2, W1
	CLR	W0
	MOV.B	W0, [W1]
;TIEMPO_GPS.c,31 :: 		tramaFecha[3] = '\0';
	ADD	W14, #0, W3
	MOV	W3, [W14+24]
	ADD	W3, #12, W2
	CLR	W0
	CLR	W1
	MOV.D	W0, [W2]
;TIEMPO_GPS.c,34 :: 		datoStringF[0] = tramaDatosGPS[10];
	ADD	W10, #10, W0
	MOV.B	[W0], [W4]
;TIEMPO_GPS.c,35 :: 		datoStringF[1] = tramaDatosGPS[11];
	ADD	W4, #1, W1
	ADD	W10, #11, W0
	MOV.B	[W0], [W1]
;TIEMPO_GPS.c,36 :: 		tramaFecha[0] = atoi(ptrDatoStringF);
	MOV	W3, W0
	MOV	W0, [W14+20]
	PUSH	W10
	MOV	W6, W10
	CALL	_atoi
	POP	W10
	MOV	W0, W1
	ASR	W1, #15, W2
	MOV	[W14+20], W0
	MOV	W1, [W0++]
	MOV	W2, [W0--]
;TIEMPO_GPS.c,39 :: 		datoStringF[0] = tramaDatosGPS[8];
	ADD	W10, #8, W1
	MOV	[W14+26], W0
	MOV.B	[W1], [W0]
;TIEMPO_GPS.c,40 :: 		datoStringF[1] = tramaDatosGPS[9];
	ADD	W0, #1, W1
	ADD	W10, #9, W0
	MOV.B	[W0], [W1]
;TIEMPO_GPS.c,41 :: 		tramaFecha[1] = atoi(ptrDatoStringF);
	MOV	[W14+24], W0
	ADD	W0, #4, W0
	MOV	W0, [W14+20]
	PUSH	W10
	MOV	W6, W10
	CALL	_atoi
	POP	W10
	MOV	W0, W1
	ASR	W1, #15, W2
	MOV	[W14+20], W0
	MOV	W1, [W0++]
	MOV	W2, [W0--]
;TIEMPO_GPS.c,44 :: 		datoStringF[0] = tramaDatosGPS[6];
	ADD	W10, #6, W1
	MOV	[W14+26], W0
	MOV.B	[W1], [W0]
;TIEMPO_GPS.c,45 :: 		datoStringF[1] = tramaDatosGPS[7];
	ADD	W0, #1, W1
	ADD	W10, #7, W0
	MOV.B	[W0], [W1]
;TIEMPO_GPS.c,46 :: 		tramaFecha[2] = atoi(ptrDatoStringF);
	MOV	[W14+24], W0
	ADD	W0, #8, W0
	MOV	W0, [W14+20]
	MOV	W6, W10
; ptrDatoStringF end address is: 12 (W6)
	CALL	_atoi
	MOV	W0, W1
	ASR	W1, #15, W2
	MOV	[W14+20], W0
	MOV	W1, [W0++]
	MOV	W2, [W0--]
;TIEMPO_GPS.c,49 :: 		fechaGPS = (tramaFecha[0] * 10000) + (tramaFecha[1] * 100) + (tramaFecha[2]); // 10000*aa + 100*mm + dd
	MOV	[W14+24], W2
	MOV.D	[W2], W0
	MOV	#10000, W2
	MOV	#0, W3
	CALL	__Multiply_32x32
	MOV	[W14+24], W2
	MOV	W0, [W14+20]
	MOV	W1, [W14+22]
	ADD	W2, #4, W2
	MOV.D	[W2], W0
	MOV	#100, W2
	MOV	#0, W3
	CALL	__Multiply_32x32
	MOV	[W14+20], W2
	MOV	[W14+22], W3
	ADD	W2, W0, W4
	ADDC	W3, W1, W5
	MOV	[W14+24], W0
	ADD	W0, #8, W2
	ADD	W4, [W2++], W0
	ADDC	W5, [W2--], W1
;TIEMPO_GPS.c,51 :: 		return fechaGPS;
;TIEMPO_GPS.c,52 :: 		}
;TIEMPO_GPS.c,51 :: 		return fechaGPS;
;TIEMPO_GPS.c,52 :: 		}
L_end_RecuperarFechaGPS:
	POP	W10
	ULNK
	RETURN
; end of _RecuperarFechaGPS

_RecuperarHoraGPS:
	LNK	#28

;TIEMPO_GPS.c,55 :: 		unsigned long RecuperarHoraGPS(unsigned char *tramaDatosGPS)
;TIEMPO_GPS.c,61 :: 		char *ptrDatoString = &datoString;
	PUSH	W10
	ADD	W14, #16, W4
	MOV	W4, [W14+26]
; ptrDatoString start address is: 12 (W6)
	MOV	W4, W6
;TIEMPO_GPS.c,62 :: 		datoString[2] = '\0';
	ADD	W4, #2, W1
	CLR	W0
	MOV.B	W0, [W1]
;TIEMPO_GPS.c,63 :: 		tramaTiempo[3] = '\0';
	ADD	W14, #0, W3
	MOV	W3, [W14+24]
	ADD	W3, #12, W2
	CLR	W0
	CLR	W1
	MOV.D	W0, [W2]
;TIEMPO_GPS.c,66 :: 		datoString[0] = tramaDatosGPS[0];
	MOV.B	[W10], [W4]
;TIEMPO_GPS.c,67 :: 		datoString[1] = tramaDatosGPS[1];
	ADD	W4, #1, W1
	ADD	W10, #1, W0
	MOV.B	[W0], [W1]
;TIEMPO_GPS.c,68 :: 		tramaTiempo[0] = atoi(ptrDatoString);
	MOV	W3, W0
	MOV	W0, [W14+20]
	PUSH	W10
	MOV	W6, W10
	CALL	_atoi
	POP	W10
	MOV	W0, W1
	ASR	W1, #15, W2
	MOV	[W14+20], W0
	MOV	W1, [W0++]
	MOV	W2, [W0--]
;TIEMPO_GPS.c,71 :: 		datoString[0] = tramaDatosGPS[2];
	ADD	W10, #2, W1
	MOV	[W14+26], W0
	MOV.B	[W1], [W0]
;TIEMPO_GPS.c,72 :: 		datoString[1] = tramaDatosGPS[3];
	ADD	W0, #1, W1
	ADD	W10, #3, W0
	MOV.B	[W0], [W1]
;TIEMPO_GPS.c,73 :: 		tramaTiempo[1] = atoi(ptrDatoString);
	MOV	[W14+24], W0
	ADD	W0, #4, W0
	MOV	W0, [W14+20]
	PUSH	W10
	MOV	W6, W10
	CALL	_atoi
	POP	W10
	MOV	W0, W1
	ASR	W1, #15, W2
	MOV	[W14+20], W0
	MOV	W1, [W0++]
	MOV	W2, [W0--]
;TIEMPO_GPS.c,76 :: 		datoString[0] = tramaDatosGPS[4];
	ADD	W10, #4, W1
	MOV	[W14+26], W0
	MOV.B	[W1], [W0]
;TIEMPO_GPS.c,77 :: 		datoString[1] = tramaDatosGPS[5];
	ADD	W0, #1, W1
	ADD	W10, #5, W0
	MOV.B	[W0], [W1]
;TIEMPO_GPS.c,78 :: 		tramaTiempo[2] = atoi(ptrDatoString);
	MOV	[W14+24], W0
	ADD	W0, #8, W0
	MOV	W0, [W14+20]
	MOV	W6, W10
; ptrDatoString end address is: 12 (W6)
	CALL	_atoi
	MOV	W0, W1
	ASR	W1, #15, W2
	MOV	[W14+20], W0
	MOV	W1, [W0++]
	MOV	W2, [W0--]
;TIEMPO_GPS.c,80 :: 		horaGPS = (tramaTiempo[0] * 3600) + (tramaTiempo[1] * 60) + (tramaTiempo[2]); // Calcula el segundo actual = hh*3600 + mm*60 + ss
	MOV	[W14+24], W2
	MOV.D	[W2], W0
	MOV	#3600, W2
	MOV	#0, W3
	CALL	__Multiply_32x32
	MOV	[W14+24], W2
	MOV	W0, [W14+20]
	MOV	W1, [W14+22]
	ADD	W2, #4, W2
	MOV.D	[W2], W0
	MOV	#60, W2
	MOV	#0, W3
	CALL	__Multiply_32x32
	MOV	[W14+20], W2
	MOV	[W14+22], W3
	ADD	W2, W0, W4
	ADDC	W3, W1, W5
	MOV	[W14+24], W0
	ADD	W0, #8, W2
	ADD	W4, [W2++], W0
	ADDC	W5, [W2--], W1
;TIEMPO_GPS.c,81 :: 		return horaGPS;
;TIEMPO_GPS.c,82 :: 		}
;TIEMPO_GPS.c,81 :: 		return horaGPS;
;TIEMPO_GPS.c,82 :: 		}
L_end_RecuperarHoraGPS:
	POP	W10
	ULNK
	RETURN
; end of _RecuperarHoraGPS
